
 Start         Length     Name                   Class
 0000:0000000000000000 00000000000541000H .text                  CODE
 0000:0000000000000000 000000000005931D8H .rodata                CONST
 0000:0000000000000000 00000000000034DB4H .eh_frame_hdr          CONST
 0000:0000000000000000 000000000000D1074H .rodata                CONST
 0000:0000000000000000 00000000000062000H .data                  DATA
 0000:0000000000000000 000000000000BE758H .bss                   BSS


  Address         Publics by Value

 00000000:0000007100000030       _init
 00000000:0000007100000170       _fini
 00000000:00000071000001E0       __nnDetailNintendoSdkRuntimeObjectFileRefer
 00000000:00000071000001F0       nndetailRoGetRoDataStart
 00000000:0000007100000200       nndetailRoGetRoDataEnd
 00000000:0000007100000210       _ZN7android7IBinderC2Ev
 00000000:0000007100000230       _ZN7android7IBinderD2Ev
 00000000:0000007100000240       _ZN7android7IBinderD1Ev
 00000000:0000007100000250       _ZTv0_n24_N7android7IBinderD1Ev
 00000000:0000007100000260       _ZN7android7IBinderD0Ev
 00000000:0000007100000270       _ZTv0_n24_N7android7IBinderD0Ev
 00000000:0000007100000280       _ZN7android7IBinder19queryLocalInterfaceERKNS_8String16E
 00000000:0000007100000290       _ZN7android7IBinder11localBinderEv
 00000000:00000071000002A0       _ZN7android7IBinder12remoteBinderEv
 00000000:00000071000002B0       _ZNK7android7IBinder13checkSubclassEPKv
 00000000:00000071000002C0       _ZN7android7BBinderC2Ev
 00000000:00000071000002F0       _ZN7android7BBinderC1Ev
 00000000:0000007100000330       _ZNK7android7BBinder13isBinderAliveEv
 00000000:0000007100000340       _ZN7android7BBinder10pingBinderEv
 00000000:0000007100000350       _ZNK7android7BBinder22getInterfaceDescriptorEv
 00000000:00000071000003D0       _ZN7android7BBinder8transactEjRKNS_6ParcelEPS1_j
 00000000:0000007100000490       _ZN7android7BBinder15getNativeHandleEjRjRb
 00000000:00000071000004A0       _ZN7android7BBinder11linkToDeathERKNS_2spINS_7IBinder14DeathRecipientEEEPvj
 00000000:00000071000004B0       _ZN7android7BBinder13unlinkToDeathERKNS_2wpINS_7IBinder14DeathRecipientEEEPvjPS4_
 00000000:00000071000004C0       _ZN7android7BBinder4dumpEiRKNS_6VectorINS_8String16EEE
 00000000:00000071000004D0       _ZN7android7BBinder12attachObjectEPKvPvS3_PFvS2_S3_S3_E
 00000000:00000071000005D0       _ZNK7android7BBinder10findObjectEPKv
 00000000:0000007100000630       _ZN7android7BBinder12detachObjectEPKv
 00000000:0000007100000680       _ZN7android7BBinder11localBinderEv
 00000000:0000007100000690       _ZN7android7BBinderD2Ev
 00000000:00000071000006F0       _ZN7android7BBinderD1Ev
 00000000:0000007100000750       _ZTv0_n24_N7android7BBinderD1Ev
 00000000:00000071000007C0       _ZN7android7BBinderD0Ev
 00000000:0000007100000830       _ZTv0_n24_N7android7BBinderD0Ev
 00000000:00000071000008B0       _ZN7android7BBinder10onTransactEjRKNS_6ParcelEPS1_j
 00000000:0000007100000A40       _ZN7android7BBinder17onGetNativeHandleEjRjRb
 00000000:0000007100000A50       _ZN7android9BpRefBaseC2ERKNS_2spINS_7IBinderEEE
 00000000:0000007100000AE0       _ZN7android9BpRefBaseC1ERKNS_2spINS_7IBinderEEE
 00000000:0000007100000B80       _ZN7android9BpRefBaseD2Ev
 00000000:0000007100000BE0       _ZN7android9BpRefBaseD1Ev
 00000000:0000007100000C50       _ZTv0_n24_N7android9BpRefBaseD1Ev
 00000000:0000007100000CD0       _ZN7android9BpRefBaseD0Ev
 00000000:0000007100000D50       _ZTv0_n24_N7android9BpRefBaseD0Ev
 00000000:0000007100000DD0       _ZN7android9BpRefBase10onFirstRefEv
 00000000:0000007100000DE0       _ZTv0_n32_N7android9BpRefBase10onFirstRefEv
 00000000:0000007100000E00       _ZN7android9BpRefBase15onLastStrongRefEPKv
 00000000:0000007100000E20       _ZTv0_n40_N7android9BpRefBase15onLastStrongRefEPKv
 00000000:0000007100000E50       _ZN7android9BpRefBase20onIncStrongAttemptedEjPKv
 00000000:0000007100000E70       _ZTv0_n48_N7android9BpRefBase20onIncStrongAttemptedEjPKv
 00000000:00000071000015F0       _ZN7android8BpBinder8transactEjRKNS_6ParcelEPS1_j
 00000000:0000007100001670       _ZN7android8BpBinder15getNativeHandleEjRjRb
 00000000:00000071000016E0       _ZN7android8BpBinder11linkToDeathERKNS_2spINS_7IBinder14DeathRecipientEEEPvj
 00000000:00000071000016F0       _ZN7android8BpBinder13unlinkToDeathERKNS_2wpINS_7IBinder14DeathRecipientEEEPvjPS4_
 00000000:00000071000018A0       nullsub_7
 00000000:0000007100001AB0       _ZN7android8BpBinder10onFirstRefEv
 00000000:0000007100001AF0       _ZTv0_n32_N7android8BpBinder10onFirstRefEv
 00000000:0000007100001B30       _ZN7android8BpBinder15onLastStrongRefEPKv
 00000000:0000007100001B70       _ZTv0_n40_N7android8BpBinder15onLastStrongRefEPKv
 00000000:0000007100001BB0       _ZN7android8BpBinder20onIncStrongAttemptedEjPKv
 00000000:0000007100001BF0       _ZTv0_n48_N7android8BpBinder20onIncStrongAttemptedEjPKv
 00000000:0000007100001CD0       nullsub_8
 00000000:0000007100001CE0       nullsub_9
 00000000:0000007100001F60       _ZN7android10IInterfaceC2Ev
 00000000:0000007100001F80       _ZN7android10IInterfaceD2Ev
 00000000:0000007100001F90       _ZN7android10IInterfaceD1Ev
 00000000:0000007100001FA0       _ZTv0_n24_N7android10IInterfaceD1Ev
 00000000:0000007100001FB0       _ZN7android10IInterfaceD0Ev
 00000000:0000007100001FC0       _ZTv0_n24_N7android10IInterfaceD0Ev
 00000000:0000007100001FD0       _ZN7android10IInterface8asBinderEv
 00000000:0000007100002020       _ZNK7android10IInterface8asBinderEv
 00000000:0000007100002070       _ZN7android10IInterface8asBinderEPKS0_
 00000000:00000071000020D0       _ZN7android10IInterface8asBinderERKNS_2spIS0_EE
 00000000:0000007100002150       _ZNK7android7IMemory11fastPointerERKNS_2spINS_7IBinderEEEl
 00000000:00000071000021C0       _ZNK7android7IMemory7pointerEv
 00000000:0000007100002250       _ZNK7android7IMemory4sizeEv
 00000000:00000071000022A0       _ZN7android8BpMemoryC2ERKNS_2spINS_7IBinderEEE
 00000000:0000007100002340       _ZN7android8BpMemoryC1ERKNS_2spINS_7IBinderEEE
 00000000:0000007100002930       _ZN7android7IMemory11asInterfaceERKNS_2spINS_7IBinderEEE
 00000000:0000007100002C00       _ZN7android8BnMemory10onTransactEjRKNS_6ParcelEPS1_j
 00000000:0000007100002D00       _ZThn8_N7android8BnMemory10onTransactEjRKNS_6ParcelEPS1_j
 00000000:0000007100002D10       _ZN7android12BpMemoryHeapC2ERKNS_2spINS_7IBinderEEE
 00000000:0000007100002DD0       _ZN7android12BpMemoryHeapC1ERKNS_2spINS_7IBinderEEE
 00000000:0000007100003490       _ZNK7android11IMemoryHeap22getInterfaceDescriptorEv
 00000000:0000007100003590       _ZN7android11IMemoryHeap11asInterfaceERKNS_2spINS_7IBinderEEE
 00000000:0000007100003720       _ZN7android11IMemoryHeapC2Ev
 00000000:0000007100003760       _ZN7android11IMemoryHeapD2Ev
 00000000:0000007100003770       _ZN7android11IMemoryHeapD1Ev
 00000000:0000007100003780       _ZTv0_n24_N7android11IMemoryHeapD1Ev
 00000000:0000007100003790       _ZN7android11IMemoryHeapD0Ev
 00000000:00000071000037A0       _ZTv0_n24_N7android11IMemoryHeapD0Ev
 00000000:00000071000037B0       _ZN7android12BnMemoryHeapC2Ev
 00000000:0000007100003830       _ZN7android12BnMemoryHeapD2Ev
 00000000:0000007100003870       _ZN7android12BnMemoryHeapD1Ev
 00000000:0000007100003880       _ZThn8_N7android12BnMemoryHeapD1Ev
 00000000:0000007100003890       _ZTv0_n24_N7android12BnMemoryHeapD1Ev
 00000000:00000071000038A0       _ZN7android12BnMemoryHeapD0Ev
 00000000:00000071000038B0       _ZThn8_N7android12BnMemoryHeapD0Ev
 00000000:00000071000038C0       _ZTv0_n24_N7android12BnMemoryHeapD0Ev
 00000000:00000071000038D0       _ZN7android12BnMemoryHeap10onTransactEjRKNS_6ParcelEPS1_j
 00000000:00000071000039B0       _ZThn8_N7android12BnMemoryHeap10onTransactEjRKNS_6ParcelEPS1_j
 00000000:0000007100003BC0       _ZN7android9HeapCache10binderDiedERKNS_2wpINS_7IBinderEEE
 00000000:0000007100003BD0       _ZN7android9HeapCache9free_heapERKNS_2wpINS_7IBinderEEE
 00000000:0000007100003D10       _ZN7android9HeapCache9find_heapERKNS_2spINS_7IBinderEEE
 00000000:0000007100004000       _ZN7android9HeapCache9free_heapERKNS_2spINS_7IBinderEEE
 00000000:0000007100004070       _ZN7android9HeapCache8get_heapERKNS_2spINS_7IBinderEEE
 00000000:0000007100004D60       _ZN7android15IServiceManager11asInterfaceERKNS_2spINS_7IBinderEEE
 00000000:0000007100004F70       _ZN7android16BnServiceManager10onTransactEjRKNS_6ParcelEPS1_j
 00000000:0000007100004FD8       def_7100004FAC
 00000000:0000007100005160       _ZThn8_N7android16BnServiceManager10onTransactEjRKNS_6ParcelEPS1_j
 00000000:0000007100005830       _ZN7android10AllocationC2ERKNS_2spINS_12MemoryDealerEEERKNS1_INS_11IMemoryHeapEEElm
 00000000:00000071000058B0       _ZN7android10AllocationC1ERKNS_2spINS_12MemoryDealerEEERKNS1_INS_11IMemoryHeapEEElm
 00000000:0000007100005BC0       _ZN7android12MemoryDealerC1EmPKcj
 00000000:0000007100005CE0       _ZN7android12MemoryDealerD2Ev
 00000000:0000007100005D90       _ZN7android12MemoryDealerD0Ev
 00000000:0000007100005DC0       _ZN7android12MemoryDealer8allocateEm
 00000000:0000007100005EE0       _ZNK7android12MemoryDealer9allocatorEv
 00000000:0000007100005EF0       _ZNK7android12MemoryDealer4heapEv
 00000000:0000007100005F00       _ZN7android12MemoryDealer10deallocateEm
 00000000:0000007100006000       _ZNK7android12MemoryDealer4dumpEPKc
 00000000:00000071000063E0       _ZN7android10MemoryBaseC2ERKNS_2spINS_11IMemoryHeapEEElm
 00000000:0000007100006480       _ZN7android10MemoryBaseC1ERKNS_2spINS_11IMemoryHeapEEElm
 00000000:0000007100006560       _ZN7android10MemoryBaseD2Ev
 00000000:0000007100006730       _ZN7android10MemoryBaseD0Ev
 00000000:0000007100006FAC       def_7100006EC0
 00000000:00000071000070F0       def_7100006FF0
 00000000:0000007100007100       _ZN7android14flatten_binderERKNS_2spINS_12ProcessStateEEERKNS0_INS_7IBinderEEEPNS_6ParcelE
 00000000:0000007100007200       _ZN7android14flatten_binderERKNS_2spINS_12ProcessStateEEERKNS_2wpINS_7IBinderEEEPNS_6ParcelE
 00000000:0000007100007330       _ZN7android16unflatten_binderERKNS_2spINS_12ProcessStateEEERKNS_6ParcelEPNS0_INS_7IBinderEEE
 00000000:0000007100007550       _ZNK7android6Parcel10readObjectEb
 00000000:0000007100007630       _ZN7android16unflatten_binderERKNS_2spINS_12ProcessStateEEERKNS_6ParcelEPNS_2wpINS_7IBinderEEE
 00000000:0000007100007830       _ZN7android6ParcelC2Ev
 00000000:0000007100007860       _ZN7android6Parcel9initStateEv
 00000000:0000007100007890       _ZN7android6ParcelD2Ev
 00000000:00000071000078A0       _ZN7android6Parcel14freeDataNoInitEv
 00000000:0000007100007970       _ZNK7android6Parcel4dataEv
 00000000:0000007100007980       _ZNK7android6Parcel8dataSizeEv
 00000000:00000071000079A0       _ZNK7android6Parcel9dataAvailEv
 00000000:00000071000079C0       _ZNK7android6Parcel12dataPositionEv
 00000000:00000071000079D0       _ZNK7android6Parcel12dataCapacityEv
 00000000:00000071000079E0       _ZN7android6Parcel11setDataSizeEm
 00000000:0000007100007A20       _ZN7android6Parcel13continueWriteEm
 00000000:0000007100007D40       _ZNK7android6Parcel15setDataPositionEm
 00000000:0000007100007D50       _ZN7android6Parcel15setDataCapacityEm
 00000000:0000007100007D70       _ZN7android6Parcel7setDataEPKhm
 00000000:0000007100007DD0       _ZN7android6Parcel12restartWriteEm
 00000000:0000007100007F80       _ZN7android6Parcel10appendFromEPKS0_mm
 00000000:0000007100008210       _ZN7android6Parcel8growDataEm
 00000000:0000007100008240       _ZN7android6Parcel12pushAllowFdsEb
 00000000:0000007100008260       _ZN7android6Parcel15restoreAllowFdsEb
 00000000:0000007100008270       _ZNK7android6Parcel18hasFileDescriptorsEv
 00000000:00000071000082F0       _ZNK7android6Parcel10scanForFdsEv
 00000000:0000007100008350       _ZN7android6Parcel19writeInterfaceTokenERKNS_8String16E
 00000000:0000007100008400       _ZN7android6Parcel10writeInt32Ei
 00000000:00000071000084B0       _ZN7android6Parcel13writeString16ERKNS_8String16E
 00000000:00000071000084D0       _ZNK7android6Parcel14checkInterfaceEPNS_7IBinderE
 00000000:0000007100008510       _ZNK7android6Parcel16enforceInterfaceERKNS_8String16EPNS_14IPCThreadStateE
 00000000:0000007100008630       _ZNK7android6Parcel9readInt32Ev
 00000000:0000007100008660       _ZNK7android6Parcel19readString16InplaceEPm
 00000000:0000007100008700       _ZNK7android6Parcel7objectsEv
 00000000:0000007100008710       _ZN7android6Parcel13foreachObjectEPFvP18flat_binder_objectPvES3_
 00000000:0000007100008770       _ZNK7android6Parcel12objectsCountEv
 00000000:0000007100008780       _ZNK7android6Parcel10errorCheckEv
 00000000:0000007100008790       _ZN7android6Parcel8setErrorEi
 00000000:00000071000087A0       _ZN7android6Parcel11finishWriteEm
 00000000:00000071000087D0       _ZN7android6Parcel13writeUnpaddedEPKvm
 00000000:00000071000088C0       _ZN7android6Parcel5writeEPKvm
 00000000:00000071000089A0       _ZN7android6Parcel12writeInplaceEm
 00000000:0000007100008A70       _ZN7android6Parcel15writeInt32ArrayEmPKi
 00000000:0000007100008C40       _ZN7android6Parcel14writeByteArrayEmPKh
 00000000:0000007100008E40       _ZN7android6Parcel10writeInt64El
 00000000:0000007100008EF0       _ZN7android6Parcel12writePointerEm
 00000000:0000007100008FA0       _ZN7android6Parcel10writeFloatEf
 00000000:0000007100009060       _ZN7android6Parcel11writeDoubleEd
 00000000:0000007100009120       _ZN7android6Parcel12writeCStringEPKc
 00000000:0000007100009210       _ZN7android6Parcel12writeString8ERKNS_7String8E
 00000000:00000071000093D0       _ZN7android6Parcel13writeString16EPKDsm
 00000000:0000007100009590       _ZN7android6Parcel17writeStrongBinderERKNS_2spINS_7IBinderEEE
 00000000:00000071000095F0       _ZN7android6Parcel15writeWeakBinderERKNS_2wpINS_7IBinderEEE
 00000000:0000007100009650       _ZN7android6Parcel17writeNativeHandleEPK13native_handle
 00000000:0000007100009870       _ZN7android6Parcel22writeDupFileDescriptorEi
 00000000:00000071000098F0       _ZN7android6Parcel19writeFileDescriptorEib
 00000000:0000007100009930       _ZN7android6Parcel11writeObjectERK18flat_binder_objectb
 00000000:0000007100009AC0       _ZN7android6Parcel25writeParcelFileDescriptorEii
 00000000:0000007100009CE0       _ZN7android6Parcel9writeBlobEmPNS0_12WritableBlobE
 00000000:0000007100009F70       _ZN7android6Parcel4Blob4initEbPvm
 00000000:0000007100009F80       _ZN7android6Parcel5writeERKNS0_26FlattenableHelperInterfaceE
 00000000:000000710000A1F0       _ZN7android6Parcel16writeNoExceptionEv
 00000000:000000710000A280       _ZN7android6Parcel6removeEmm
 00000000:000000710000A2A0       _ZNK7android6Parcel4readEPvm
 00000000:000000710000A320       _ZNK7android6Parcel11readInplaceEm
 00000000:000000710000A360       _ZNK7android6Parcel9readInt32EPi
 00000000:000000710000A3A0       _ZNK7android6Parcel9readInt64EPl
 00000000:000000710000A3E0       _ZNK7android6Parcel9readInt64Ev
 00000000:000000710000A410       _ZNK7android6Parcel11readPointerEPm
 00000000:000000710000A450       _ZNK7android6Parcel11readPointerEv
 00000000:000000710000A480       _ZNK7android6Parcel9readFloatEPf
 00000000:000000710000A4C0       _ZNK7android6Parcel9readFloatEv
 00000000:000000710000A4F0       _ZNK7android6Parcel10readDoubleEPd
 00000000:000000710000A530       _ZNK7android6Parcel10readDoubleEv
 00000000:000000710000A560       _ZNK7android6Parcel10readIntPtrEPl
 00000000:000000710000A5A0       _ZNK7android6Parcel10readIntPtrEv
 00000000:000000710000A5D0       _ZNK7android6Parcel11readCStringEv
 00000000:000000710000A660       _ZNK7android6Parcel11readString8Ev
 00000000:000000710000A6D0       _ZNK7android6Parcel12readString16Ev
 00000000:000000710000A760       _ZNK7android6Parcel16readStrongBinderEv
 00000000:000000710000A7C0       _ZNK7android6Parcel14readWeakBinderEv
 00000000:000000710000A820       _ZNK7android6Parcel17readExceptionCodeEv
 00000000:000000710000A890       _ZNK7android6Parcel16readNativeHandleEv
 00000000:000000710000AA90       _ZNK7android6Parcel18readFileDescriptorEv
 00000000:000000710000AB80       _ZNK7android6Parcel24readParcelFileDescriptorERi
 00000000:000000710000ADD0       _ZNK7android6Parcel8readBlobEmPNS0_12ReadableBlobE
 00000000:000000710000AF70       _ZNK7android6Parcel4readERNS0_26FlattenableHelperInterfaceE
 00000000:000000710000B1B0       _ZN7android6Parcel20closeFileDescriptorsEv
 00000000:000000710000B210       _ZNK7android6Parcel7ipcDataEv
 00000000:000000710000B220       _ZNK7android6Parcel11ipcDataSizeEv
 00000000:000000710000B240       _ZNK7android6Parcel10ipcObjectsEv
 00000000:000000710000B250       _ZNK7android6Parcel15ipcObjectsCountEv
 00000000:000000710000B260       _ZN7android6Parcel19ipcSetDataReferenceEPKhmPKjmPFvPS0_S2_mS4_mPvES6_
 00000000:000000710000B350       _ZN7android6Parcel14releaseObjectsEv
 00000000:000000710000B3E0       _ZN7android6Parcel14acquireObjectsEv
 00000000:000000710000B520       _ZN7android6Parcel8freeDataEv
 00000000:000000710000B570       _ZN7android6Parcel4BlobC2Ev
 00000000:000000710000B580       _ZN7android6Parcel4BlobD2Ev
 00000000:000000710000B5C0       _ZN7android6Parcel4Blob7releaseEv
 00000000:000000710000B600       _ZN7android6Parcel4Blob5clearEv
 00000000:000000710000B610       _ZN7android12ProcessState4selfEv
 00000000:000000710000B760       _ZN7android12ProcessState16setContextObjectERKNS_2spINS_7IBinderEEE
 00000000:000000710000B7B0       _ZN7android12ProcessState16setContextObjectERKNS_2spINS_7IBinderEEERKNS_8String16E
 00000000:000000710000B870       _ZN7android12ProcessState16getContextObjectERKNS_2spINS_7IBinderEEE
 00000000:000000710000B9C0       _ZN7android12ProcessState16getContextObjectERKNS_8String16ERKNS_2spINS_7IBinderEEE
 00000000:000000710000BB90       _ZN7android12ProcessState15startThreadPoolEv
 00000000:000000710000C900       nullsub_10
 00000000:000000710000C910       nullsub_11
 00000000:000000710000CB80       j__ZN7android10HeapObjectnwEm_0
 00000000:000000710000CB90       j__ZN7android10HeapObjectdlEPv_0
 00000000:000000710000CBA0       j__ZN7android10HeapObjectnwEm_0_0
 00000000:000000710000CBB0       j__ZN7android10HeapObjectdlEPv_0_0
 00000000:000000710000CBC0       _ZN7android21defaultServiceManagerEv
 00000000:000000710000CC20       _ZN7android24defaultHOSServiceManagerEv
 00000000:000000710000D580       _ZN7android17HOSServiceManager15addServiceProxyERKNS_7String8EN2nn2sf13SharedPointerIN3nns9hosbinder16IHOSBinderDriverEEE
 00000000:000000710000D680       _ZN7android17HOSServiceManager18removeServiceProxyERKNS_7String8E
 00000000:000000710000DD20       _ZN7android14IPCThreadState4selfEv
 00000000:000000710000DE10       _ZN7android14IPCThreadState16threadDestructorEPv
 00000000:000000710000DE60       _ZN7android14IPCThreadState8shutdownEv
 00000000:000000710000DF80       _ZN7android14IPCThreadState10selfOrNullEv
 00000000:000000710000E0A0       _ZN7android14IPCThreadState10freeBufferEPNS_6ParcelEPKhmPKjmPv
 00000000:000000710000E230       _ZN7android14IPCThreadState15getNativeHandleERNS_8BpBinderEjRjRb
 00000000:000000710000E540       _ZN7android14IPCThreadState22attemptIncStrongHandleEi
 00000000:000000710000E590       _ZN7android14IPCThreadStateC1Ev
 00000000:000000710000E5C0       _ZN7android14IPCThreadStateD2Ev
 00000000:000000710000FE00       ashmem_create_region
 00000000:000000710000FE10       ashmem_set_prot_region
 00000000:000000710000FE20       android_atomic_acquire_load
 00000000:000000710000FE30       android_atomic_release_store
 00000000:000000710000FE40       android_atomic_release_cas
 00000000:000000710000FE80       android_atomic_add
 00000000:000000710000FEB0       android_atomic_inc
 00000000:000000710000FEE0       android_atomic_dec
 00000000:000000710000FF10       android_atomic_and
 00000000:000000710000FF40       android_atomic_or
 00000000:000000710000FF70       native_handle_create
 00000000:000000710000FFB0       native_handle_delete
 00000000:000000710000FFE0       native_handle_close
 00000000:0000007100010000       property_set
 00000000:0000007100010010       property_get
 00000000:0000007100010090       set_sched_policy
 00000000:00000071000100A0       thread_store_get
 00000000:00000071000100D0       thread_store_set
 00000000:0000007100010160       _ZN7android22IGraphicBufferConsumer10BufferItemC2Ev
 00000000:00000071000101A0       _ZNK7android22IGraphicBufferConsumer10BufferItem10getPodSizeEv
 00000000:00000071000101B0       _ZNK7android22IGraphicBufferConsumer10BufferItem16getFlattenedSizeEv
 00000000:0000007100010210       _ZNK7android22IGraphicBufferConsumer10BufferItem10getFdCountEv
 00000000:0000007100010260       _ZNK7android22IGraphicBufferConsumer10BufferItem7flattenERPvRmRPiS4_
 00000000:0000007100010480       _ZN7android22IGraphicBufferConsumer10BufferItem9unflattenERPKvRmRPKiS5_
 00000000:0000007100010900       _ZN7android23BnGraphicBufferConsumer10onTransactEjRKNS_6ParcelEPS1_j
 00000000:0000007100010E2C       def_7100010944
 00000000:0000007100010F30       _ZThn8_N7android23BnGraphicBufferConsumer10onTransactEjRKNS_6ParcelEPS1_j
 00000000:0000007100010F40       _ZN7android23BnGraphicBufferConsumer17onGetNativeHandleEjRjRb
 00000000:0000007100010F70       _ZThn8_N7android23BnGraphicBufferConsumer17onGetNativeHandleEjRjRb
 00000000:0000007100012970       _ZN7android18BnConsumerListener10onTransactEjRKNS_6ParcelEPS1_j
 00000000:0000007100012A80       _ZThn16_N7android18BnConsumerListener10onTransactEjRKNS_6ParcelEPS1_j
 00000000:0000007100012AB0       nullsub_12
 00000000:00000071000132B0       _ZN7android10BufferItemC2Ev
 00000000:00000071000132F0       _ZN7android10BufferItemD2Ev
 00000000:0000007100013350       _ZNK7android10BufferItemcvNS_22IGraphicBufferConsumer10BufferItemEEv
 00000000:0000007100013450       _ZNK7android10BufferItem10getPodSizeEv
 00000000:0000007100013460       _ZNK7android10BufferItem16getFlattenedSizeEv
 00000000:00000071000134B0       _ZNK7android10BufferItem10getFdCountEv
 00000000:0000007100013500       _ZNK7android10BufferItem7flattenERPvRmRPiS3_
 00000000:00000071000136E0       _ZN7android10BufferItem9unflattenERPKvRmRPKiS4_
 00000000:00000071000138E0       _ZN7android10BufferItem15scalingModeNameEj
 00000000:0000007100013910       _ZN7android18BufferItemConsumerC2ERKNS_2spINS_22IGraphicBufferConsumerEEEjib
 00000000:00000071000139F0       _ZN7android18BufferItemConsumerC1ERKNS_2spINS_22IGraphicBufferConsumerEEEjib
 00000000:0000007100013B00       _ZN7android18BufferItemConsumerD2Ev
 00000000:0000007100013B10       _ZN7android18BufferItemConsumerD1Ev
 00000000:0000007100013B80       _ZN7android18BufferItemConsumerD0Ev
 00000000:0000007100013C10       _ZN7android18BufferItemConsumer7setNameERKNS_7String8E
 00000000:0000007100013C70       _ZN7android18BufferItemConsumer13acquireBufferEPNS_22IGraphicBufferConsumer10BufferItemElb
 00000000:0000007100013D60       _ZN7android18BufferItemConsumer13releaseBufferERKNS_22IGraphicBufferConsumer10BufferItemERKNS_2spINS_5FenceEEE
 00000000:0000007100013E50       _ZN7android18BufferItemConsumer20setDefaultBufferSizeEjj
 00000000:0000007100013EB0       _ZN7android18BufferItemConsumer22setDefaultBufferFormatEj
 00000000:0000007100013F10       _ZN7android11BufferQueue21ProxyConsumerListenerC2ERKNS_2wpINS_16ConsumerListenerEEE
 00000000:0000007100013FF0       _ZN7android11BufferQueue21ProxyConsumerListenerC1ERKNS_2wpINS_16ConsumerListenerEEE
 00000000:0000007100014530       _ZN7android11BufferQueue21ProxyConsumerListener16onFrameAvailableERKNS_10BufferItemE
 00000000:00000071000146C0       _ZN7android11BufferQueue23createBufferQueueForAppEPNS_2spINS_22IGraphicBufferProducerEEEPNS1_INS_22IGraphicBufferConsumerEEERKNS1_INS_19IGraphicBufferAllocEEEi
 00000000:0000007100014930       _ZN7android11BufferQueue17createBufferQueueEPNS_2spINS_22IGraphicBufferProducerEEEPNS1_INS_22IGraphicBufferConsumerEEERKNS1_INS_19IGraphicBufferAllocEEE
 00000000:0000007100014FE0       _ZN7android19BufferQueueConsumer13acquireBufferEPNS_22IGraphicBufferConsumer10BufferItemEl
 00000000:0000007100016250       _ZN7android19BufferQueueConsumer28getFrameAvailableEventHandleERjRb
 00000000:0000007100016740       _ZN7android15BufferQueueCoreC2ERKNS_2spINS_19IGraphicBufferAllocEEE
 00000000:0000007100016A20       _ZN7android15BufferQueueCoreC1ERKNS_2spINS_19IGraphicBufferAllocEEE
 00000000:0000007100017450       _ZN7android15BufferQueueCore20freeAllBuffersLockedEv
 00000000:0000007100017770       _ZNK7android15BufferQueueCore13stillTrackingEPKNS_10BufferItemE
 00000000:00000071000199DC       def_710001998C
 00000000:000000710001A8E0       _ZN7android19BufferQueueProducer28getBufferReleasedEventHandleERjRb
 00000000:000000710001AE00       nullsub_13
 00000000:000000710001AE10       nullsub_14
 00000000:000000710001B190       _ZN7android12ConsumerBaseC2ERKNS_2spINS_22IGraphicBufferConsumerEEEb
 00000000:000000710001B4F0       _ZN7android12ConsumerBaseC1ERKNS_2spINS_22IGraphicBufferConsumerEEEb
 00000000:000000710001B850       _ZN7android12ConsumerBaseD2Ev
 00000000:000000710001B970       _ZN7android12ConsumerBaseD1Ev
 00000000:000000710001B9A0       _ZTv0_n24_N7android12ConsumerBaseD1Ev
 00000000:000000710001B9E0       _ZN7android12ConsumerBaseD0Ev
 00000000:000000710001BA20       _ZTv0_n24_N7android12ConsumerBaseD0Ev
 00000000:000000710001BA60       _ZN7android12ConsumerBase15onLastStrongRefEPKv
 00000000:000000710001BAC0       _ZN7android12ConsumerBase7abandonEv
 00000000:000000710001BB20       _ZTv0_n40_N7android12ConsumerBase15onLastStrongRefEPKv
 00000000:000000710001BB90       _ZN7android12ConsumerBase16freeBufferLockedEi
 00000000:000000710001BC40       _ZN7android12ConsumerBase16onFrameAvailableERKNS_10BufferItemE
 00000000:000000710001BD50       _ZN7android12ConsumerBase17onBuffersReleasedEv
 00000000:000000710001BEB0       _ZN7android12ConsumerBase23onSidebandStreamChangedEv
 00000000:000000710001BEC0       _ZN7android12ConsumerBase13abandonLockedEv
 00000000:000000710001BF40       _ZN7android12ConsumerBase7setNameERKNS_7String8E
 00000000:000000710001BFA0       _ZN7android12ConsumerBase25setFrameAvailableListenerERKNS_2wpINS0_22FrameAvailableListenerEEE
 00000000:000000710001C020       _ZN7android12ConsumerBase26setBuffersReleasedListenerERKNS_2wpINS0_23BuffersReleasedListenerEEE
 00000000:000000710001C0A0       _ZNK7android12ConsumerBase4dumpERNS_7String8E
 00000000:000000710001C100       _ZNK7android12ConsumerBase4dumpERNS_7String8EPKc
 00000000:000000710001C160       _ZNK7android12ConsumerBase10dumpLockedERNS_7String8EPKc
 00000000:000000710001C1D0       _ZN7android12ConsumerBase19acquireBufferLockedEPNS_22IGraphicBufferConsumer10BufferItemEl
 00000000:000000710001C2B0       _ZN7android12ConsumerBase15addReleaseFenceEiNS_2spINS_13GraphicBufferEEERKNS1_INS_5FenceEEE
 00000000:000000710001C340       _ZN7android12ConsumerBase21addReleaseFenceLockedEiNS_2spINS_13GraphicBufferEEERKNS1_INS_5FenceEEE
 00000000:000000710001C540       _ZN7android12ConsumerBase13stillTrackingEiNS_2spINS_13GraphicBufferEEE
 00000000:000000710001C590       _ZN7android12ConsumerBase19releaseBufferLockedEiNS_2spINS_13GraphicBufferEEEPvS4_
 00000000:000000710001C6D0       _ZN7android18GraphicBufferAllocC2Ev
 00000000:000000710001C760       _ZN7android18GraphicBufferAllocC1Ev
 00000000:000000710001C7C0       _ZN7android18GraphicBufferAllocD2Ev
 00000000:000000710001C800       _ZN7android18GraphicBufferAllocD1Ev
 00000000:000000710001C840       _ZThn8_N7android18GraphicBufferAllocD1Ev
 00000000:000000710001C890       _ZTv0_n24_N7android18GraphicBufferAllocD1Ev
 00000000:000000710001C8E0       _ZN7android18GraphicBufferAllocD0Ev
 00000000:000000710001C930       _ZThn8_N7android18GraphicBufferAllocD0Ev
 00000000:000000710001C980       _ZTv0_n24_N7android18GraphicBufferAllocD0Ev
 00000000:000000710001C9D0       _ZN7android18GraphicBufferAlloc19createGraphicBufferEjjijPi
 00000000:000000710001CD00       _ZNK7android19IGraphicBufferAlloc22getInterfaceDescriptorEv
 00000000:000000710001CD10       _ZN7android19IGraphicBufferAlloc11asInterfaceERKNS_2spINS_7IBinderEEE
 00000000:000000710001CE90       _ZN7android19IGraphicBufferAllocC2Ev
 00000000:000000710001CED0       _ZN7android19IGraphicBufferAllocD2Ev
 00000000:000000710001CEE0       _ZN7android19IGraphicBufferAllocD1Ev
 00000000:000000710001CEF0       _ZTv0_n24_N7android19IGraphicBufferAllocD1Ev
 00000000:000000710001CF00       _ZN7android19IGraphicBufferAllocD0Ev
 00000000:000000710001CF10       _ZTv0_n24_N7android19IGraphicBufferAllocD0Ev
 00000000:000000710001CF20       _ZN7android20BnGraphicBufferAlloc10onTransactEjRKNS_6ParcelEPS1_j
 00000000:000000710001D0D0       _ZThn8_N7android20BnGraphicBufferAlloc10onTransactEjRKNS_6ParcelEPS1_j
 00000000:000000710001D600       _ZN7android22IGraphicBufferProducer11asInterfaceERKNS_2spINS_7IBinderEEE
 00000000:000000710001D810       _ZN7android23BnGraphicBufferProducer10onTransactEjRKNS_6ParcelEPS1_j
 00000000:000000710001E0EC       def_710001D854
 00000000:000000710001E360       _ZThn8_N7android23BnGraphicBufferProducer10onTransactEjRKNS_6ParcelEPS1_j
 00000000:000000710001E370       _ZN7android23BnGraphicBufferProducer17onGetNativeHandleEjRjRb
 00000000:000000710001E3A0       _ZThn8_N7android23BnGraphicBufferProducer17onGetNativeHandleEjRjRb
 00000000:000000710001FAD0       _ZN7android18BnProducerListener10onTransactEjRKNS_6ParcelEPS1_j
 00000000:000000710001FB40       _ZThn16_N7android18BnProducerListener10onTransactEjRKNS_6ParcelEPS1_j
 00000000:000000710001FF70       _ZNK7android16ISurfaceComposer22getInterfaceDescriptorEv
 00000000:000000710001FF80       _ZN7android16ISurfaceComposer11asInterfaceERKNS_2spINS_7IBinderEEE
 00000000:0000007100020100       _ZN7android16ISurfaceComposerC2Ev
 00000000:0000007100020140       _ZN7android16ISurfaceComposerD2Ev
 00000000:0000007100020150       _ZN7android16ISurfaceComposerD1Ev
 00000000:0000007100020160       _ZTv0_n24_N7android16ISurfaceComposerD1Ev
 00000000:0000007100020170       _ZN7android16ISurfaceComposerD0Ev
 00000000:0000007100020180       _ZTv0_n24_N7android16ISurfaceComposerD0Ev
 00000000:0000007100020190       _ZN7android17BnSurfaceComposer10onTransactEjRKNS_6ParcelEPS1_j
 00000000:0000007100020594       def_71000201D8
 00000000:00000071000210A0       _ZThn8_N7android17BnSurfaceComposer10onTransactEjRKNS_6ParcelEPS1_j
 00000000:0000007100022CA0       nullsub_15
 00000000:0000007100022CB0       nullsub_16
 00000000:0000007100023700       nullsub_17
 00000000:0000007100023710       nullsub_18
 00000000:0000007100023AE0       _ZNK7android22ISurfaceComposerClient22getInterfaceDescriptorEv
 00000000:0000007100023AF0       _ZN7android22ISurfaceComposerClient11asInterfaceERKNS_2spINS_7IBinderEEE
 00000000:0000007100023C70       _ZN7android22ISurfaceComposerClientC2Ev
 00000000:0000007100023CB0       _ZN7android22ISurfaceComposerClientD2Ev
 00000000:0000007100023CC0       _ZN7android22ISurfaceComposerClientD1Ev
 00000000:0000007100023CD0       _ZTv0_n24_N7android22ISurfaceComposerClientD1Ev
 00000000:0000007100023CE0       _ZN7android22ISurfaceComposerClientD0Ev
 00000000:0000007100023CF0       _ZTv0_n24_N7android22ISurfaceComposerClientD0Ev
 00000000:0000007100023D00       _ZN7android23BnSurfaceComposerClient10onTransactEjRKNS_6ParcelEPS1_j
 00000000:0000007100023F08       def_7100023D44
 00000000:0000007100024480       _ZThn8_N7android23BnSurfaceComposerClient10onTransactEjRKNS_6ParcelEPS1_j
 00000000:0000007100024490       _ZN7android23BnSurfaceComposerClient17onGetNativeHandleEjRjRb
 00000000:00000071000244F0       _ZThn8_N7android23BnSurfaceComposerClient17onGetNativeHandleEjRjRb
 00000000:0000007100025FB0       _ZN7android14StreamSplitter16onFrameAvailableERKNS_10BufferItemE
 00000000:00000071000264E0       _ZN7android7SurfaceC1ERKNS_2spINS_22IGraphicBufferProducerEEEb
 00000000:0000007100026E40       _ZNK7android7Surface25getIGraphicBufferProducerEv
 00000000:0000007100026E70       _ZN7android7Surface20getQueuedFrameNumberERm
 00000000:0000007100027484       def_7100027478
 00000000:000000710002789C       def_71000275E4
 00000000:0000007100028C90       _ZN7android14SurfaceControlD2Ev
 00000000:0000007100028D30       _ZN7android14SurfaceControl7destroyEv
 00000000:0000007100028DD0       _ZN7android14SurfaceControlD0Ev
 00000000:0000007100028E00       _ZN7android14SurfaceControl5clearEv
 00000000:0000007100028E10       _ZN7android14SurfaceControl13isSameSurfaceERKNS_2spIS0_EES4_
 00000000:0000007100028E50       _ZN7android14SurfaceControl13setLayerStackEi
 00000000:0000007100028E80       _ZNK7android14SurfaceControl8validateEv
 00000000:0000007100028EA0       _ZN7android14SurfaceControl17setLayerStackMaskEi
 00000000:0000007100028ED0       _ZN7android14SurfaceControl8setLayerEi
 00000000:0000007100028F00       _ZN7android14SurfaceControl11setPositionEff
 00000000:0000007100028F30       _ZN7android14SurfaceControl7setSizeEjj
 00000000:0000007100028F60       _ZN7android14SurfaceControl4hideEv
 00000000:0000007100028F90       _ZN7android14SurfaceControl4showEv
 00000000:0000007100028FC0       _ZN7android14SurfaceControl8setFlagsEjj
 00000000:0000007100028FF0       _ZN7android14SurfaceControl24setTransparentRegionHintERKNS_6RegionE
 00000000:0000007100029020       _ZN7android14SurfaceControl8setAlphaEf
 00000000:0000007100029050       _ZN7android14SurfaceControl9setMatrixEffff
 00000000:0000007100029080       _ZN7android14SurfaceControl7setCropERKNS_4RectE
 00000000:00000071000290B0       _ZNK7android14SurfaceControl20clearLayerFrameStatsEv
 00000000:00000071000290E0       _ZNK7android14SurfaceControl18getLayerFrameStatsEPNS_10FrameStatsE
 00000000:0000007100029110       _ZN7android14SurfaceControl20writeSurfaceToParcelERKNS_2spIS0_EEPNS_6ParcelE
 00000000:00000071000291E0       _ZNK7android14SurfaceControl10getSurfaceEv
 00000000:0000007100029290       _ZN7android14SurfaceControl10getSurfaceENS_2spINS_22IGraphicBufferProducerEEE
 00000000:00000071000292F0       _ZNK7android14SurfaceControl13getLayerStateERNS_13layer_state_tE
 00000000:0000007100029520       _ZN7android21SurfaceComposerClient15releaseInstanceEv_0
 00000000:0000007100029940       _ZN7android8Composer17getDisplaySurfaceERKNS_2spINS_7IBinderEEERNS1_INS_22IGraphicBufferProducerEEERNS1_INS_22IGraphicBufferConsumerEEE
 00000000:0000007100029D40       _ZN7android8Composer27setAnimationTransactionImplEv
 00000000:0000007100029D70       _ZN7android8Composer19getLayerStateLockedERKNS_2spINS_21SurfaceComposerClientEEERKNS1_INS_7IBinderEEE
 00000000:0000007100029F00       _ZN7android8Composer11setPositionERKNS_2spINS_21SurfaceComposerClientEEERKNS1_INS_7IBinderEEEff
 00000000:0000007100029F70       _ZN7android8Composer7setSizeERKNS_2spINS_21SurfaceComposerClientEEERKNS1_INS_7IBinderEEEjj
 00000000:0000007100029FF0       _ZN7android8Composer8setLayerERKNS_2spINS_21SurfaceComposerClientEEERKNS1_INS_7IBinderEEEi
 00000000:000000710002A050       _ZN7android8Composer8setFlagsERKNS_2spINS_21SurfaceComposerClientEEERKNS1_INS_7IBinderEEEjj
 00000000:000000710002A110       _ZN7android8Composer24setTransparentRegionHintERKNS_2spINS_21SurfaceComposerClientEEERKNS1_INS_7IBinderEEERKNS_6RegionE
 00000000:000000710002A180       _ZN7android8Composer8setAlphaERKNS_2spINS_21SurfaceComposerClientEEERKNS1_INS_7IBinderEEEf
 00000000:000000710002A1F0       _ZN7android8Composer13setLayerStackERKNS_2spINS_21SurfaceComposerClientEEERKNS1_INS_7IBinderEEEj
 00000000:000000710002A270       _ZN7android8Composer17setLayerStackMaskERKNS_2spINS_21SurfaceComposerClientEEERKNS1_INS_7IBinderEEEj
 00000000:000000710002A2D0       _ZN7android8Composer9setMatrixERKNS_2spINS_21SurfaceComposerClientEEERKNS1_INS_7IBinderEEEffff
 00000000:000000710002A360       _ZN7android8Composer7setCropERKNS_2spINS_21SurfaceComposerClientEEERKNS1_INS_7IBinderEEERKNS_4RectE
 00000000:000000710002A4D0       _ZN7android21SurfaceComposerClientC2Ev
 00000000:000000710002A530       _ZN7android21SurfaceComposerClient10onFirstRefEv
 00000000:000000710002A670       _ZN7android21SurfaceComposerClient14setClientARUIDERKN2nn6applet20AppletResourceUserIdE
 00000000:000000710002A690       _ZN7android21SurfaceComposerClientD2Ev
 00000000:000000710002A6F0       _ZN7android21SurfaceComposerClient7disposeEv
 00000000:000000710002A7C0       _ZN7android21SurfaceComposerClientD0Ev
 00000000:000000710002A820       _ZNK7android21SurfaceComposerClient9initCheckEv
 00000000:000000710002A830       _ZNK7android21SurfaceComposerClient10connectionEv
 00000000:000000710002A850       _ZN7android21SurfaceComposerClient19linkToComposerDeathERKNS_2spINS_7IBinder14DeathRecipientEEEPvj
 00000000:000000710002A950       _ZN7android21SurfaceComposerClient13createSurfaceERKNS_7String8Ejjij
 00000000:000000710002A9B0       _ZN7android21SurfaceComposerClient13createSurfaceERKNS_7String8EjjijRNS_2spINS_7IBinderEEERNS4_INS_22IGraphicBufferProducerEEE
 00000000:000000710002AAB0       _ZN7android21SurfaceComposerClient15setSurfaceARUIDERKNS_2spINS_7IBinderEEERKN2nn6applet20AppletResourceUserIdE
 00000000:000000710002AAD0       _ZN7android21SurfaceComposerClient21getHotplugEventHandleERjRb
 00000000:000000710002AAF0       _ZN7android21SurfaceComposerClient19getVsyncEventHandleERjRb
 00000000:000000710002AB10       _ZN7android21SurfaceComposerClient19getErrorEventHandleERjRb
 00000000:000000710002AB30       _ZN7android21SurfaceComposerClient17setConductorLayerERKNS_2spINS_7IBinderEEEb
 00000000:000000710002AB50       _ZN7android21SurfaceComposerClient20setTimestampTrackingERKNS_2spINS_7IBinderEEEb
 00000000:000000710002AB70       _ZN7android21SurfaceComposerClient15getClientLayersERKN2nn6applet20AppletResourceUserIdERNS_6VectorINS_2spINS_14SurfaceControlEEEEE
 00000000:000000710002AD00       _ZN7android21SurfaceComposerClient13getLayerStateERKNS_2spINS_7IBinderEEERNS_13layer_state_tE
 00000000:000000710002AD20       _ZN7android21SurfaceComposerClient12getErrorTextEiRNS_7String8E
 00000000:000000710002AD40       _ZN7android21SurfaceComposerClient13createDisplayERKNS_7String8Eb
 00000000:000000710002AD80       _ZN7android21SurfaceComposerClient17getDisplaySurfaceERKNS_2spINS_7IBinderEEERNS1_INS_22IGraphicBufferProducerEEERNS1_INS_22IGraphicBufferConsumerEEE
 00000000:000000710002ADC0       _ZN7android21SurfaceComposerClient14destroyDisplayERKNS_2spINS_7IBinderEEE
 00000000:000000710002ADF0       _ZN7android21SurfaceComposerClient17getBuiltInDisplayEi
 00000000:000000710002AE20       _ZN7android21SurfaceComposerClient14destroySurfaceERKNS_2spINS_7IBinderEEE
 00000000:000000710002AE40       _ZNK7android21SurfaceComposerClient20clearLayerFrameStatsERKNS_2spINS_7IBinderEEE
 00000000:000000710002AE60       _ZNK7android21SurfaceComposerClient18getLayerFrameStatsERKNS_2spINS_7IBinderEEEPNS_10FrameStatsE
 00000000:000000710002AE80       _ZN7android21SurfaceComposerClient21openGlobalTransactionEv
 00000000:000000710002AEC0       _ZN7android21SurfaceComposerClient22closeGlobalTransactionEb
 00000000:000000710002AEF0       _ZN7android21SurfaceComposerClient23setAnimationTransactionEv
 00000000:000000710002AF20       _ZN7android21SurfaceComposerClient7setCropERKNS_2spINS_7IBinderEEERKNS_4RectE
 00000000:000000710002AFB0       _ZN7android21SurfaceComposerClient11setPositionERKNS_2spINS_7IBinderEEEff
 00000000:000000710002B040       _ZN7android21SurfaceComposerClient7setSizeERKNS_2spINS_7IBinderEEEjj
 00000000:000000710002B0E0       _ZN7android21SurfaceComposerClient8setLayerERKNS_2spINS_7IBinderEEEi
 00000000:000000710002B160       _ZN7android21SurfaceComposerClient4hideERKNS_2spINS_7IBinderEEE
 00000000:000000710002B1F0       _ZN7android21SurfaceComposerClient4showERKNS_2spINS_7IBinderEEE
 00000000:000000710002B280       _ZN7android21SurfaceComposerClient8setFlagsERKNS_2spINS_7IBinderEEEjj
 00000000:000000710002B360       _ZN7android21SurfaceComposerClient24setTransparentRegionHintERKNS_2spINS_7IBinderEEERKNS_6RegionE
 00000000:000000710002B3F0       _ZN7android21SurfaceComposerClient8setAlphaERKNS_2spINS_7IBinderEEEf
 00000000:000000710002B470       _ZN7android21SurfaceComposerClient13setLayerStackERKNS_2spINS_7IBinderEEEj
 00000000:000000710002B520       _ZN7android21SurfaceComposerClient17setLayerStackMaskERKNS_2spINS_7IBinderEEEj
 00000000:000000710002B5A0       _ZN7android21SurfaceComposerClient9setMatrixERKNS_2spINS_7IBinderEEEffff
 00000000:000000710002B640       _ZN7android21SurfaceComposerClient17setDisplaySurfaceERKNS_2spINS_7IBinderEEERKNS1_INS_22IGraphicBufferProducerEEE
 00000000:000000710002B6E0       _ZN7android21SurfaceComposerClient20setDisplayLayerStackERKNS_2spINS_7IBinderEEEj
 00000000:000000710002B740       _ZN7android21SurfaceComposerClient20setDisplayProjectionERKNS_2spINS_7IBinderEEEjRKNS_4RectES8_
 00000000:000000710002B7C0       _ZN7android21SurfaceComposerClient14setDisplaySizeERKNS_2spINS_7IBinderEEEjj
 00000000:000000710002B820       _ZN7android21SurfaceComposerClient17getDisplayConfigsERKNS_2spINS_7IBinderEEEPNS_6VectorINS_11DisplayInfoEEE
 00000000:000000710002B8E0       _ZN7android21SurfaceComposerClient14getDisplayInfoERKNS_2spINS_7IBinderEEEPNS_11DisplayInfoE
 00000000:000000710002B9C0       _ZN7android21SurfaceComposerClient15getActiveConfigERKNS_2spINS_7IBinderEEE
 00000000:000000710002BA70       _ZN7android21SurfaceComposerClient15setActiveConfigERKNS_2spINS_7IBinderEEEi
 00000000:000000710002BB30       _ZN7android21SurfaceComposerClient19setDisplayPowerModeERKNS_2spINS_7IBinderEEEi
 00000000:000000710002BBF0       _ZN7android21SurfaceComposerClient7getEDIDERKNS_2spINS_7IBinderEEERNS_11DisplayEDIDE
 00000000:000000710002BCB0       _ZN7android21SurfaceComposerClient9enableVRRERKNS_2spINS_7IBinderEEEb
 00000000:000000710002BD70       _ZN7android21SurfaceComposerClient6setCMUERKNS_2spINS_7IBinderEEEif
 00000000:000000710002BE40       _ZN7android21SurfaceComposerClient6getCMUERKNS_2spINS_7IBinderEEERiRf
 00000000:000000710002BF10       _ZN7android21SurfaceComposerClient13setBrightnessERKNS_2spINS_7IBinderEEEf
 00000000:000000710002BFE0       _ZN7android21SurfaceComposerClient13getBrightnessERKNS_2spINS_7IBinderEEERf
 00000000:000000710002C0A0       _ZN7android21SurfaceComposerClient11setRGBRangeERKNS_2spINS_7IBinderEEEi
 00000000:000000710002C160       _ZN7android21SurfaceComposerClient11getRGBRangeERKNS_2spINS_7IBinderEEERi
 00000000:000000710002C220       _ZN7android21SurfaceComposerClient14setContentTypeERKNS_2spINS_7IBinderEEEi
 00000000:000000710002C2E0       _ZN7android21SurfaceComposerClient14getContentTypeERKNS_2spINS_7IBinderEEERi
 00000000:000000710002C3A0       _ZN7android21SurfaceComposerClient12setUnderscanERKNS_2spINS_7IBinderEEEi
 00000000:000000710002C460       _ZN7android21SurfaceComposerClient12getUnderscanERKNS_2spINS_7IBinderEEERi
 00000000:000000710002C520       _ZN7android21SurfaceComposerClient24clearAnimationFrameStatsEv
 00000000:000000710002C5D0       _ZN7android21SurfaceComposerClient22getAnimationFrameStatsEPNS_10FrameStatsE
 00000000:000000710002C680       _ZN7android21SurfaceComposerClient15releaseInstanceEv
 00000000:000000710002CF80       __android_log_write
 00000000:000000710002CFF0       __android_log_print
 00000000:000000710002D0D0       __android_log_assert
 00000000:000000710002D1F0       sync_wait
 00000000:000000710002D420       sync_get_nvrm_mapping
 00000000:000000710002D4B0       sync_merge
 00000000:000000710002D8D0       sync_fence_info
 00000000:000000710002D8E0       sync_fence_info_free
 00000000:000000710002D8F0       sync_pt_info
 00000000:000000710002D900       sync_close
 00000000:000000710002D9E0       sync_dup
 00000000:000000710002D9F0       sync_create_nvrm_mapping
 00000000:000000710002DC40       sync_print
 00000000:000000710002DD60       sync_usage
 00000000:000000710002DDC0       _ZN7android11DisplayEDIDC2Ev
 00000000:000000710002DDD0       _ZN7android11DisplayEDIDD2Ev
 00000000:000000710002DE00       _ZN7android11DisplayEDID5clearEv
 00000000:000000710002DE30       _ZN7android11DisplayEDID7setDataEPKvm
 00000000:000000710002DEA0       _ZNK7android11DisplayEDID7getDataEv
 00000000:000000710002DEB0       _ZNK7android11DisplayEDID7getSizeEv
 00000000:000000710002DF10       _ZN7android5FenceC2Ev
 00000000:000000710002DF20       _ZN7android5FenceC2Ei
 00000000:000000710002DF30       _ZN7android5FenceD2Ev
 00000000:000000710002DF40       _ZN7android5Fence4waitEj
 00000000:000000710002DF60       _ZN7android5Fence11waitForeverEPKc
 00000000:000000710002DFC0       _ZN7android5Fence5mergeERKNS_7String8ERKNS_2spIS0_EES7_
 00000000:000000710002E070       _ZNK7android5Fence3dupEv
 00000000:000000710002E090       _ZNK7android5Fence13getSignalTimeEv
 00000000:000000710002E160       _ZNK7android5Fence16getFlattenedSizeEv
 00000000:000000710002E170       _ZNK7android5Fence10getFdCountEv
 00000000:000000710002E180       _ZNK7android5Fence7flattenERPvRmRPiS3_
 00000000:000000710002E260       _ZN7android5Fence9unflattenERPKvRmRPKiS4_
 00000000:000000710002E4A0       _ZNK7android10FrameStats11isFixedSizeEv
 00000000:000000710002E4B0       _ZNK7android10FrameStats16getFlattenedSizeEv
 00000000:000000710002E4D0       _ZNK7android10FrameStats7flattenEPvm
 00000000:000000710002E580       _ZN7android10FrameStats9unflattenEPKvm
 00000000:000000710002E660       _ZN7android13GraphicBufferC2Ev
 00000000:000000710002E760       _ZN7android13GraphicBufferC1Ejjij
 00000000:000000710002E8A0       _ZN7android13GraphicBuffer8initSizeEjjij
 00000000:000000710002E970       _ZN7android13GraphicBufferC1EjjijjP13native_handleb
 00000000:000000710002EAB0       _ZN7android13GraphicBufferC1EP19ANativeWindowBufferb
 00000000:000000710002EBF0       _ZN7android13GraphicBufferD2Ev
 00000000:000000710002EC40       _ZN7android13GraphicBuffer11free_handleEv
 00000000:000000710002ED20       _ZN7android13GraphicBufferD0Ev
 00000000:000000710002ED80       _ZNK7android13GraphicBuffer9initCheckEv
 00000000:000000710002ED90       _ZN7android13GraphicBuffer26dumpAllocationsToSystemLogEv
 00000000:000000710002EDA0       _ZNK7android13GraphicBuffer15getNativeBufferEv
 00000000:000000710002EDF0       _ZN7android13GraphicBuffer10reallocateEjjij
 00000000:000000710002EF20       _ZN7android13GraphicBuffer4lockEjPPv
 00000000:000000710002EF60       _ZN7android13GraphicBuffer4lockEjRKNS_4RectEPPv
 00000000:000000710002EFC0       _ZN7android13GraphicBuffer9lockYCbCrEjP13android_ycbcr
 00000000:000000710002F000       _ZN7android13GraphicBuffer9lockYCbCrEjRKNS_4RectEP13android_ycbcr
 00000000:000000710002F060       _ZN7android13GraphicBuffer6unlockEv
 00000000:000000710002F070       _ZN7android13GraphicBuffer9lockAsyncEjPPvi
 00000000:000000710002F0C0       _ZN7android13GraphicBuffer9lockAsyncEjRKNS_4RectEPPvi
 00000000:000000710002F120       _ZN7android13GraphicBuffer14lockAsyncYCbCrEjP13android_ycbcri
 00000000:000000710002F170       _ZN7android13GraphicBuffer14lockAsyncYCbCrEjRKNS_4RectEP13android_ycbcri
 00000000:000000710002F1D0       _ZN7android13GraphicBuffer11unlockAsyncEPi
 00000000:000000710002F1F0       _ZNK7android13GraphicBuffer16getFlattenedSizeEv
 00000000:000000710002F210       _ZNK7android13GraphicBuffer10getFdCountEv
 00000000:000000710002F230       _ZNK7android13GraphicBuffer7flattenERPvRmRPiS3_
 00000000:000000710002F3A0       _ZN7android13GraphicBuffer9unflattenERPKvRmRPKiS4_
 00000000:000000710002F6C0       _ZN7android22GraphicBufferAllocatorC2Ev
 00000000:000000710002F6F0       _ZN7android22GraphicBufferAllocatorD2Ev
 00000000:000000710002F700       _ZNK7android22GraphicBufferAllocator4dumpERNS_7String8E
 00000000:000000710002F8B0       _ZN7android22GraphicBufferAllocator15dumpToSystemLogEv
 00000000:000000710002F960       _ZN7android22GraphicBufferAllocator5allocEjjiiPPK13native_handlePi
 00000000:000000710002FA50       _ZN7android22GraphicBufferAllocator4freeEPK13native_handle
 00000000:000000710002FB50       nullsub_19
 00000000:000000710002FB60       nullsub_20
 00000000:000000710002FDE0       _ZN7android19GraphicBufferMapperC1Ev
 00000000:000000710002FDF0       _ZN7android19GraphicBufferMapper14registerBufferEPK13native_handle
 00000000:000000710002FE40       _ZN7android19GraphicBufferMapper16unregisterBufferEPK13native_handle
 00000000:000000710002FE90       _ZN7android19GraphicBufferMapper4lockEPK13native_handleiRKNS_4RectEPPv
 00000000:000000710002FEF0       _ZN7android19GraphicBufferMapper9lockYCbCrEPK13native_handleiRKNS_4RectEP13android_ycbcr
 00000000:000000710002FF70       _ZN7android19GraphicBufferMapper6unlockEPK13native_handle
 00000000:000000710002FFC0       _ZN7android19GraphicBufferMapper9lockAsyncEPK13native_handleiRKNS_4RectEPPvi
 00000000:0000007100030090       _ZN7android19GraphicBufferMapper14lockAsyncYCbCrEPK13native_handleiRKNS_4RectEP13android_ycbcri
 00000000:0000007100030170       _ZN7android19GraphicBufferMapper11unlockAsyncEPK13native_handlePi
 00000000:00000071000301E0       _ZN7android19GraphicBufferMapper10copyBufferEPK13native_handleS3_Pi
 00000000:0000007100030250       _ZN7android19GraphicBufferMapper10apiVersionEv
 00000000:0000007100030260       _ZN7android13bytesPerPixelEi
 00000000:0000007100030290       _ZN7android4Rect11makeInvalidEv
 00000000:00000071000302A0       _ZNK7android4RectltERKS0_
 00000000:0000007100030320       _ZN7android4Rect8offsetToEii
 00000000:0000007100030350       _ZN7android4Rect8offsetByEii
 00000000:0000007100030380       _ZNK7android4RectplERKNS_5PointE
 00000000:00000071000303B0       _ZNK7android4RectmiERKNS_5PointE
 00000000:00000071000303E0       _ZNK7android4Rect9intersectERKS0_PS0_
 00000000:0000007100030450       _ZNK7android4Rect9transformEjii
 00000000:00000071000304C0       _ZNK7android4Rect6reduceERKS0_
 00000000:0000007100030590       _ZN7android6RegionC1Ev
 00000000:00000071000305E0       _ZN7android6RegionC1ERKS0_
 00000000:0000007100030610       _ZN7android6RegionC1ERKNS_4RectE
 00000000:0000007100030660       _ZN7android6RegionD2Ev
 00000000:00000071000306E0       _ZN7android6Region25createTJunctionFreeRegionERKS0_
 00000000:0000007100030AD0       _ZNK7android6Region5beginEv
 00000000:0000007100030AE0       _ZNK7android6Region3endEv
 00000000:0000007100030B00       _ZN7android6RegionaSERKS0_
 00000000:0000007100030B30       _ZN7android6Region14makeBoundsSelfEv
 00000000:0000007100030B90       _ZNK7android6Region8containsERKNS_5PointE
 00000000:0000007100030C00       _ZNK7android6Region8containsEii
 00000000:0000007100030C70       _ZN7android6Region5clearEv
 00000000:0000007100030CB0       _ZN7android6Region3setERKNS_4RectE
 00000000:0000007100030CE0       _ZN7android6Region3setEjj
 00000000:0000007100030D30       _ZNK7android6Region16isTriviallyEqualERKS0_
 00000000:0000007100030D50       _ZN7android6Region16addRectUncheckedEiiii
 00000000:0000007100030D90       _ZN7android6Region6orSelfERKNS_4RectE
 00000000:0000007100030E10       _ZN7android6Region13operationSelfERKNS_4RectEi
 00000000:0000007100030EA0       _ZN7android6Region7xorSelfERKNS_4RectE
 00000000:0000007100030F20       _ZN7android6Region7andSelfERKNS_4RectE
 00000000:0000007100030FA0       _ZN7android6Region12subtractSelfERKNS_4RectE
 00000000:0000007100031020       _ZN7android6Region17boolean_operationEiRS0_RKS0_RKNS_4RectE
 00000000:0000007100031030       _ZN7android6Region6orSelfERKS0_
 00000000:00000071000310B0       _ZN7android6Region13operationSelfERKS0_i
 00000000:0000007100031140       _ZN7android6Region7xorSelfERKS0_
 00000000:00000071000311C0       _ZN7android6Region7andSelfERKS0_
 00000000:0000007100031240       _ZN7android6Region12subtractSelfERKS0_
 00000000:00000071000312C0       _ZN7android6Region17boolean_operationEiRS0_RKS0_S3_
 00000000:00000071000312D0       _ZN7android6Region13translateSelfEii
 00000000:0000007100031360       _ZN7android6Region9translateERS0_ii
 00000000:00000071000313E0       _ZNK7android6Region5mergeERKNS_4RectE
 00000000:0000007100031460       _ZNK7android6Region9operationERKNS_4RectEi
 00000000:00000071000314F0       _ZNK7android6Region14mergeExclusiveERKNS_4RectE
 00000000:0000007100031570       _ZNK7android6Region9intersectERKNS_4RectE
 00000000:00000071000315F0       _ZNK7android6Region8subtractERKNS_4RectE
 00000000:0000007100031670       _ZNK7android6Region5mergeERKS0_
 00000000:00000071000316F0       _ZNK7android6Region9operationERKS0_i
 00000000:0000007100031780       _ZNK7android6Region14mergeExclusiveERKS0_
 00000000:0000007100031800       _ZNK7android6Region9intersectERKS0_
 00000000:0000007100031880       _ZNK7android6Region8subtractERKS0_
 00000000:0000007100031900       _ZNK7android6Region9translateEii
 00000000:00000071000319D0       _ZN7android6Region9translateERS0_RKS0_ii
 00000000:0000007100031A50       _ZN7android6Region6orSelfERKS0_ii
 00000000:0000007100031AE0       _ZN7android6Region13operationSelfERKS0_iii
 00000000:0000007100031B80       _ZN7android6Region7xorSelfERKS0_ii
 00000000:0000007100031C10       _ZN7android6Region7andSelfERKS0_ii
 00000000:0000007100031CA0       _ZN7android6Region12subtractSelfERKS0_ii
 00000000:0000007100031D30       _ZN7android6Region17boolean_operationEiRS0_RKS0_S3_ii
 00000000:0000007100031EB0       _ZNK7android6Region5mergeERKS0_ii
 00000000:0000007100031F40       _ZNK7android6Region9operationERKS0_iii
 00000000:0000007100031FE0       _ZNK7android6Region14mergeExclusiveERKS0_ii
 00000000:0000007100032070       _ZNK7android6Region9intersectERKS0_ii
 00000000:0000007100032100       _ZNK7android6Region8subtractERKS0_ii
 00000000:0000007100032190       _ZN7android6Region8validateERKS0_PKcb
 00000000:0000007100032480       _ZNK7android6Region4dumpEPKcj
 00000000:0000007100032490       _ZNK7android6Region8getArrayEPm
 00000000:0000007100032A70       _ZN7android6Region17boolean_operationEiRS0_RKS0_RKNS_4RectEii
 00000000:0000007100032BF0       _ZNK7android6Region16getFlattenedSizeEv
 00000000:0000007100032C00       _ZNK7android6Region7flattenEPvm
 00000000:0000007100032C40       _ZN7android6Region9unflattenEPKvm
 00000000:0000007100032D40       _ZNK7android6Region15getSharedBufferEPm
 00000000:0000007100032D90       _ZNK7android6Region4dumpERNS_7String8EPKcj
 00000000:0000007100033140       nullsub_21
 00000000:0000007100033150       nullsub_22
 00000000:0000007100033240       _ZN7android21report_sysprop_changeEv
 00000000:0000007100033250       _ZN7android12NativeHandle6createEP13native_handleb
 00000000:00000071000332D0       _ZN7android12NativeHandleC1EP13native_handleb
 00000000:0000007100033300       _ZN7android12NativeHandleD2Ev
 00000000:0000007100033350       _ZN7android12NativeHandleD0Ev
 00000000:00000071000333A0       _ZNK7android7RefBase9incStrongEPKv
 00000000:0000007100033400       _ZN7android7RefBase12weakref_type7incWeakEPKv
 00000000:0000007100033410       _ZNK7android7RefBase9decStrongEPKv
 00000000:00000071000334F0       _ZN7android7RefBase12weakref_type7decWeakEPKv
 00000000:0000007100033580       _ZNK7android7RefBase14forceIncStrongEPKv
 00000000:00000071000335E0       _ZNK7android7RefBase14getStrongCountEv
 00000000:00000071000335F0       _ZNK7android7RefBase12weakref_type7refBaseEv
 00000000:0000007100033600       _ZN7android7RefBase12weakref_type16attemptIncStrongEPKv
 00000000:00000071000337A0       _ZN7android7RefBase12weakref_type14attemptIncWeakEPKv
 00000000:00000071000337F0       _ZNK7android7RefBase12weakref_type12getWeakCountEv
 00000000:0000007100033800       _ZNK7android7RefBase12weakref_type9printRefsEv
 00000000:0000007100033810       _ZN7android7RefBase12weakref_type7trackMeEbb
 00000000:0000007100033820       _ZNK7android7RefBase10createWeakEPKv
 00000000:0000007100033850       _ZNK7android7RefBase11getWeakRefsEv
 00000000:0000007100033860       _ZN7android7RefBaseC2Ev
 00000000:00000071000338B0       _ZN7android7RefBaseD2Ev
 00000000:0000007100033920       _ZN7android7RefBaseD0Ev
 00000000:0000007100033990       _ZN7android10HeapObjectdlEPv
 00000000:00000071000339A0       _ZN7android7RefBase20extendObjectLifetimeEi
 00000000:00000071000339C0       _ZN7android7RefBase10onFirstRefEv
 00000000:00000071000339D0       _ZN7android7RefBase15onLastStrongRefEPKv
 00000000:00000071000339E0       _ZN7android7RefBase20onIncStrongAttemptedEjPKv
 00000000:00000071000339F0       _ZN7android7RefBase13onLastWeakRefEPKv
 00000000:0000007100033A00       _ZN7android7RefBase10renameRefsEmRKNS_16ReferenceRenamerE
 00000000:0000007100033A10       _ZN7android7RefBase11renameRefIdEPNS0_12weakref_typeEPKvS4_
 00000000:0000007100033A20       _ZN7android7RefBase11renameRefIdEPS0_PKvS3_
 00000000:0000007100033A30       _ZN7android10HeapObjectnwEm
 00000000:0000007100033A40       _ZN7android12SharedBuffer5allocEm
 00000000:0000007100033AB0       _ZN7android12SharedBuffer7deallocEPKS0_
 00000000:0000007100033AE0       _ZNK7android12SharedBuffer4editEv
 00000000:0000007100033BB0       _ZNK7android12SharedBuffer7releaseEj
 00000000:0000007100033C00       _ZNK7android12SharedBuffer10editResizeEm
 00000000:0000007100033D30       _ZNK7android12SharedBuffer11attemptEditEv
 00000000:0000007100033D40       _ZNK7android12SharedBuffer5resetEm
 00000000:0000007100033DF0       _ZNK7android12SharedBuffer7acquireEv
 00000000:0000007100033E50       _ZN7android19initialize_string16Ev
 00000000:0000007100033E80       _ZN7android18terminate_string16Ev
 00000000:0000007100033EC0       _ZN7android8String16C2Ev
 00000000:0000007100033F00       _ZN7android8String16C2ENS0_13StaticLinkageE
 00000000:0000007100033F30       _ZN7android8String16C1ERKS0_
 00000000:0000007100033F50       _ZN7android8String16C1ERKS0_mm
 00000000:0000007100033FB0       _ZN7android8String165setToERKS0_mm
 00000000:0000007100034100       _ZN7android8String16C2EPKDs
 00000000:0000007100034180       _ZN7android8String16C1EPKDsm
 00000000:0000007100034210       _ZN7android8String16C1ERKNS_7String8E
 00000000:00000071000342B0       _ZN7android8String16C1EPKc
 00000000:0000007100034340       _ZN7android8String16C1EPKcm
 00000000:00000071000343D0       _ZN7android8String16D1Ev
 00000000:00000071000343F0       _ZN7android8String165setToERKS0_
 00000000:0000007100034450       _ZN7android8String165setToEPKDsm
 00000000:0000007100034500       _ZN7android8String165setToEPKDs
 00000000:00000071000345B0       _ZN7android8String166appendERKS0_
 00000000:00000071000346B0       _ZN7android8String166appendEPKDsm
 00000000:00000071000347C0       _ZN7android8String166insertEmPKDs
 00000000:0000007100034850       _ZN7android8String166insertEmPKDsm
 00000000:0000007100034990       _ZNK7android8String169findFirstEDs
 00000000:00000071000349F0       _ZNK7android8String168findLastEDs
 00000000:0000007100034A40       _ZNK7android8String1610startsWithERKS0_
 00000000:0000007100034AB0       _ZNK7android8String1610startsWithEPKDs
 00000000:0000007100034B30       _ZN7android8String169makeLowerEv
 00000000:0000007100034BF0       _ZN7android8String1610replaceAllEDsDs
 00000000:0000007100034CA0       _ZN7android8String166removeEmm
 00000000:0000007100034DC0       _ZN7android18initialize_string8Ev
 00000000:0000007100034E10       _ZN7android17terminate_string8Ev
 00000000:0000007100034E50       _ZN7android7String8C2Ev
 00000000:0000007100034E90       _ZN7android7String8C2ENS0_13StaticLinkageE
 00000000:0000007100034EC0       _ZN7android7String8C1ERKS0_
 00000000:0000007100034EE0       _ZN7android7String8C2EPKc
 00000000:0000007100034FB0       _ZN7android7String8C1EPKcm
 00000000:0000007100035070       _ZN7android7String8C2ERKNS_8String16E
 00000000:0000007100035120       _ZN7android7String8C1EPKDs
 00000000:00000071000351C0       _ZN7android7String8C1EPKDsm
 00000000:0000007100035250       _ZN7android7String8C1EPKDi
 00000000:00000071000352F0       _ZN7android7String8C1EPKDim
 00000000:0000007100035380       _ZN7android7String8D2Ev
 00000000:00000071000353A0       _ZN7android7String86formatEPKcz
 00000000:0000007100035460       _ZN7android7String87formatVEPKcSt9__va_list
 00000000:00000071000354D0       _ZN7android7String813appendFormatVEPKcSt9__va_list
 00000000:00000071000355C0       _ZN7android7String85clearEv
 00000000:0000007100035610       _ZN7android7String85setToERKS0_
 00000000:0000007100035670       _ZN7android7String85setToEPKc
 00000000:0000007100035760       _ZN7android7String85setToEPKcm
 00000000:0000007100035830       _ZN7android7String85setToEPKDsm
 00000000:0000007100035910       _ZN7android7String85setToEPKDim
 00000000:00000071000359F0       _ZN7android7String86appendERKS0_
 00000000:0000007100035B00       _ZN7android7String811real_appendEPKcm
 00000000:0000007100035BB0       _ZN7android7String86appendEPKc
 00000000:0000007100035D00       _ZN7android7String86appendEPKcm
 00000000:0000007100035DD0       _ZN7android7String812appendFormatEPKcz
 00000000:0000007100035E50       _ZN7android7String810lockBufferEm
 00000000:0000007100035E90       _ZN7android7String812unlockBufferEv
 00000000:0000007100035F10       _ZN7android7String812unlockBufferEm
 00000000:0000007100035FA0       _ZNK7android7String84findEPKcm
 00000000:0000007100036030       _ZN7android7String89removeAllEPKc
 00000000:00000071000361E0       _ZN7android7String87toLowerEv
 00000000:00000071000362C0       _ZN7android7String87toLowerEmm
 00000000:00000071000363E0       _ZN7android7String87toUpperEv
 00000000:00000071000364C0       _ZN7android7String87toUpperEmm
 00000000:00000071000365E0       _ZNK7android7String814getUtf32LengthEv
 00000000:0000007100036600       _ZNK7android7String810getUtf32AtEmPm
 00000000:0000007100036630       _ZNK7android7String88getUtf32EPDi
 00000000:0000007100036650       _ZN7android7String811setPathNameEPKc
 00000000:00000071000366B0       _ZN7android7String811setPathNameEPKcm
 00000000:00000071000367A0       _ZNK7android7String811getPathLeafEv
 00000000:00000071000368A0       _ZNK7android7String810getPathDirEv
 00000000:00000071000369D0       _ZNK7android7String88walkPathEPS0_
 00000000:0000007100036C80       _ZNK7android7String814find_extensionEv
 00000000:0000007100036CC0       _ZNK7android7String816getPathExtensionEv
 00000000:0000007100036E00       _ZNK7android7String811getBasePathEv
 00000000:0000007100036F10       _ZN7android7String810appendPathEPKc
 00000000:0000007100037060       _ZN7android7String816convertToResPathEv
 00000000:0000007100037070       _ZN7android12uptimeMillisEv
 00000000:00000071000370B0       androidGetTid
 00000000:00000071000370C0       androidGetThreadId
 00000000:00000071000370D0       androidSetThreadName
 00000000:00000071000370E0       _ZN7android6ThreadC2Eb
 00000000:0000007100037140       _ZN7android6ThreadD2Ev
 00000000:00000071000371A0       _ZN7android6ThreadD1Ev
 00000000:00000071000371B0       _ZTv0_n24_N7android6ThreadD1Ev
 00000000:00000071000371C0       _ZN7android6ThreadD0Ev
 00000000:00000071000371D0       _ZTv0_n24_N7android6ThreadD0Ev
 00000000:00000071000371E0       _ZN7android6Thread3runEPKcim
 00000000:00000071000373A0       _ZN7android6Thread11_threadLoopEPv
 00000000:00000071000375E0       _ZN7android6Thread11requestExitEv
 00000000:0000007100037620       _ZN7android6Thread10readyToRunEv
 00000000:0000007100037630       _ZN7android6Thread18requestExitAndWaitEv
 00000000:0000007100037660       _ZN7android6Thread4joinEv
 00000000:0000007100037700       _ZNK7android6Thread9isRunningEv
 00000000:0000007100037740       _ZNK7android6Thread11exitPendingEv
 00000000:0000007100037780       systemTime
 00000000:0000007100037A30       def_71000379EC
 00000000:0000007100037A80       strcmp16
 00000000:0000007100037B10       strzcmp16
 00000000:0000007100037D10       def_7100037CCC
 00000000:0000007100038070       def_7100038060
 00000000:0000007100038140       j__ZN7android10HeapObjectnwEm_0_1
 00000000:0000007100038150       j__ZN7android10HeapObjectdlEPv_0_1
 00000000:0000007100038160       _ZN7android10VectorImplC2Emj
 00000000:0000007100038180       _ZN7android10VectorImplC2ERKS0_
 00000000:00000071000381C0       _ZN7android16SortedVectorImplD2Ev
 00000000:00000071000381E0       _ZN7android10VectorImplD0Ev
 00000000:00000071000381F0       _ZN7android10VectorImplaSERKS0_
 00000000:00000071000382D0       _ZN7android10VectorImpl15release_storageEv
 00000000:0000007100038340       _ZN7android10VectorImpl13editArrayImplEv
 00000000:0000007100038450       _ZNK7android10VectorImpl8capacityEv
 00000000:0000007100038470       _ZN7android10VectorImpl14insertVectorAtERKS0_m
 00000000:0000007100038520       _ZN7android10VectorImpl13insertArrayAtEPKvmm
 00000000:00000071000385D0       _ZN7android10VectorImpl12appendVectorERKS0_
 00000000:0000007100038660       _ZN7android10VectorImpl5_growEmm
 00000000:0000007100038970       _ZN7android10VectorImpl11appendArrayEPKvm
 00000000:0000007100038A00       _ZN7android10VectorImpl8insertAtEmm
 00000000:0000007100038A80       _ZN7android10VectorImpl8insertAtEPKvmm
 00000000:0000007100038B30       _ZN7android10VectorImpl4sortEPFiPKvS2_E
 00000000:0000007100038B40       _ZN7android10VectorImpl4sortEPFiPKvS2_PvES3_
 00000000:0000007100038DC0       _ZN7android10VectorImpl3popEv
 00000000:0000007100038DE0       _ZN7android10VectorImpl13removeItemsAtEmm
 00000000:0000007100038E30       _ZN7android10VectorImpl4pushEv
 00000000:0000007100038E90       _ZN7android10VectorImpl4pushEPKv
 00000000:0000007100038F10       _ZN7android10VectorImpl3addEv
 00000000:0000007100038F80       _ZN7android10VectorImpl3addEPKv
 00000000:0000007100039010       _ZN7android10VectorImpl9replaceAtEm
 00000000:00000071000390C0       _ZN7android10VectorImpl9replaceAtEPKvm
 00000000:00000071000391E0       _ZN7android10VectorImpl16editItemLocationEm
 00000000:0000007100039250       _ZN7android10VectorImpl7_shrinkEmm
 00000000:0000007100039490       _ZN7android10VectorImpl13finish_vectorEv
 00000000:0000007100039500       _ZN7android10VectorImpl5clearEv
 00000000:0000007100039510       _ZNK7android10VectorImpl12itemLocationEm
 00000000:0000007100039550       _ZN7android10VectorImpl11setCapacityEm
 00000000:0000007100039690       _ZN7android10VectorImpl6resizeEm
 00000000:0000007100039730       _ZNK7android10VectorImpl8itemSizeEv
 00000000:0000007100039740       _ZN7android16SortedVectorImplC2Emj
 00000000:0000007100039760       _ZN7android16SortedVectorImplC2ERKNS_10VectorImplE
 00000000:00000071000397D0       _ZN7android16SortedVectorImplD0Ev
 00000000:00000071000397E0       _ZN7android16SortedVectorImplaSERKS0_
 00000000:0000007100039800       _ZNK7android16SortedVectorImpl7indexOfEPKv
 00000000:00000071000398A0       _ZNK7android16SortedVectorImpl7orderOfEPKv
 00000000:0000007100039950       _ZN7android16SortedVectorImpl3addEPKv
 00000000:0000007100039A90       _ZN7android16SortedVectorImpl5mergeERKNS_10VectorImplE
 00000000:0000007100039B00       _ZN7android16SortedVectorImpl5mergeERKS0_
 00000000:0000007100039CE0       _ZN7android16SortedVectorImpl6removeEPKv
 00000000:0000007100039DB0       _ZNK2nn7account10UiSettings9GetUiModeEv
 00000000:0000007100039DE0       _ZNK2nn7account10UiSettings35GetNintendoAccountStartupDialogTypeEv
 00000000:0000007100039E10       _ZNK2nn7account10UiSettings14GetLicenseTypeEv
 00000000:0000007100039E60       _ZN2nn7account25ShowUserSelectorForSystemEPNS0_3UidERKNS0_21UserSelectionSettingsERKNS0_37UserSelectionSettingsForSystemServiceE
 00000000:0000007100039F90       _ZN2nn7account27ShowUserSelectorForLauncherEPNS0_3UidERKNS0_21UserSelectionSettingsERKNS_13ApplicationIdE
 00000000:000000710003A0C0       _ZN2nn7account16ShowUserSelectorEPNS0_3UidERKNS0_21UserSelectionSettingsE
 00000000:000000710003A1E0       _ZN2nn7account15ShowUserCreatorEv
 00000000:000000710003A280       _ZN2nn7account18ShowUserIconEditorERKNS0_3UidE
 00000000:000000710003A2E0       _ZN2nn7account22ShowUserNicknameEditorERKNS0_3UidE
 00000000:000000710003A340       _ZN2nn7account25ShowUserCreatorForStarterEv
 00000000:000000710003A3A0       _ZN2nn7account38ShowUserCreatorForImmediateNaLoginTestEPvm
 00000000:000000710003A4E0       _ZN2nn7account29ShowNintendoAccountNnidLinkerERKNS0_3UidE
 00000000:000000710003A540       _ZN2nn7account27GetUiResultFromContextStackEPNS0_11UiReturnArgENS_6applet13StorageHandleE
 00000000:000000710003A570       _ZN2nn7account61ShowUiToIntroduceExternalNetworkServiceAccountForRegistrationERKNS0_9SessionIdE
 00000000:000000710003A5D0       _ZN2nn7account40ShowLicenseRequirementsForNetworkServiceERKNS0_3UidE
 00000000:000000710003A650       _ZN2nn7account40ShowLicenseRequirementsForNetworkServiceERKNS0_3UidERKNS_3err9ErrorCodeE
 00000000:000000710003A6C0       _ZN2nn7account40ShowLicenseRequirementsForNetworkServiceERKNS0_10UserHandleE
 00000000:000000710003A750       _ZN2nn7account40ShowLicenseRequirementsForNetworkServiceERKNS0_10UserHandleERKNS_3err9ErrorCodeE
 00000000:000000710003A7E0       _ZN2nn7account59ShowLicenseRequirementsForNetworkServiceForUnspecifiedUsersERKNS_3err9ErrorCodeE
 00000000:000000710003A850       _ZN2nn7account59ShowLicenseRequirementsForNetworkServiceWithUserContextImplERKNS0_3UidEPKvm
 00000000:000000710003A8C0       _ZN2nn7account23TrySelectUserImplicitlyEPNS0_3UidERKNS0_29ImplicitUserSelectionSettingsE
 00000000:000000710003A950       _ZN2nn7account6detail18OAuthProcedureBaseC2Ev
 00000000:000000710003A970       _ZN2nn7account6detail18OAuthProcedureBaseC1ERKNS0_3UidEPNS0_4http15IOAuthProcedureE
 00000000:000000710003A990       _ZN2nn7account6detail18OAuthProcedureBaseC1EOS2_
 00000000:000000710003A9C0       _ZN2nn7account6detail18OAuthProcedureBaseD0Ev
 00000000:000000710003AA10       _ZN2nn7account6detail18OAuthProcedureBaseaSEOS2_
 00000000:000000710003AA90       _ZN2nn7account6detail18OAuthProcedureBase4SwapERS2_
 00000000:000000710003AAC0       _ZNK2nn7account6detail18OAuthProcedureBase6GetPtrEv
 00000000:000000710003AAD0       _ZN2nn7account6detail18OAuthProcedureBase12PrepareAsyncEPNS0_12AsyncContextE
 00000000:000000710003AB80       _ZN2nn7account6detail18OAuthProcedureBase10GetRequestEPNS0_10RequestUrlEPNS0_11CallbackUriE
 00000000:000000710003ABB0       _ZN2nn7account6detail18OAuthProcedureBase13ApplyResponseEPKcm
 00000000:000000710003ABF0       _ZN2nn7account6detail18OAuthProcedureBase18ApplyResponseAsyncEPNS0_12AsyncContextEPKcm
 00000000:000000710003ACB0       _ZN2nn7account6detail18OAuthProcedureBase7SuspendEPNS0_9SessionIdE
 00000000:000000710003AD10       _ZN2nn7account6detail24SimpleOAuthProcedureBaseC2Ev
 00000000:000000710003AD30       _ZN2nn7account6detail24SimpleOAuthProcedureBaseC1ERKNS0_3UidEPNS0_4http15IOAuthProcedureE
 00000000:000000710003AD60       _ZN2nn7account6detail24SimpleOAuthProcedureBaseC1EOS2_
 00000000:000000710003ADA0       _ZN2nn7account6detail24SimpleOAuthProcedureBaseaSEOS2_
 00000000:000000710003AE20       _ZN2nn7account6detail24SimpleOAuthProcedureBase4SwapERS2_
 00000000:000000710003AE50       _ZN2nn7account6detail18OAuthProcedureBaseD1Ev
 00000000:000000710003AE80       _ZN2nn7account6detail24SimpleOAuthProcedureBaseD0Ev
 00000000:000000710003AED0       _ZN2nn7account6detail21TryPopPreselectedUserEv
 00000000:000000710003AFB0       _ZN2nn7account6detail25CheckInternetAvailabilityEv
 00000000:000000710003AFE0       _ZN2nn7account6detail15StartPselAppletERKNS0_10UiSettingsE
 00000000:000000710003B120       _ZN2nn7account6detail15StartPselAppletERKNS0_10UiSettingsEPKvm
 00000000:000000710003B150       _ZN2nn7account6detail22ShowUserSelectorCommonEPNS0_3UidERKNS0_10UiSettingsE
 00000000:000000710003B210       _ZN2nn7account6detail12ObjectHolderD2Ev
 00000000:000000710003B2C0       _ZN2nn7account6detail13IsInitializedEv
 00000000:000000710003B310       _ZN2nn7account6detail31TrySelectUserWithoutInteractionEPNS0_3UidEb
 00000000:000000710003B350       _ZN2nn7account10InitializeEv
 00000000:000000710003B4C0       _ZN2nn7account26InitializeForSystemServiceEv
 00000000:000000710003B580       _ZN2nn7account26InitializeForAdministratorEv
 00000000:000000710003B640       _ZN2nn7account14InitializeWithEONS_2sf13SharedPointerINS0_31IAccountServiceForAdministratorEEE
 00000000:000000710003B6C0       _ZN2nn7account8FinalizeEv
 00000000:000000710003B7B0       _ZN2nn7account12GetUserCountEPi
 00000000:000000710003B810       _ZN2nn7account16GetUserExistenceEPbRKNS0_3UidE
 00000000:000000710003B840       _ZN2nn7account12ListAllUsersEPiPNS0_3UidEi
 00000000:000000710003BA50       _ZN2nn7account13ListOpenUsersEPiPNS0_3UidEi
 00000000:000000710003BC60       _ZN2nn7account17GetLastOpenedUserEPNS0_3UidE
 00000000:000000710003BC90       _ZN2nn7account16GetProfileDigestEPNS0_13ProfileDigestERKNS0_3UidE
 00000000:000000710003BCC0       _ZN2nn7account11GetNicknameEPNS0_8NicknameERKNS0_3UidE
 00000000:000000710003BD80       _ZN2nn7account16LoadProfileImageEPmPvmRKNS0_3UidE
 00000000:000000710003BE60       _ZN2nn7account34IsUserRegistrationRequestPermittedEPb
 00000000:000000710003BEA0       _ZN2nn7account18ListQualifiedUsersEPiPNS0_3UidEi
 00000000:000000710003C0B0       _ZN2nn7account8OpenUserEPNS0_10UserHandleERKNS0_3UidE
 00000000:000000710003C250       _ZN2nn7account22TryOpenPreselectedUserEPNS0_10UserHandleE
 00000000:000000710003C2D0       _ZN2nn7account19OpenPreselectedUserEPNS0_10UserHandleE
 00000000:000000710003C350       _ZN2nn7account9CloseUserERKNS0_10UserHandleE
 00000000:000000710003C4C0       _ZN2nn7account9GetUserIdEPNS0_3UidERKNS0_10UserHandleE
 00000000:000000710003C4D0       _ZN2nn7account36CheckNetworkServiceAvailabilityAsyncEPNS0_12AsyncContextE
 00000000:000000710003C570       _ZN2nn7account38IntroduceExternalNetworkServiceAccountEPNS0_33ExternalNetworkServiceAccountInfoEPvm
 00000000:000000710003C730       _ZN2nn7account43DebugIntroduceExternalNetworkServiceAccountEPmmPNS0_33ExternalNetworkServiceAccountInfoEPvm
 00000000:000000710003C8A0       _ZN2nn7account27StoreSaveDataThumbnailImageERKNS0_3UidEPKvm
 00000000:000000710003C8F0       _ZN2nn7account28DeleteSaveDataThumbnailImageERKNS0_3UidE
 00000000:000000710003C930       _ZN2nn7account13PushOpenUsersEv
 00000000:000000710003CB80       _ZN2nn7account12PopOpenUsersEPiPNS0_10UserHandleEi
 00000000:000000710003CD70       _ZN2nn7account19ListPushedOpenUsersEPNS0_3UidEi
 00000000:000000710003CFA0       _ZN2nn7account18ListQualifiedUsersEPiPNS0_3UidEiRKNS_13ApplicationIdE
 00000000:000000710003D1B0       _ZN2nn7account27GetUserRegistrationNotifierEPNS0_8NotifierE
 00000000:000000710003D250       _ZN2nn7account26GetUserStateChangeNotifierEPNS0_8NotifierE
 00000000:000000710003D2F0       _ZN2nn7account24GetProfileUpdateNotifierEPNS0_8NotifierE
 00000000:000000710003D390       _ZN2nn7account50GetNetworkServiceAccountAvailabilityChangeNotifierEPNS0_8NotifierE
 00000000:000000710003D430       _ZN2nn7account28GetUserLastOpenedApplicationEPNS_13ApplicationIdEPjRKNS0_3UidE
 00000000:000000710003D470       _ZN2nn7account31GetNetworkServiceAccountManagerEPNS0_28NetworkServiceAccountManagerERKNS0_3UidE
 00000000:000000710003D520       _ZN2nn7account36CheckNetworkServiceAvailabilityAsyncEPNS0_12AsyncContextERKNS0_27SystemProgramIdentificationE
 00000000:000000710003D5D0       _ZN2nn7account27StoreSaveDataThumbnailImageERKNS0_3UidERKNS_13ApplicationIdEPKvm
 00000000:000000710003D630       _ZN2nn7account28DeleteSaveDataThumbnailImageERKNS0_3UidERKNS_13ApplicationIdE
 00000000:000000710003D670       _ZN2nn7account26LoadSaveDataThumbnailImageEPvmRKNS0_3UidERKNS_13ApplicationIdE
 00000000:000000710003D6D0       _ZN2nn7account34GetSaveDataThumbnailImageExistenceEPbRKNS0_3UidERKNS_13ApplicationIdE
 00000000:000000710003D710       _ZN2nn7account35EnableInterprogramOpenUserRetentionERKNS_13ApplicationIdE
 00000000:000000710003D790       _ZN2nn7account30UpdateNotificationReceiverInfoEv
 00000000:000000710003D7F0       _ZN2nn7account21BeginUserRegistrationEPNS0_3UidE
 00000000:000000710003D820       _ZN2nn7account24CompleteUserRegistrationERKNS0_3UidE
 00000000:000000710003D850       _ZN2nn7account32CompleteUserRegistrationForciblyERKNS0_3UidE
 00000000:000000710003D880       _ZN2nn7account22CancelUserRegistrationERKNS0_3UidE
 00000000:000000710003D8B0       _ZN2nn7account10DeleteUserERKNS0_3UidE
 00000000:000000710003D8E0       _ZN2nn7account15SetUserPositionERKNS0_3UidEi
 00000000:000000710003D910       _ZN2nn7account16GetProfileEditorEPNS0_13ProfileEditorERKNS0_3UidE
 00000000:000000710003D9D0       _ZN2nn7account24AuthenticateServiceAsyncEPNS0_12AsyncContextE
 00000000:000000710003DA70       _ZN2nn7account37GetNetworkServiceAccountAdministratorEPNS0_34NetworkServiceAccountAdministratorERKNS0_3UidE
 00000000:000000710003DB20       _ZN2nn7account44CreateExternalNetworkServiceAccountRegistrarEPNS0_38ExternalNetworkServiceAccountRegistrarEPvm
 00000000:000000710003DC40       _ZN2nn7account29CreateProcedureToRegisterUserEPNS0_25UserRegistrationProcedureEPvm
 00000000:000000710003DD60       _ZN2nn7account29ResumeProcedureToRegisterUserEPNS0_25UserRegistrationProcedureERKNS0_9SessionIdEPvm
 00000000:000000710003DEA0       _ZN2nn7account69ProxyProcedureToIntroduceExternalNetworkServiceAccountForRegistrationEPNS0_49ExternalNetworkServiceAccountIntroducingProcedureERKNS0_9SessionIdE
 00000000:000000710003DF50       _ZN2nn7account54ProxyProcedureToIntroduceExternalNetworkServiceAccountEPNS0_49ExternalNetworkServiceAccountIntroducingProcedureERKNS0_9SessionIdE
 00000000:000000710003E000       _ZN2nn7account11Declaration4SwapERS1_
 00000000:000000710003E020       _ZN2nn7account11DeclarationD1Ev
 00000000:000000710003E040       _ZN2nn7account32DebugInvalidateUserResourceCacheERKNS0_3UidE
 00000000:000000710003E0A0       _ZN2nn7account21DebugSetUserStateOpenERKNS0_3UidE
 00000000:000000710003E0D0       _ZN2nn7account22DebugSetUserStateCloseERKNS0_3UidE
 00000000:000000710003E100       _ZN2nn7account40DebugEnableInterprogramOpenUserRetentionEv
 00000000:000000710003E180       _ZN2nn7account25SuspendBackgroundActivityEv
 00000000:000000710003E200       _ZN2nn7account6detail12ObjectHolder11AcquireImplINS0_29IAccountServiceForApplicationEEENS_6ResultEPPT_PKc
 00000000:000000710003E300       _ZN2nn2sf4hipc6client34HipcSimpleClientSessionManagerBaseINS2_29DefaultSessionResourceManagerEE4Impl18InitializeByHandleINS_7account29IAccountServiceForApplicationENS0_25StatelessAllocationPolicyINS0_22ExpHeapStaticAllocatorILm2048ENS8_6detail12ObjectHolder24ObjectHolderAllocatorTagEEEEENS0_4cmif6client6detail19ProcessModifierImplINSI_21DefaultProxyFilterTagEEEEENS_6ResultEPNS0_13SharedPointerIT_EENS_3svc6HandleE
 00000000:000000710003E420       _ZN2nn2sf6detail39ObjectImplFactoryWithStatelessAllocatorINS0_4cmif6client6detail9CmifProxyINS_7account29IAccountServiceForApplicationENS4_19CmifDomainProxyKindINS0_4hipc6client38Hipc2ClientSessionManagedProxyKindBaseINSB_18Hipc2ProxyKindBaseILNSA_6detail11MessageTypeE6EEEEEEENS0_25StatelessAllocationPolicyINS0_22ExpHeapStaticAllocatorILm2048ENS7_6detail12ObjectHolder24ObjectHolderAllocatorTagEEEEENS5_19ProcessModifierImplINS4_21DefaultProxyFilterTagEEEvEESP_E6Object12AddReferenceEv
 00000000:000000710003E430       _ZN2nn2sf6detail39ObjectImplFactoryWithStatelessAllocatorINS0_4cmif6client6detail9CmifProxyINS_7account29IAccountServiceForApplicationENS4_19CmifDomainProxyKindINS0_4hipc6client38Hipc2ClientSessionManagedProxyKindBaseINSB_18Hipc2ProxyKindBaseILNSA_6detail11MessageTypeE6EEEEEEENS0_25StatelessAllocationPolicyINS0_22ExpHeapStaticAllocatorILm2048ENS7_6detail12ObjectHolder24ObjectHolderAllocatorTagEEEEENS5_19ProcessModifierImplINS4_21DefaultProxyFilterTagEEEvEESP_E6Object7ReleaseEv
 00000000:000000710003E4A0       _ZN2nn2sf4cmif6client6detail13CmifProxyImplINS_7account19IAccountServiceBaseENS2_19CmifDomainProxyKindINS0_4hipc6client38Hipc2ClientSessionManagedProxyKindBaseINS9_18Hipc2ProxyKindBaseILNS8_6detail11MessageTypeE6EEEEEEENS0_25StatelessAllocationPolicyINS0_22ExpHeapStaticAllocatorILm2048ENS5_6detail12ObjectHolder24ObjectHolderAllocatorTagEEEEENS5_29IAccountServiceForApplicationENS3_19ProcessModifierImplINS2_21DefaultProxyFilterTagEEEE12GetProxyInfoEv
 00000000:000000710003E4B0       _ZN2nn2sf4cmif6client6detail13CmifProxyImplINS_7account19IAccountServiceBaseENS2_19CmifDomainProxyKindINS0_4hipc6client38Hipc2ClientSessionManagedProxyKindBaseINS9_18Hipc2ProxyKindBaseILNS8_6detail11MessageTypeE6EEEEEEENS0_25StatelessAllocationPolicyINS0_22ExpHeapStaticAllocatorILm2048ENS5_6detail12ObjectHolder24ObjectHolderAllocatorTagEEEEENS5_29IAccountServiceForApplicationENS3_19ProcessModifierImplINS2_21DefaultProxyFilterTagEEEE24_nn_sf_sync_GetUserCountENS0_3OutIivEE
 00000000:000000710003E4D0       _ZN2nn2sf4cmif6client6detail13CmifProxyImplINS_7account19IAccountServiceBaseENS2_19CmifDomainProxyKindINS0_4hipc6client38Hipc2ClientSessionManagedProxyKindBaseINS9_18Hipc2ProxyKindBaseILNS8_6detail11MessageTypeE6EEEEEEENS0_25StatelessAllocationPolicyINS0_22ExpHeapStaticAllocatorILm2048ENS5_6detail12ObjectHolder24ObjectHolderAllocatorTagEEEEENS5_29IAccountServiceForApplicationENS3_19ProcessModifierImplINS2_21DefaultProxyFilterTagEEEE28_nn_sf_sync_GetUserExistenceENS0_3OutIbvEERKNS5_3UidE
 00000000:000000710003E4F0       _ZN2nn2sf4cmif6client6detail13CmifProxyImplINS_7account19IAccountServiceBaseENS2_19CmifDomainProxyKindINS0_4hipc6client38Hipc2ClientSessionManagedProxyKindBaseINS9_18Hipc2ProxyKindBaseILNS8_6detail11MessageTypeE6EEEEEEENS0_25StatelessAllocationPolicyINS0_22ExpHeapStaticAllocatorILm2048ENS5_6detail12ObjectHolder24ObjectHolderAllocatorTagEEEEENS5_29IAccountServiceForApplicationENS3_19ProcessModifierImplINS2_21DefaultProxyFilterTagEEEE24_nn_sf_sync_ListAllUsersERKNS0_8OutArrayINS5_3UidEEE
 00000000:000000710003E520       _ZN2nn2sf4cmif6client6detail13CmifProxyImplINS_7account19IAccountServiceBaseENS2_19CmifDomainProxyKindINS0_4hipc6client38Hipc2ClientSessionManagedProxyKindBaseINS9_18Hipc2ProxyKindBaseILNS8_6detail11MessageTypeE6EEEEEEENS0_25StatelessAllocationPolicyINS0_22ExpHeapStaticAllocatorILm2048ENS5_6detail12ObjectHolder24ObjectHolderAllocatorTagEEEEENS5_29IAccountServiceForApplicationENS3_19ProcessModifierImplINS2_21DefaultProxyFilterTagEEEE25_nn_sf_sync_ListOpenUsersERKNS0_8OutArrayINS5_3UidEEE
 00000000:000000710003E550       _ZN2nn2sf4cmif6client6detail13CmifProxyImplINS_7account19IAccountServiceBaseENS2_19CmifDomainProxyKindINS0_4hipc6client38Hipc2ClientSessionManagedProxyKindBaseINS9_18Hipc2ProxyKindBaseILNS8_6detail11MessageTypeE6EEEEEEENS0_25StatelessAllocationPolicyINS0_22ExpHeapStaticAllocatorILm2048ENS5_6detail12ObjectHolder24ObjectHolderAllocatorTagEEEEENS5_29IAccountServiceForApplicationENS3_19ProcessModifierImplINS2_21DefaultProxyFilterTagEEEE29_nn_sf_sync_GetLastOpenedUserENS0_3OutINS5_3UidEvEE
 00000000:000000710003E570       _ZN2nn2sf4cmif6client6detail13CmifProxyImplINS_7account19IAccountServiceBaseENS2_19CmifDomainProxyKindINS0_4hipc6client38Hipc2ClientSessionManagedProxyKindBaseINS9_18Hipc2ProxyKindBaseILNS8_6detail11MessageTypeE6EEEEEEENS0_25StatelessAllocationPolicyINS0_22ExpHeapStaticAllocatorILm2048ENS5_6detail12ObjectHolder24ObjectHolderAllocatorTagEEEEENS5_29IAccountServiceForApplicationENS3_19ProcessModifierImplINS2_21DefaultProxyFilterTagEEEE22_nn_sf_sync_GetProfileENS0_3OutINS0_13SharedPointerINS5_7profile8IProfileEEEvEERKNS5_3UidE
 00000000:000000710003E610       _ZN2nn2sf4cmif6client6detail13CmifProxyImplINS_7account19IAccountServiceBaseENS2_19CmifDomainProxyKindINS0_4hipc6client38Hipc2ClientSessionManagedProxyKindBaseINS9_18Hipc2ProxyKindBaseILNS8_6detail11MessageTypeE6EEEEEEENS0_25StatelessAllocationPolicyINS0_22ExpHeapStaticAllocatorILm2048ENS5_6detail12ObjectHolder24ObjectHolderAllocatorTagEEEEENS5_29IAccountServiceForApplicationENS3_19ProcessModifierImplINS2_21DefaultProxyFilterTagEEEE28_nn_sf_sync_GetProfileDigestENS0_3OutINS5_13ProfileDigestEvEERKNS5_3UidE
 00000000:000000710003E630       _ZN2nn2sf4cmif6client6detail13CmifProxyImplINS_7account19IAccountServiceBaseENS2_19CmifDomainProxyKindINS0_4hipc6client38Hipc2ClientSessionManagedProxyKindBaseINS9_18Hipc2ProxyKindBaseILNS8_6detail11MessageTypeE6EEEEEEENS0_25StatelessAllocationPolicyINS0_22ExpHeapStaticAllocatorILm2048ENS5_6detail12ObjectHolder24ObjectHolderAllocatorTagEEEEENS5_29IAccountServiceForApplicationENS3_19ProcessModifierImplINS2_21DefaultProxyFilterTagEEEE46_nn_sf_sync_IsUserRegistrationRequestPermittedENS0_3OutIbvEEm
 00000000:000000710003E650       _ZN2nn2sf4cmif6client6detail13CmifProxyImplINS_7account19IAccountServiceBaseENS2_19CmifDomainProxyKindINS0_4hipc6client38Hipc2ClientSessionManagedProxyKindBaseINS9_18Hipc2ProxyKindBaseILNS8_6detail11MessageTypeE6EEEEEEENS0_25StatelessAllocationPolicyINS0_22ExpHeapStaticAllocatorILm2048ENS5_6detail12ObjectHolder24ObjectHolderAllocatorTagEEEEENS5_29IAccountServiceForApplicationENS3_19ProcessModifierImplINS2_21DefaultProxyFilterTagEEEE43_nn_sf_sync_TrySelectUserWithoutInteractionENS0_3OutINS5_3UidEvEEb
 00000000:000000710003E680       _ZN2nn2sf4cmif6client6detail13CmifProxyImplINS_7account19IAccountServiceBaseENS2_19CmifDomainProxyKindINS0_4hipc6client38Hipc2ClientSessionManagedProxyKindBaseINS9_18Hipc2ProxyKindBaseILNS8_6detail11MessageTypeE6EEEEEEENS0_25StatelessAllocationPolicyINS0_22ExpHeapStaticAllocatorILm2048ENS5_6detail12ObjectHolder24ObjectHolderAllocatorTagEEEEENS5_29IAccountServiceForApplicationENS3_19ProcessModifierImplINS2_21DefaultProxyFilterTagEEEE45_nn_sf_sync_DebugActivateOpenContextRetentionENS0_3OutINS0_13SharedPointerINSJ_14ISessionObjectEEEvEE
 00000000:000000710003E710       _ZN2nn2sf4cmif6client6detail13CmifProxyImplINS_7account29IAccountServiceForApplicationENS2_19CmifDomainProxyKindINS0_4hipc6client38Hipc2ClientSessionManagedProxyKindBaseINS9_18Hipc2ProxyKindBaseILNS8_6detail11MessageTypeE6EEEEEEENS0_25StatelessAllocationPolicyINS0_22ExpHeapStaticAllocatorILm2048ENS5_6detail12ObjectHolder24ObjectHolderAllocatorTagEEEEES6_NS3_19ProcessModifierImplINS2_21DefaultProxyFilterTagEEEE39_nn_sf_sync_InitializeApplicationInfoV0Em
 00000000:000000710003E730       _ZN2nn2sf4cmif6client6detail13CmifProxyImplINS_7account29IAccountServiceForApplicationENS2_19CmifDomainProxyKindINS0_4hipc6client38Hipc2ClientSessionManagedProxyKindBaseINS9_18Hipc2ProxyKindBaseILNS8_6detail11MessageTypeE6EEEEEEENS0_25StatelessAllocationPolicyINS0_22ExpHeapStaticAllocatorILm2048ENS5_6detail12ObjectHolder24ObjectHolderAllocatorTagEEEEES6_NS3_19ProcessModifierImplINS2_21DefaultProxyFilterTagEEEE47_nn_sf_sync_GetBaasAccountManagerForApplicationENS0_3OutINS0_13SharedPointerINS5_4baas22IManagerForApplicationEEEvEERKNS5_3UidE
 00000000:000000710003E7D0       _ZN2nn2sf4cmif6client6detail13CmifProxyImplINS_7account29IAccountServiceForApplicationENS2_19CmifDomainProxyKindINS0_4hipc6client38Hipc2ClientSessionManagedProxyKindBaseINS9_18Hipc2ProxyKindBaseILNS8_6detail11MessageTypeE6EEEEEEENS0_25StatelessAllocationPolicyINS0_22ExpHeapStaticAllocatorILm2048ENS5_6detail12ObjectHolder24ObjectHolderAllocatorTagEEEEES6_NS3_19ProcessModifierImplINS2_21DefaultProxyFilterTagEEEE40_nn_sf_sync_AuthenticateApplicationAsyncENS0_3OutINS0_13SharedPointerINSJ_13IAsyncContextEEEvEE
 00000000:000000710003E860       _ZN2nn2sf4cmif6client6detail13CmifProxyImplINS_7account29IAccountServiceForApplicationENS2_19CmifDomainProxyKindINS0_4hipc6client38Hipc2ClientSessionManagedProxyKindBaseINS9_18Hipc2ProxyKindBaseILNS8_6detail11MessageTypeE6EEEEEEENS0_25StatelessAllocationPolicyINS0_22ExpHeapStaticAllocatorILm2048ENS5_6detail12ObjectHolder24ObjectHolderAllocatorTagEEEEES6_NS3_19ProcessModifierImplINS2_21DefaultProxyFilterTagEEEE48_nn_sf_sync_CheckNetworkServiceAvailabilityAsyncENS0_3OutINS0_13SharedPointerINSJ_13IAsyncContextEEEvEE
 00000000:000000710003E8F0       _ZN2nn2sf4cmif6client6detail13CmifProxyImplINS_7account29IAccountServiceForApplicationENS2_19CmifDomainProxyKindINS0_4hipc6client38Hipc2ClientSessionManagedProxyKindBaseINS9_18Hipc2ProxyKindBaseILNS8_6detail11MessageTypeE6EEEEEEENS0_25StatelessAllocationPolicyINS0_22ExpHeapStaticAllocatorILm2048ENS5_6detail12ObjectHolder24ObjectHolderAllocatorTagEEEEES6_NS3_19ProcessModifierImplINS2_21DefaultProxyFilterTagEEEE34_nn_sf_sync_StoreSaveDataThumbnailERKNS5_3UidERKNS0_8InBufferE
 00000000:000000710003E920       _ZN2nn2sf4cmif6client6detail13CmifProxyImplINS_7account29IAccountServiceForApplicationENS2_19CmifDomainProxyKindINS0_4hipc6client38Hipc2ClientSessionManagedProxyKindBaseINS9_18Hipc2ProxyKindBaseILNS8_6detail11MessageTypeE6EEEEEEENS0_25StatelessAllocationPolicyINS0_22ExpHeapStaticAllocatorILm2048ENS5_6detail12ObjectHolder24ObjectHolderAllocatorTagEEEEES6_NS3_19ProcessModifierImplINS2_21DefaultProxyFilterTagEEEE34_nn_sf_sync_ClearSaveDataThumbnailERKNS5_3UidE
 00000000:000000710003E940       _ZN2nn2sf4cmif6client6detail13CmifProxyImplINS_7account29IAccountServiceForApplicationENS2_19CmifDomainProxyKindINS0_4hipc6client38Hipc2ClientSessionManagedProxyKindBaseINS9_18Hipc2ProxyKindBaseILNS8_6detail11MessageTypeE6EEEEEEENS0_25StatelessAllocationPolicyINS0_22ExpHeapStaticAllocatorILm2048ENS5_6detail12ObjectHolder24ObjectHolderAllocatorTagEEEEES6_NS3_19ProcessModifierImplINS2_21DefaultProxyFilterTagEEEE35_nn_sf_sync_CreateGuestLoginRequestENS0_3OutINS0_13SharedPointerINS5_4baas18IGuestLoginRequestEEEvEEONS0_12NativeHandleEj
 00000000:000000710003E9F0       _ZN2nn2sf4cmif6client6detail13CmifProxyImplINS_7account29IAccountServiceForApplicationENS2_19CmifDomainProxyKindINS0_4hipc6client38Hipc2ClientSessionManagedProxyKindBaseINS9_18Hipc2ProxyKindBaseILNS8_6detail11MessageTypeE6EEEEEEENS0_25StatelessAllocationPolicyINS0_22ExpHeapStaticAllocatorILm2048ENS5_6detail12ObjectHolder24ObjectHolderAllocatorTagEEEEES6_NS3_19ProcessModifierImplINS2_21DefaultProxyFilterTagEEEE27_nn_sf_sync_LoadOpenContextENS0_3OutINS0_13SharedPointerINS5_4baas22IManagerForApplicationEEEvEERKNS5_3UidE
 00000000:000000710003EA90       _ZN2nn2sf4cmif6client6detail13CmifProxyImplINS_7account29IAccountServiceForApplicationENS2_19CmifDomainProxyKindINS0_4hipc6client38Hipc2ClientSessionManagedProxyKindBaseINS9_18Hipc2ProxyKindBaseILNS8_6detail11MessageTypeE6EEEEEEENS0_25StatelessAllocationPolicyINS0_22ExpHeapStaticAllocatorILm2048ENS5_6detail12ObjectHolder24ObjectHolderAllocatorTagEEEEES6_NS3_19ProcessModifierImplINS2_21DefaultProxyFilterTagEEEE38_nn_sf_sync_ListOpenContextStoredUsersERKNS0_8OutArrayINS5_3UidEEE
 00000000:000000710003EAC0       _ZN2nn2sf4cmif6client6detail13CmifProxyImplINS_7account29IAccountServiceForApplicationENS2_19CmifDomainProxyKindINS0_4hipc6client38Hipc2ClientSessionManagedProxyKindBaseINS9_18Hipc2ProxyKindBaseILNS8_6detail11MessageTypeE6EEEEEEENS0_25StatelessAllocationPolicyINS0_22ExpHeapStaticAllocatorILm2048ENS5_6detail12ObjectHolder24ObjectHolderAllocatorTagEEEEES6_NS3_19ProcessModifierImplINS2_21DefaultProxyFilterTagEEEE37_nn_sf_sync_InitializeApplicationInfoEm
 00000000:000000710003EAE0       _ZN2nn2sf4cmif6client6detail13CmifProxyImplINS_7account29IAccountServiceForApplicationENS2_19CmifDomainProxyKindINS0_4hipc6client38Hipc2ClientSessionManagedProxyKindBaseINS9_18Hipc2ProxyKindBaseILNS8_6detail11MessageTypeE6EEEEEEENS0_25StatelessAllocationPolicyINS0_22ExpHeapStaticAllocatorILm2048ENS5_6detail12ObjectHolder24ObjectHolderAllocatorTagEEEEES6_NS3_19ProcessModifierImplINS2_21DefaultProxyFilterTagEEEE30_nn_sf_sync_ListQualifiedUsersERKNS0_8OutArrayINS5_3UidEEE
 00000000:000000710003EB10       _ZN2nn2sf4cmif6client6detail13CmifProxyImplINS_7account29IAccountServiceForApplicationENS2_19CmifDomainProxyKindINS0_4hipc6client38Hipc2ClientSessionManagedProxyKindBaseINS9_18Hipc2ProxyKindBaseILNS8_6detail11MessageTypeE6EEEEEEENS0_25StatelessAllocationPolicyINS0_22ExpHeapStaticAllocatorILm2048ENS5_6detail12ObjectHolder24ObjectHolderAllocatorTagEEEEES6_NS3_19ProcessModifierImplINS2_21DefaultProxyFilterTagEEEE37_nn_sf_sync_IsUserAccountSwitchLockedENS0_3OutIbvEE
 00000000:000000710003EB30       _ZN2nn2sf4cmif6client6detail13CmifProxyImplINS_7account19IAccountServiceBaseENS2_19CmifDomainProxyKindINS0_4hipc6client38Hipc2ClientSessionManagedProxyKindBaseINS9_18Hipc2ProxyKindBaseILNS8_6detail11MessageTypeE6EEEEEEENS0_25StatelessAllocationPolicyINS0_22ExpHeapStaticAllocatorILm2048ENS5_6detail12ObjectHolder24ObjectHolderAllocatorTagEEEEENS5_29IAccountServiceForApplicationENS3_19ProcessModifierImplINS2_21DefaultProxyFilterTagEEEE17GetCmifBaseObjectEv
 00000000:000000710003EB40       _ZThn32_N2nn2sf4cmif6client6detail13CmifProxyImplINS_7account19IAccountServiceBaseENS2_19CmifDomainProxyKindINS0_4hipc6client38Hipc2ClientSessionManagedProxyKindBaseINS9_18Hipc2ProxyKindBaseILNS8_6detail11MessageTypeE6EEEEEEENS0_25StatelessAllocationPolicyINS0_22ExpHeapStaticAllocatorILm2048ENS5_6detail12ObjectHolder24ObjectHolderAllocatorTagEEEEENS5_29IAccountServiceForApplicationENS3_19ProcessModifierImplINS2_21DefaultProxyFilterTagEEEE17GetCmifBaseObjectEv
 00000000:000000710003EB50       _ZN2nn2sf4cmif6client34CmifDomainProxyClientCoreProcessorINS0_4hipc6client38Hipc2ClientSessionManagedProxyKindBaseINS5_18Hipc2ProxyKindBaseILNS4_6detail11MessageTypeE6EEEEENS1_6detail14CoreMethodInfoINSt3__15tupleIJNSC_18OutRawArgumentInfoILm1ELm1ELl0EEENSC_17InRawArgumentInfoILm16ELm8ELl0EEEEEELm16ELm1ELb0EEESK_E7ProcessEPNS2_23CmifDomainClientMessageISB_E15ProxyBaseObjectENS2_24OutRawClientArgumentTypeILm1ELm1EEENS2_23InRawClientArgumentTypeILm16ELm8EvEEj
 00000000:000000710003ECB0       _ZN2nn2sf4cmif6client34CmifDomainProxyClientCoreProcessorINS0_4hipc6client38Hipc2ClientSessionManagedProxyKindBaseINS5_18Hipc2ProxyKindBaseILNS4_6detail11MessageTypeE6EEEEENS1_6detail14CoreMethodInfoINSt3__15tupleIJNSC_18BufferArgumentInfoILi0ELi10ELm0EEEEEELm0ELm0ELb0EEESI_E7ProcessEPNS2_23CmifDomainClientMessageISB_E15ProxyBaseObjectENS2_24BufferClientArgumentTypeEj
 00000000:000000710003EEA0       _ZN2nn2sf4cmif6client34CmifDomainProxyClientCoreProcessorINS0_4hipc6client38Hipc2ClientSessionManagedProxyKindBaseINS5_18Hipc2ProxyKindBaseILNS4_6detail11MessageTypeE6EEEEENS1_6detail14CoreMethodInfoINSt3__15tupleIJNSC_18OutRawArgumentInfoILm16ELm8ELl0EEEEEELm0ELm16ELb0EEESI_E7ProcessEPNS2_23CmifDomainClientMessageISB_E15ProxyBaseObjectENS2_24OutRawClientArgumentTypeILm16ELm8EEEj
 00000000:000000710003EFF0       _ZN2nn2sf4cmif6client34CmifDomainProxyClientCoreProcessorINS0_4hipc6client38Hipc2ClientSessionManagedProxyKindBaseINS5_18Hipc2ProxyKindBaseILNS4_6detail11MessageTypeE6EEEEENS1_6detail14CoreMethodInfoINSt3__15tupleIJNSC_21OutObjectArgumentInfoILi0ELi0EEENSC_17InRawArgumentInfoILm16ELm8ELl0EEEEEELm16ELm0ELb0EEESK_E21ProcessWithOutObjectsEPNS2_23CmifDomainClientMessageISB_E15ProxyBaseObjectENS2_27OutObjectClientArgumentTypeENS2_23InRawClientArgumentTypeILm16ELm8EvEEjPNS0_13SharedPointerINS0_14IServiceObjectEEE
 00000000:000000710003F1C0       _ZN2nn2sf4cmif6client6detail36GetClientProcessorImplWithObjectBaseINS2_19CmifDomainProxyKindINS0_4hipc6client38Hipc2ClientSessionManagedProxyKindBaseINS7_18Hipc2ProxyKindBaseILNS6_6detail11MessageTypeE6EEEEEEENS3_19ProcessModifierImplINS2_21DefaultProxyFilterTagEEEE14ObjectAssignerINS0_25StatelessAllocationPolicyINS0_22ExpHeapStaticAllocatorILm2048ENS_7account6detail12ObjectHolder24ObjectHolderAllocatorTagEEEEENS0_6detail23StatelessDummyAllocatorEE14AllocateObjectINSM_7profile8IProfileEEEvi
 00000000:000000710003F280       _ZN2nn2sf6detail39ObjectImplFactoryWithStatelessAllocatorINS0_4cmif6client6detail9CmifProxyINS_7account7profile8IProfileENS4_19CmifDomainProxyKindINS0_4hipc6client38Hipc2ClientSessionManagedProxyKindBaseINSC_18Hipc2ProxyKindBaseILNSB_6detail11MessageTypeE6EEEEEEENS0_25StatelessAllocationPolicyINS0_22ExpHeapStaticAllocatorILm2048ENS7_6detail12ObjectHolder24ObjectHolderAllocatorTagEEEEENS5_19ProcessModifierImplINS4_21DefaultProxyFilterTagEEEvEESQ_E6Object12AddReferenceEv
 00000000:000000710003F290       _ZN2nn2sf6detail39ObjectImplFactoryWithStatelessAllocatorINS0_4cmif6client6detail9CmifProxyINS_7account7profile8IProfileENS4_19CmifDomainProxyKindINS0_4hipc6client38Hipc2ClientSessionManagedProxyKindBaseINSC_18Hipc2ProxyKindBaseILNSB_6detail11MessageTypeE6EEEEEEENS0_25StatelessAllocationPolicyINS0_22ExpHeapStaticAllocatorILm2048ENS7_6detail12ObjectHolder24ObjectHolderAllocatorTagEEEEENS5_19ProcessModifierImplINS4_21DefaultProxyFilterTagEEEvEESQ_E6Object7ReleaseEv
 00000000:000000710003F300       _ZN2nn2sf4cmif6client6detail13CmifProxyImplINS_7account7profile8IProfileENS2_19CmifDomainProxyKindINS0_4hipc6client38Hipc2ClientSessionManagedProxyKindBaseINSA_18Hipc2ProxyKindBaseILNS9_6detail11MessageTypeE6EEEEEEENS0_25StatelessAllocationPolicyINS0_22ExpHeapStaticAllocatorILm2048ENS5_6detail12ObjectHolder24ObjectHolderAllocatorTagEEEEES7_NS3_19ProcessModifierImplINS2_21DefaultProxyFilterTagEEEE12GetProxyInfoEv
 00000000:000000710003F310       _ZN2nn2sf4cmif6client6detail13CmifProxyImplINS_7account7profile8IProfileENS2_19CmifDomainProxyKindINS0_4hipc6client38Hipc2ClientSessionManagedProxyKindBaseINSA_18Hipc2ProxyKindBaseILNS9_6detail11MessageTypeE6EEEEEEENS0_25StatelessAllocationPolicyINS0_22ExpHeapStaticAllocatorILm2048ENS5_6detail12ObjectHolder24ObjectHolderAllocatorTagEEEEES7_NS3_19ProcessModifierImplINS2_21DefaultProxyFilterTagEEEE15_nn_sf_sync_GetENS0_3OutINS6_11ProfileBaseEvEENST_INS6_8UserDataEvEE
 00000000:000000710003F340       _ZN2nn2sf4cmif6client6detail13CmifProxyImplINS_7account7profile8IProfileENS2_19CmifDomainProxyKindINS0_4hipc6client38Hipc2ClientSessionManagedProxyKindBaseINSA_18Hipc2ProxyKindBaseILNS9_6detail11MessageTypeE6EEEEEEENS0_25StatelessAllocationPolicyINS0_22ExpHeapStaticAllocatorILm2048ENS5_6detail12ObjectHolder24ObjectHolderAllocatorTagEEEEES7_NS3_19ProcessModifierImplINS2_21DefaultProxyFilterTagEEEE19_nn_sf_sync_GetBaseENS0_3OutINS6_11ProfileBaseEvEE
 00000000:000000710003F360       _ZN2nn2sf4cmif6client6detail13CmifProxyImplINS_7account7profile8IProfileENS2_19CmifDomainProxyKindINS0_4hipc6client38Hipc2ClientSessionManagedProxyKindBaseINSA_18Hipc2ProxyKindBaseILNS9_6detail11MessageTypeE6EEEEEEENS0_25StatelessAllocationPolicyINS0_22ExpHeapStaticAllocatorILm2048ENS5_6detail12ObjectHolder24ObjectHolderAllocatorTagEEEEES7_NS3_19ProcessModifierImplINS2_21DefaultProxyFilterTagEEEE24_nn_sf_sync_GetImageSizeENS0_3OutIjvEE
 00000000:000000710003F380       _ZN2nn2sf4cmif6client6detail13CmifProxyImplINS_7account7profile8IProfileENS2_19CmifDomainProxyKindINS0_4hipc6client38Hipc2ClientSessionManagedProxyKindBaseINSA_18Hipc2ProxyKindBaseILNS9_6detail11MessageTypeE6EEEEEEENS0_25StatelessAllocationPolicyINS0_22ExpHeapStaticAllocatorILm2048ENS5_6detail12ObjectHolder24ObjectHolderAllocatorTagEEEEES7_NS3_19ProcessModifierImplINS2_21DefaultProxyFilterTagEEEE21_nn_sf_sync_LoadImageENS0_3OutIjvEERKNS0_9OutBufferE
 00000000:000000710003F3B0       _ZN2nn2sf4cmif6client6detail13CmifProxyImplINS_7account7profile8IProfileENS2_19CmifDomainProxyKindINS0_4hipc6client38Hipc2ClientSessionManagedProxyKindBaseINSA_18Hipc2ProxyKindBaseILNS9_6detail11MessageTypeE6EEEEEEENS0_25StatelessAllocationPolicyINS0_22ExpHeapStaticAllocatorILm2048ENS5_6detail12ObjectHolder24ObjectHolderAllocatorTagEEEEES7_NS3_19ProcessModifierImplINS2_21DefaultProxyFilterTagEEEE17GetCmifBaseObjectEv
 00000000:000000710003F3C0       _ZThn32_N2nn2sf4cmif6client6detail13CmifProxyImplINS_7account7profile8IProfileENS2_19CmifDomainProxyKindINS0_4hipc6client38Hipc2ClientSessionManagedProxyKindBaseINSA_18Hipc2ProxyKindBaseILNS9_6detail11MessageTypeE6EEEEEEENS0_25StatelessAllocationPolicyINS0_22ExpHeapStaticAllocatorILm2048ENS5_6detail12ObjectHolder24ObjectHolderAllocatorTagEEEEES7_NS3_19ProcessModifierImplINS2_21DefaultProxyFilterTagEEEE17GetCmifBaseObjectEv
 00000000:000000710003F3D0       _ZN2nn2sf4cmif6client34CmifDomainProxyClientCoreProcessorINS0_4hipc6client38Hipc2ClientSessionManagedProxyKindBaseINS5_18Hipc2ProxyKindBaseILNS4_6detail11MessageTypeE6EEEEENS1_6detail14CoreMethodInfoINSt3__15tupleIJNSC_18OutRawArgumentInfoILm56ELm8ELl0EEENSC_18BufferArgumentInfoILi0ELi26ELm128EEEEEELm0ELm56ELb0EEESK_E7ProcessEPNS2_23CmifDomainClientMessageISB_E15ProxyBaseObjectENS2_24OutRawClientArgumentTypeILm56ELm8EEENS2_24BufferClientArgumentTypeEj
 00000000:000000710003F5F0       _ZN2nn2sf4cmif6client34CmifDomainProxyClientCoreProcessorINS0_4hipc6client38Hipc2ClientSessionManagedProxyKindBaseINS5_18Hipc2ProxyKindBaseILNS4_6detail11MessageTypeE6EEEEENS1_6detail14CoreMethodInfoINSt3__15tupleIJNSC_18OutRawArgumentInfoILm56ELm8ELl0EEEEEELm0ELm56ELb0EEESI_E7ProcessEPNS2_23CmifDomainClientMessageISB_E15ProxyBaseObjectENS2_24OutRawClientArgumentTypeILm56ELm8EEEj
 00000000:000000710003F760       _ZN2nn2sf4cmif6client34CmifDomainProxyClientCoreProcessorINS0_4hipc6client38Hipc2ClientSessionManagedProxyKindBaseINS5_18Hipc2ProxyKindBaseILNS4_6detail11MessageTypeE6EEEEENS1_6detail14CoreMethodInfoINSt3__15tupleIJNSC_18OutRawArgumentInfoILm4ELm4ELl0EEENSC_18BufferArgumentInfoILi0ELi6ELm0EEEEEELm0ELm4ELb0EEESK_E7ProcessEPNS2_23CmifDomainClientMessageISB_E15ProxyBaseObjectENS2_24OutRawClientArgumentTypeILm4ELm4EEENS2_24BufferClientArgumentTypeEj
 00000000:000000710003F980       _ZN2nn2sf4cmif6client34CmifDomainProxyClientCoreProcessorINS0_4hipc6client38Hipc2ClientSessionManagedProxyKindBaseINS5_18Hipc2ProxyKindBaseILNS4_6detail11MessageTypeE6EEEEENS1_6detail14CoreMethodInfoINSt3__15tupleIJNSC_18OutRawArgumentInfoILm16ELm1ELl0EEENSC_17InRawArgumentInfoILm16ELm8ELl0EEEEEELm16ELm16ELb0EEESK_E7ProcessEPNS2_23CmifDomainClientMessageISB_E15ProxyBaseObjectENS2_24OutRawClientArgumentTypeILm16ELm1EEENS2_23InRawClientArgumentTypeILm16ELm8EvEEj
 00000000:000000710003FAE0       _ZN2nn2sf4cmif6client34CmifDomainProxyClientCoreProcessorINS0_4hipc6client38Hipc2ClientSessionManagedProxyKindBaseINS5_18Hipc2ProxyKindBaseILNS4_6detail11MessageTypeE6EEEEENS1_6detail14CoreMethodInfoINSt3__15tupleIJNSC_18OutRawArgumentInfoILm1ELm1ELl0EEENSC_17InRawArgumentInfoILm8ELm8ELl0EEEEEELm8ELm1ELb1EEESK_E7ProcessEPNS2_23CmifDomainClientMessageISB_E15ProxyBaseObjectENS2_24OutRawClientArgumentTypeILm1ELm1EEENS2_23InRawClientArgumentTypeILm8ELm8EvEEj
 00000000:000000710003FC40       _ZN2nn2sf4cmif6client34CmifDomainProxyClientCoreProcessorINS0_4hipc6client38Hipc2ClientSessionManagedProxyKindBaseINS5_18Hipc2ProxyKindBaseILNS4_6detail11MessageTypeE6EEEEENS1_6detail14CoreMethodInfoINSt3__15tupleIJNSC_18OutRawArgumentInfoILm16ELm8ELl0EEENSC_17InRawArgumentInfoILm1ELm1ELl0EEEEEELm1ELm16ELb0EEESK_E7ProcessEPNS2_23CmifDomainClientMessageISB_E15ProxyBaseObjectENS2_24OutRawClientArgumentTypeILm16ELm8EEENS2_23InRawClientArgumentTypeILm1ELm1EvEEj
 00000000:000000710003FDA0       _ZN2nn2sf4cmif6client6detail36GetClientProcessorImplWithObjectBaseINS2_19CmifDomainProxyKindINS0_4hipc6client38Hipc2ClientSessionManagedProxyKindBaseINS7_18Hipc2ProxyKindBaseILNS6_6detail11MessageTypeE6EEEEEEENS3_19ProcessModifierImplINS2_21DefaultProxyFilterTagEEEE14ObjectAssignerINS0_25StatelessAllocationPolicyINS0_22ExpHeapStaticAllocatorILm2048ENS_7account6detail12ObjectHolder24ObjectHolderAllocatorTagEEEEENS0_6detail23StatelessDummyAllocatorEE14AllocateObjectINSN_14ISessionObjectEEEvi
 00000000:000000710003FE60       _ZN2nn2sf6detail39ObjectImplFactoryWithStatelessAllocatorINS0_4cmif6client6detail9CmifProxyINS_7account6detail14ISessionObjectENS4_19CmifDomainProxyKindINS0_4hipc6client38Hipc2ClientSessionManagedProxyKindBaseINSC_18Hipc2ProxyKindBaseILNSB_6detail11MessageTypeE6EEEEEEENS0_25StatelessAllocationPolicyINS0_22ExpHeapStaticAllocatorILm2048ENS8_12ObjectHolder24ObjectHolderAllocatorTagEEEEENS5_19ProcessModifierImplINS4_21DefaultProxyFilterTagEEEvEESP_E6Object12AddReferenceEv
 00000000:000000710003FE70       _ZN2nn2sf6detail39ObjectImplFactoryWithStatelessAllocatorINS0_4cmif6client6detail9CmifProxyINS_7account6detail14ISessionObjectENS4_19CmifDomainProxyKindINS0_4hipc6client38Hipc2ClientSessionManagedProxyKindBaseINSC_18Hipc2ProxyKindBaseILNSB_6detail11MessageTypeE6EEEEEEENS0_25StatelessAllocationPolicyINS0_22ExpHeapStaticAllocatorILm2048ENS8_12ObjectHolder24ObjectHolderAllocatorTagEEEEENS5_19ProcessModifierImplINS4_21DefaultProxyFilterTagEEEvEESP_E6Object7ReleaseEv
 00000000:000000710003FEE0       _ZN2nn2sf4cmif6client6detail13CmifProxyImplINS_7account6detail14ISessionObjectENS2_19CmifDomainProxyKindINS0_4hipc6client38Hipc2ClientSessionManagedProxyKindBaseINSA_18Hipc2ProxyKindBaseILNS9_6detail11MessageTypeE6EEEEEEENS0_25StatelessAllocationPolicyINS0_22ExpHeapStaticAllocatorILm2048ENS6_12ObjectHolder24ObjectHolderAllocatorTagEEEEES7_NS3_19ProcessModifierImplINS2_21DefaultProxyFilterTagEEEE12GetProxyInfoEv
 00000000:000000710003FEF0       _ZN2nn2sf4cmif6client6detail13CmifProxyImplINS_7account6detail14ISessionObjectENS2_19CmifDomainProxyKindINS0_4hipc6client38Hipc2ClientSessionManagedProxyKindBaseINSA_18Hipc2ProxyKindBaseILNS9_6detail11MessageTypeE6EEEEEEENS0_25StatelessAllocationPolicyINS0_22ExpHeapStaticAllocatorILm2048ENS6_12ObjectHolder24ObjectHolderAllocatorTagEEEEES7_NS3_19ProcessModifierImplINS2_21DefaultProxyFilterTagEEEE17_nn_sf_sync_DummyEv
 00000000:000000710003FF10       _ZN2nn2sf4cmif6client6detail13CmifProxyImplINS_7account6detail14ISessionObjectENS2_19CmifDomainProxyKindINS0_4hipc6client38Hipc2ClientSessionManagedProxyKindBaseINSA_18Hipc2ProxyKindBaseILNS9_6detail11MessageTypeE6EEEEEEENS0_25StatelessAllocationPolicyINS0_22ExpHeapStaticAllocatorILm2048ENS6_12ObjectHolder24ObjectHolderAllocatorTagEEEEES7_NS3_19ProcessModifierImplINS2_21DefaultProxyFilterTagEEEE17GetCmifBaseObjectEv
 00000000:000000710003FF20       _ZThn32_N2nn2sf4cmif6client6detail13CmifProxyImplINS_7account6detail14ISessionObjectENS2_19CmifDomainProxyKindINS0_4hipc6client38Hipc2ClientSessionManagedProxyKindBaseINSA_18Hipc2ProxyKindBaseILNS9_6detail11MessageTypeE6EEEEEEENS0_25StatelessAllocationPolicyINS0_22ExpHeapStaticAllocatorILm2048ENS6_12ObjectHolder24ObjectHolderAllocatorTagEEEEES7_NS3_19ProcessModifierImplINS2_21DefaultProxyFilterTagEEEE17GetCmifBaseObjectEv
 00000000:000000710003FF30       _ZN2nn2sf4cmif6client6detail36GetClientProcessorImplWithObjectBaseINS2_19CmifDomainProxyKindINS0_4hipc6client38Hipc2ClientSessionManagedProxyKindBaseINS7_18Hipc2ProxyKindBaseILNS6_6detail11MessageTypeE6EEEEEEENS3_19ProcessModifierImplINS2_21DefaultProxyFilterTagEEEE14ObjectAssignerINS0_25StatelessAllocationPolicyINS0_22ExpHeapStaticAllocatorILm2048ENS_7account6detail12ObjectHolder24ObjectHolderAllocatorTagEEEEENS0_6detail23StatelessDummyAllocatorEE14AllocateObjectINSM_4baas22IManagerForApplicationEEEvi
 00000000:000000710003FFF0       _ZN2nn2sf6detail39ObjectImplFactoryWithStatelessAllocatorINS0_4cmif6client6detail9CmifProxyINS_7account4baas22IManagerForApplicationENS4_19CmifDomainProxyKindINS0_4hipc6client38Hipc2ClientSessionManagedProxyKindBaseINSC_18Hipc2ProxyKindBaseILNSB_6detail11MessageTypeE6EEEEEEENS0_25StatelessAllocationPolicyINS0_22ExpHeapStaticAllocatorILm2048ENS7_6detail12ObjectHolder24ObjectHolderAllocatorTagEEEEENS5_19ProcessModifierImplINS4_21DefaultProxyFilterTagEEEvEESQ_E6Object12AddReferenceEv
 00000000:0000007100040000       _ZN2nn2sf6detail39ObjectImplFactoryWithStatelessAllocatorINS0_4cmif6client6detail9CmifProxyINS_7account4baas22IManagerForApplicationENS4_19CmifDomainProxyKindINS0_4hipc6client38Hipc2ClientSessionManagedProxyKindBaseINSC_18Hipc2ProxyKindBaseILNSB_6detail11MessageTypeE6EEEEEEENS0_25StatelessAllocationPolicyINS0_22ExpHeapStaticAllocatorILm2048ENS7_6detail12ObjectHolder24ObjectHolderAllocatorTagEEEEENS5_19ProcessModifierImplINS4_21DefaultProxyFilterTagEEEvEESQ_E6Object7ReleaseEv
 00000000:0000007100040070       _ZN2nn2sf4cmif6client6detail13CmifProxyImplINS_7account4baas12IManagerBaseENS2_19CmifDomainProxyKindINS0_4hipc6client38Hipc2ClientSessionManagedProxyKindBaseINSA_18Hipc2ProxyKindBaseILNS9_6detail11MessageTypeE6EEEEEEENS0_25StatelessAllocationPolicyINS0_22ExpHeapStaticAllocatorILm2048ENS5_6detail12ObjectHolder24ObjectHolderAllocatorTagEEEEENS6_22IManagerForApplicationENS3_19ProcessModifierImplINS2_21DefaultProxyFilterTagEEEE12GetProxyInfoEv
 00000000:0000007100040080       _ZN2nn2sf4cmif6client6detail13CmifProxyImplINS_7account4baas12IManagerBaseENS2_19CmifDomainProxyKindINS0_4hipc6client38Hipc2ClientSessionManagedProxyKindBaseINSA_18Hipc2ProxyKindBaseILNS9_6detail11MessageTypeE6EEEEEEENS0_25StatelessAllocationPolicyINS0_22ExpHeapStaticAllocatorILm2048ENS5_6detail12ObjectHolder24ObjectHolderAllocatorTagEEEEENS6_22IManagerForApplicationENS3_19ProcessModifierImplINS2_21DefaultProxyFilterTagEEEE29_nn_sf_sync_CheckAvailabilityEv
 00000000:00000071000400A0       _ZN2nn2sf4cmif6client6detail13CmifProxyImplINS_7account4baas12IManagerBaseENS2_19CmifDomainProxyKindINS0_4hipc6client38Hipc2ClientSessionManagedProxyKindBaseINSA_18Hipc2ProxyKindBaseILNS9_6detail11MessageTypeE6EEEEEEENS0_25StatelessAllocationPolicyINS0_22ExpHeapStaticAllocatorILm2048ENS5_6detail12ObjectHolder24ObjectHolderAllocatorTagEEEEENS6_22IManagerForApplicationENS3_19ProcessModifierImplINS2_21DefaultProxyFilterTagEEEE24_nn_sf_sync_GetAccountIdENS0_3OutINS5_23NetworkServiceAccountIdEvEE
 00000000:00000071000400C0       _ZN2nn2sf4cmif6client6detail13CmifProxyImplINS_7account4baas12IManagerBaseENS2_19CmifDomainProxyKindINS0_4hipc6client38Hipc2ClientSessionManagedProxyKindBaseINSA_18Hipc2ProxyKindBaseILNS9_6detail11MessageTypeE6EEEEEEENS0_25StatelessAllocationPolicyINS0_22ExpHeapStaticAllocatorILm2048ENS5_6detail12ObjectHolder24ObjectHolderAllocatorTagEEEEENS6_22IManagerForApplicationENS3_19ProcessModifierImplINS2_21DefaultProxyFilterTagEEEE35_nn_sf_sync_EnsureIdTokenCacheAsyncENS0_3OutINS0_13SharedPointerINSK_13IAsyncContextEEEvEE
 00000000:0000007100040150       _ZN2nn2sf4cmif6client6detail13CmifProxyImplINS_7account4baas12IManagerBaseENS2_19CmifDomainProxyKindINS0_4hipc6client38Hipc2ClientSessionManagedProxyKindBaseINSA_18Hipc2ProxyKindBaseILNS9_6detail11MessageTypeE6EEEEEEENS0_25StatelessAllocationPolicyINS0_22ExpHeapStaticAllocatorILm2048ENS5_6detail12ObjectHolder24ObjectHolderAllocatorTagEEEEENS6_22IManagerForApplicationENS3_19ProcessModifierImplINS2_21DefaultProxyFilterTagEEEE28_nn_sf_sync_LoadIdTokenCacheENS0_3OutIjvEERKNS0_9OutBufferE
 00000000:0000007100040180       _ZN2nn2sf4cmif6client6detail13CmifProxyImplINS_7account4baas22IManagerForApplicationENS2_19CmifDomainProxyKindINS0_4hipc6client38Hipc2ClientSessionManagedProxyKindBaseINSA_18Hipc2ProxyKindBaseILNS9_6detail11MessageTypeE6EEEEEEENS0_25StatelessAllocationPolicyINS0_22ExpHeapStaticAllocatorILm2048ENS5_6detail12ObjectHolder24ObjectHolderAllocatorTagEEEEES7_NS3_19ProcessModifierImplINS2_21DefaultProxyFilterTagEEEE61_nn_sf_sync_GetNintendoAccountUserResourceCacheForApplicationENS0_3OutINS5_17NintendoAccountIdEvEENST_INS5_3nas25NasUserBaseForApplicationEvEERKNS0_9OutBufferE
 00000000:00000071000401B0       _ZN2nn2sf4cmif6client6detail13CmifProxyImplINS_7account4baas22IManagerForApplicationENS2_19CmifDomainProxyKindINS0_4hipc6client38Hipc2ClientSessionManagedProxyKindBaseINSA_18Hipc2ProxyKindBaseILNS9_6detail11MessageTypeE6EEEEEEENS0_25StatelessAllocationPolicyINS0_22ExpHeapStaticAllocatorILm2048ENS5_6detail12ObjectHolder24ObjectHolderAllocatorTagEEEEES7_NS3_19ProcessModifierImplINS2_21DefaultProxyFilterTagEEEE38_nn_sf_sync_CreateAuthorizationRequestENS0_3OutINS0_13SharedPointerINS5_3nas21IAuthorizationRequestEEEvEERKNS5_45NintendoAccountAuthorizationRequestParametersEONS0_12NativeHandleEj
 00000000:0000007100040270       _ZN2nn2sf4cmif6client6detail13CmifProxyImplINS_7account4baas22IManagerForApplicationENS2_19CmifDomainProxyKindINS0_4hipc6client38Hipc2ClientSessionManagedProxyKindBaseINSA_18Hipc2ProxyKindBaseILNS9_6detail11MessageTypeE6EEEEEEENS0_25StatelessAllocationPolicyINS0_22ExpHeapStaticAllocatorILm2048ENS5_6detail12ObjectHolder24ObjectHolderAllocatorTagEEEEES7_NS3_19ProcessModifierImplINS2_21DefaultProxyFilterTagEEEE28_nn_sf_sync_StoreOpenContextEv
 00000000:0000007100040290       _ZN2nn2sf4cmif6client6detail13CmifProxyImplINS_7account4baas22IManagerForApplicationENS2_19CmifDomainProxyKindINS0_4hipc6client38Hipc2ClientSessionManagedProxyKindBaseINSA_18Hipc2ProxyKindBaseILNS9_6detail11MessageTypeE6EEEEEEENS0_25StatelessAllocationPolicyINS0_22ExpHeapStaticAllocatorILm2048ENS5_6detail12ObjectHolder24ObjectHolderAllocatorTagEEEEES7_NS3_19ProcessModifierImplINS2_21DefaultProxyFilterTagEEEE48_nn_sf_sync_EnsureIdTokenCacheForOnlinePlayAsyncENS0_3OutINS0_13SharedPointerINS6_34IAsyncContextForLoginForOnlinePlayEEEvEE
 00000000:0000007100040320       _ZN2nn2sf4cmif6client6detail13CmifProxyImplINS_7account4baas12IManagerBaseENS2_19CmifDomainProxyKindINS0_4hipc6client38Hipc2ClientSessionManagedProxyKindBaseINSA_18Hipc2ProxyKindBaseILNS9_6detail11MessageTypeE6EEEEEEENS0_25StatelessAllocationPolicyINS0_22ExpHeapStaticAllocatorILm2048ENS5_6detail12ObjectHolder24ObjectHolderAllocatorTagEEEEENS6_22IManagerForApplicationENS3_19ProcessModifierImplINS2_21DefaultProxyFilterTagEEEE17GetCmifBaseObjectEv
 00000000:0000007100040330       _ZThn32_N2nn2sf4cmif6client6detail13CmifProxyImplINS_7account4baas12IManagerBaseENS2_19CmifDomainProxyKindINS0_4hipc6client38Hipc2ClientSessionManagedProxyKindBaseINSA_18Hipc2ProxyKindBaseILNS9_6detail11MessageTypeE6EEEEEEENS0_25StatelessAllocationPolicyINS0_22ExpHeapStaticAllocatorILm2048ENS5_6detail12ObjectHolder24ObjectHolderAllocatorTagEEEEENS6_22IManagerForApplicationENS3_19ProcessModifierImplINS2_21DefaultProxyFilterTagEEEE17GetCmifBaseObjectEv
 00000000:0000007100040340       _ZN2nn2sf4cmif6client6detail36GetClientProcessorImplWithObjectBaseINS2_19CmifDomainProxyKindINS0_4hipc6client38Hipc2ClientSessionManagedProxyKindBaseINS7_18Hipc2ProxyKindBaseILNS6_6detail11MessageTypeE6EEEEEEENS3_19ProcessModifierImplINS2_21DefaultProxyFilterTagEEEE14ObjectAssignerINS0_25StatelessAllocationPolicyINS0_22ExpHeapStaticAllocatorILm2048ENS_7account6detail12ObjectHolder24ObjectHolderAllocatorTagEEEEENS0_6detail23StatelessDummyAllocatorEE14AllocateObjectINSN_13IAsyncContextEEEvi
 00000000:0000007100040400       _ZN2nn2sf6detail39ObjectImplFactoryWithStatelessAllocatorINS0_4cmif6client6detail9CmifProxyINS_7account6detail13IAsyncContextENS4_19CmifDomainProxyKindINS0_4hipc6client38Hipc2ClientSessionManagedProxyKindBaseINSC_18Hipc2ProxyKindBaseILNSB_6detail11MessageTypeE6EEEEEEENS0_25StatelessAllocationPolicyINS0_22ExpHeapStaticAllocatorILm2048ENS8_12ObjectHolder24ObjectHolderAllocatorTagEEEEENS5_19ProcessModifierImplINS4_21DefaultProxyFilterTagEEEvEESP_E6Object12AddReferenceEv
 00000000:0000007100040410       _ZN2nn2sf6detail39ObjectImplFactoryWithStatelessAllocatorINS0_4cmif6client6detail9CmifProxyINS_7account6detail13IAsyncContextENS4_19CmifDomainProxyKindINS0_4hipc6client38Hipc2ClientSessionManagedProxyKindBaseINSC_18Hipc2ProxyKindBaseILNSB_6detail11MessageTypeE6EEEEEEENS0_25StatelessAllocationPolicyINS0_22ExpHeapStaticAllocatorILm2048ENS8_12ObjectHolder24ObjectHolderAllocatorTagEEEEENS5_19ProcessModifierImplINS4_21DefaultProxyFilterTagEEEvEESP_E6Object7ReleaseEv
 00000000:0000007100040480       _ZN2nn2sf4cmif6client6detail13CmifProxyImplINS_7account6detail13IAsyncContextENS2_19CmifDomainProxyKindINS0_4hipc6client38Hipc2ClientSessionManagedProxyKindBaseINSA_18Hipc2ProxyKindBaseILNS9_6detail11MessageTypeE6EEEEEEENS0_25StatelessAllocationPolicyINS0_22ExpHeapStaticAllocatorILm2048ENS6_12ObjectHolder24ObjectHolderAllocatorTagEEEEES7_NS3_19ProcessModifierImplINS2_21DefaultProxyFilterTagEEEE12GetProxyInfoEv
 00000000:0000007100040490       _ZN2nn2sf4cmif6client6detail13CmifProxyImplINS_7account6detail13IAsyncContextENS2_19CmifDomainProxyKindINS0_4hipc6client38Hipc2ClientSessionManagedProxyKindBaseINSA_18Hipc2ProxyKindBaseILNS9_6detail11MessageTypeE6EEEEEEENS0_25StatelessAllocationPolicyINS0_22ExpHeapStaticAllocatorILm2048ENS6_12ObjectHolder24ObjectHolderAllocatorTagEEEEES7_NS3_19ProcessModifierImplINS2_21DefaultProxyFilterTagEEEE26_nn_sf_sync_GetSystemEventENS0_3OutINS0_12NativeHandleEvEE
 00000000:00000071000404B0       _ZN2nn2sf4cmif6client6detail13CmifProxyImplINS_7account6detail13IAsyncContextENS2_19CmifDomainProxyKindINS0_4hipc6client38Hipc2ClientSessionManagedProxyKindBaseINSA_18Hipc2ProxyKindBaseILNS9_6detail11MessageTypeE6EEEEEEENS0_25StatelessAllocationPolicyINS0_22ExpHeapStaticAllocatorILm2048ENS6_12ObjectHolder24ObjectHolderAllocatorTagEEEEES7_NS3_19ProcessModifierImplINS2_21DefaultProxyFilterTagEEEE18_nn_sf_sync_CancelEv
 00000000:00000071000404D0       _ZN2nn2sf4cmif6client6detail13CmifProxyImplINS_7account6detail13IAsyncContextENS2_19CmifDomainProxyKindINS0_4hipc6client38Hipc2ClientSessionManagedProxyKindBaseINSA_18Hipc2ProxyKindBaseILNS9_6detail11MessageTypeE6EEEEEEENS0_25StatelessAllocationPolicyINS0_22ExpHeapStaticAllocatorILm2048ENS6_12ObjectHolder24ObjectHolderAllocatorTagEEEEES7_NS3_19ProcessModifierImplINS2_21DefaultProxyFilterTagEEEE19_nn_sf_sync_HasDoneENS0_3OutIbvEE
 00000000:00000071000404F0       _ZN2nn2sf4cmif6client6detail13CmifProxyImplINS_7account6detail13IAsyncContextENS2_19CmifDomainProxyKindINS0_4hipc6client38Hipc2ClientSessionManagedProxyKindBaseINSA_18Hipc2ProxyKindBaseILNS9_6detail11MessageTypeE6EEEEEEENS0_25StatelessAllocationPolicyINS0_22ExpHeapStaticAllocatorILm2048ENS6_12ObjectHolder24ObjectHolderAllocatorTagEEEEES7_NS3_19ProcessModifierImplINS2_21DefaultProxyFilterTagEEEE21_nn_sf_sync_GetResultEv
 00000000:0000007100040510       _ZN2nn2sf4cmif6client6detail13CmifProxyImplINS_7account6detail13IAsyncContextENS2_19CmifDomainProxyKindINS0_4hipc6client38Hipc2ClientSessionManagedProxyKindBaseINSA_18Hipc2ProxyKindBaseILNS9_6detail11MessageTypeE6EEEEEEENS0_25StatelessAllocationPolicyINS0_22ExpHeapStaticAllocatorILm2048ENS6_12ObjectHolder24ObjectHolderAllocatorTagEEEEES7_NS3_19ProcessModifierImplINS2_21DefaultProxyFilterTagEEEE17GetCmifBaseObjectEv
 00000000:0000007100040520       _ZThn32_N2nn2sf4cmif6client6detail13CmifProxyImplINS_7account6detail13IAsyncContextENS2_19CmifDomainProxyKindINS0_4hipc6client38Hipc2ClientSessionManagedProxyKindBaseINSA_18Hipc2ProxyKindBaseILNS9_6detail11MessageTypeE6EEEEEEENS0_25StatelessAllocationPolicyINS0_22ExpHeapStaticAllocatorILm2048ENS6_12ObjectHolder24ObjectHolderAllocatorTagEEEEES7_NS3_19ProcessModifierImplINS2_21DefaultProxyFilterTagEEEE17GetCmifBaseObjectEv
 00000000:0000007100040530       _ZN2nn2sf4cmif6client34CmifDomainProxyClientCoreProcessorINS0_4hipc6client38Hipc2ClientSessionManagedProxyKindBaseINS5_18Hipc2ProxyKindBaseILNS4_6detail11MessageTypeE6EEEEENS1_6detail14CoreMethodInfoINSt3__15tupleIJNSC_18OutRawArgumentInfoILm8ELm8ELl0EEENSC_18BufferArgumentInfoILi0ELi26ELm104EEENSI_ILi1ELi6ELm0EEEEEELm0ELm8ELb0EEESL_E7ProcessEPNS2_23CmifDomainClientMessageISB_E15ProxyBaseObjectENS2_24OutRawClientArgumentTypeILm8ELm8EEENS2_24BufferClientArgumentTypeESU_j
 00000000:0000007100040740       _ZN2nn2sf4cmif6client34CmifDomainProxyClientCoreProcessorINS0_4hipc6client38Hipc2ClientSessionManagedProxyKindBaseINS5_18Hipc2ProxyKindBaseILNS4_6detail11MessageTypeE6EEEEENS1_6detail14CoreMethodInfoINSt3__15tupleIJNSC_21OutObjectArgumentInfoILi0ELi0EEENSC_18BufferArgumentInfoILi0ELi25ELm512EEENSC_20InHandleArgumentInfoILi0ELi1EEENSC_17InRawArgumentInfoILm4ELm4ELl0EEEEEELm4ELm0ELb0EEESO_E21ProcessWithOutObjectsEPNS2_23CmifDomainClientMessageISB_E15ProxyBaseObjectENS2_27OutObjectClientArgumentTypeENS2_24BufferClientArgumentTypeENS2_26InHandleClientArgumentTypeENS2_23InRawClientArgumentTypeILm4ELm4EvEEjPNS0_13SharedPointerINS0_14IServiceObjectEEE
 00000000:0000007100040A00       _ZN2nn2sf4cmif6client6detail36GetClientProcessorImplWithObjectBaseINS2_19CmifDomainProxyKindINS0_4hipc6client38Hipc2ClientSessionManagedProxyKindBaseINS7_18Hipc2ProxyKindBaseILNS6_6detail11MessageTypeE6EEEEEEENS3_19ProcessModifierImplINS2_21DefaultProxyFilterTagEEEE14ObjectAssignerINS0_25StatelessAllocationPolicyINS0_22ExpHeapStaticAllocatorILm2048ENS_7account6detail12ObjectHolder24ObjectHolderAllocatorTagEEEEENS0_6detail23StatelessDummyAllocatorEE14AllocateObjectINSM_3nas21IAuthorizationRequestEEEvi
 00000000:0000007100040AC0       _ZN2nn2sf6detail39ObjectImplFactoryWithStatelessAllocatorINS0_4cmif6client6detail9CmifProxyINS_7account3nas21IAuthorizationRequestENS4_19CmifDomainProxyKindINS0_4hipc6client38Hipc2ClientSessionManagedProxyKindBaseINSC_18Hipc2ProxyKindBaseILNSB_6detail11MessageTypeE6EEEEEEENS0_25StatelessAllocationPolicyINS0_22ExpHeapStaticAllocatorILm2048ENS7_6detail12ObjectHolder24ObjectHolderAllocatorTagEEEEENS5_19ProcessModifierImplINS4_21DefaultProxyFilterTagEEEvEESQ_E6Object12AddReferenceEv
 00000000:0000007100040AD0       _ZN2nn2sf6detail39ObjectImplFactoryWithStatelessAllocatorINS0_4cmif6client6detail9CmifProxyINS_7account3nas21IAuthorizationRequestENS4_19CmifDomainProxyKindINS0_4hipc6client38Hipc2ClientSessionManagedProxyKindBaseINSC_18Hipc2ProxyKindBaseILNSB_6detail11MessageTypeE6EEEEEEENS0_25StatelessAllocationPolicyINS0_22ExpHeapStaticAllocatorILm2048ENS7_6detail12ObjectHolder24ObjectHolderAllocatorTagEEEEENS5_19ProcessModifierImplINS4_21DefaultProxyFilterTagEEEvEESQ_E6Object7ReleaseEv
 00000000:0000007100040B40       _ZN2nn2sf4cmif6client6detail13CmifProxyImplINS_7account3nas21IAuthorizationRequestENS2_19CmifDomainProxyKindINS0_4hipc6client38Hipc2ClientSessionManagedProxyKindBaseINSA_18Hipc2ProxyKindBaseILNS9_6detail11MessageTypeE6EEEEEEENS0_25StatelessAllocationPolicyINS0_22ExpHeapStaticAllocatorILm2048ENS5_6detail12ObjectHolder24ObjectHolderAllocatorTagEEEEES7_NS3_19ProcessModifierImplINS2_21DefaultProxyFilterTagEEEE12GetProxyInfoEv
 00000000:0000007100040B50       _ZN2nn2sf4cmif6client6detail13CmifProxyImplINS_7account3nas21IAuthorizationRequestENS2_19CmifDomainProxyKindINS0_4hipc6client38Hipc2ClientSessionManagedProxyKindBaseINSA_18Hipc2ProxyKindBaseILNS9_6detail11MessageTypeE6EEEEEEENS0_25StatelessAllocationPolicyINS0_22ExpHeapStaticAllocatorILm2048ENS5_6detail12ObjectHolder24ObjectHolderAllocatorTagEEEEES7_NS3_19ProcessModifierImplINS2_21DefaultProxyFilterTagEEEE24_nn_sf_sync_GetSessionIdENS0_3OutINSK_4UuidEvEE
 00000000:0000007100040B70       _ZN2nn2sf4cmif6client6detail13CmifProxyImplINS_7account3nas21IAuthorizationRequestENS2_19CmifDomainProxyKindINS0_4hipc6client38Hipc2ClientSessionManagedProxyKindBaseINSA_18Hipc2ProxyKindBaseILNS9_6detail11MessageTypeE6EEEEEEENS0_25StatelessAllocationPolicyINS0_22ExpHeapStaticAllocatorILm2048ENS5_6detail12ObjectHolder24ObjectHolderAllocatorTagEEEEES7_NS3_19ProcessModifierImplINS2_21DefaultProxyFilterTagEEEE41_nn_sf_sync_InvokeWithoutInteractionAsyncENS0_3OutINS0_13SharedPointerINSK_13IAsyncContextEEEvEE
 00000000:0000007100040C00       _ZN2nn2sf4cmif6client6detail13CmifProxyImplINS_7account3nas21IAuthorizationRequestENS2_19CmifDomainProxyKindINS0_4hipc6client38Hipc2ClientSessionManagedProxyKindBaseINSA_18Hipc2ProxyKindBaseILNS9_6detail11MessageTypeE6EEEEEEENS0_25StatelessAllocationPolicyINS0_22ExpHeapStaticAllocatorILm2048ENS5_6detail12ObjectHolder24ObjectHolderAllocatorTagEEEEES7_NS3_19ProcessModifierImplINS2_21DefaultProxyFilterTagEEEE24_nn_sf_sync_IsAuthorizedENS0_3OutIbvEE
 00000000:0000007100040C20       _ZN2nn2sf4cmif6client6detail13CmifProxyImplINS_7account3nas21IAuthorizationRequestENS2_19CmifDomainProxyKindINS0_4hipc6client38Hipc2ClientSessionManagedProxyKindBaseINSA_18Hipc2ProxyKindBaseILNS9_6detail11MessageTypeE6EEEEEEENS0_25StatelessAllocationPolicyINS0_22ExpHeapStaticAllocatorILm2048ENS5_6detail12ObjectHolder24ObjectHolderAllocatorTagEEEEES7_NS3_19ProcessModifierImplINS2_21DefaultProxyFilterTagEEEE32_nn_sf_sync_GetAuthorizationCodeENS0_3OutIjvEERKNS0_9OutBufferE
 00000000:0000007100040C50       _ZN2nn2sf4cmif6client6detail13CmifProxyImplINS_7account3nas21IAuthorizationRequestENS2_19CmifDomainProxyKindINS0_4hipc6client38Hipc2ClientSessionManagedProxyKindBaseINSA_18Hipc2ProxyKindBaseILNS9_6detail11MessageTypeE6EEEEEEENS0_25StatelessAllocationPolicyINS0_22ExpHeapStaticAllocatorILm2048ENS5_6detail12ObjectHolder24ObjectHolderAllocatorTagEEEEES7_NS3_19ProcessModifierImplINS2_21DefaultProxyFilterTagEEEE22_nn_sf_sync_GetIdTokenENS0_3OutIjvEERKNS0_9OutBufferE
 00000000:0000007100040C80       _ZN2nn2sf4cmif6client6detail13CmifProxyImplINS_7account3nas21IAuthorizationRequestENS2_19CmifDomainProxyKindINS0_4hipc6client38Hipc2ClientSessionManagedProxyKindBaseINSA_18Hipc2ProxyKindBaseILNS9_6detail11MessageTypeE6EEEEEEENS0_25StatelessAllocationPolicyINS0_22ExpHeapStaticAllocatorILm2048ENS5_6detail12ObjectHolder24ObjectHolderAllocatorTagEEEEES7_NS3_19ProcessModifierImplINS2_21DefaultProxyFilterTagEEEE20_nn_sf_sync_GetStateENS0_3OutINS6_5StateEvEE
 00000000:0000007100040CB0       _ZN2nn2sf4cmif6client6detail13CmifProxyImplINS_7account3nas21IAuthorizationRequestENS2_19CmifDomainProxyKindINS0_4hipc6client38Hipc2ClientSessionManagedProxyKindBaseINSA_18Hipc2ProxyKindBaseILNS9_6detail11MessageTypeE6EEEEEEENS0_25StatelessAllocationPolicyINS0_22ExpHeapStaticAllocatorILm2048ENS5_6detail12ObjectHolder24ObjectHolderAllocatorTagEEEEES7_NS3_19ProcessModifierImplINS2_21DefaultProxyFilterTagEEEE17GetCmifBaseObjectEv
 00000000:0000007100040CC0       _ZThn32_N2nn2sf4cmif6client6detail13CmifProxyImplINS_7account3nas21IAuthorizationRequestENS2_19CmifDomainProxyKindINS0_4hipc6client38Hipc2ClientSessionManagedProxyKindBaseINSA_18Hipc2ProxyKindBaseILNS9_6detail11MessageTypeE6EEEEEEENS0_25StatelessAllocationPolicyINS0_22ExpHeapStaticAllocatorILm2048ENS5_6detail12ObjectHolder24ObjectHolderAllocatorTagEEEEES7_NS3_19ProcessModifierImplINS2_21DefaultProxyFilterTagEEEE17GetCmifBaseObjectEv
 00000000:0000007100040CD0       _ZN2nn2sf4cmif6client34CmifDomainProxyClientCoreProcessorINS0_4hipc6client38Hipc2ClientSessionManagedProxyKindBaseINS5_18Hipc2ProxyKindBaseILNS4_6detail11MessageTypeE6EEEEENS1_6detail14CoreMethodInfoINSt3__15tupleIJNSC_18OutRawArgumentInfoILm16ELm4ELl0EEEEEELm0ELm16ELb0EEESI_E7ProcessEPNS2_23CmifDomainClientMessageISB_E15ProxyBaseObjectENS2_24OutRawClientArgumentTypeILm16ELm4EEEj
 00000000:0000007100040E20       _ZN2nn2sf4cmif6client34CmifDomainProxyClientCoreProcessorINS0_4hipc6client38Hipc2ClientSessionManagedProxyKindBaseINS5_18Hipc2ProxyKindBaseILNS4_6detail11MessageTypeE6EEEEENS1_6detail14CoreMethodInfoINSt3__15tupleIJNSC_18BufferArgumentInfoILi0ELi26ELm128EEEEEELm0ELm0ELb0EEESI_E7ProcessEPNS2_23CmifDomainClientMessageISB_E15ProxyBaseObjectENS2_24BufferClientArgumentTypeEj
 00000000:0000007100041010       _ZN2nn2sf4cmif6client6detail36GetClientProcessorImplWithObjectBaseINS2_19CmifDomainProxyKindINS0_4hipc6client38Hipc2ClientSessionManagedProxyKindBaseINS7_18Hipc2ProxyKindBaseILNS6_6detail11MessageTypeE6EEEEEEENS3_19ProcessModifierImplINS2_21DefaultProxyFilterTagEEEE14ObjectAssignerINS0_25StatelessAllocationPolicyINS0_22ExpHeapStaticAllocatorILm2048ENS_7account6detail12ObjectHolder24ObjectHolderAllocatorTagEEEEENS0_6detail23StatelessDummyAllocatorEE14AllocateObjectINSM_4baas34IAsyncContextForLoginForOnlinePlayEEEvi
 00000000:00000071000410D0       _ZN2nn2sf6detail39ObjectImplFactoryWithStatelessAllocatorINS0_4cmif6client6detail9CmifProxyINS_7account4baas34IAsyncContextForLoginForOnlinePlayENS4_19CmifDomainProxyKindINS0_4hipc6client38Hipc2ClientSessionManagedProxyKindBaseINSC_18Hipc2ProxyKindBaseILNSB_6detail11MessageTypeE6EEEEEEENS0_25StatelessAllocationPolicyINS0_22ExpHeapStaticAllocatorILm2048ENS7_6detail12ObjectHolder24ObjectHolderAllocatorTagEEEEENS5_19ProcessModifierImplINS4_21DefaultProxyFilterTagEEEvEESQ_E6Object12AddReferenceEv
 00000000:00000071000410E0       _ZN2nn2sf6detail39ObjectImplFactoryWithStatelessAllocatorINS0_4cmif6client6detail9CmifProxyINS_7account4baas34IAsyncContextForLoginForOnlinePlayENS4_19CmifDomainProxyKindINS0_4hipc6client38Hipc2ClientSessionManagedProxyKindBaseINSC_18Hipc2ProxyKindBaseILNSB_6detail11MessageTypeE6EEEEEEENS0_25StatelessAllocationPolicyINS0_22ExpHeapStaticAllocatorILm2048ENS7_6detail12ObjectHolder24ObjectHolderAllocatorTagEEEEENS5_19ProcessModifierImplINS4_21DefaultProxyFilterTagEEEvEESQ_E6Object7ReleaseEv
 00000000:0000007100041150       _ZN2nn2sf4cmif6client6detail13CmifProxyImplINS_7account6detail13IAsyncContextENS2_19CmifDomainProxyKindINS0_4hipc6client38Hipc2ClientSessionManagedProxyKindBaseINSA_18Hipc2ProxyKindBaseILNS9_6detail11MessageTypeE6EEEEEEENS0_25StatelessAllocationPolicyINS0_22ExpHeapStaticAllocatorILm2048ENS6_12ObjectHolder24ObjectHolderAllocatorTagEEEEENS5_4baas34IAsyncContextForLoginForOnlinePlayENS3_19ProcessModifierImplINS2_21DefaultProxyFilterTagEEEE12GetProxyInfoEv
 00000000:0000007100041160       _ZN2nn2sf4cmif6client6detail13CmifProxyImplINS_7account6detail13IAsyncContextENS2_19CmifDomainProxyKindINS0_4hipc6client38Hipc2ClientSessionManagedProxyKindBaseINSA_18Hipc2ProxyKindBaseILNS9_6detail11MessageTypeE6EEEEEEENS0_25StatelessAllocationPolicyINS0_22ExpHeapStaticAllocatorILm2048ENS6_12ObjectHolder24ObjectHolderAllocatorTagEEEEENS5_4baas34IAsyncContextForLoginForOnlinePlayENS3_19ProcessModifierImplINS2_21DefaultProxyFilterTagEEEE26_nn_sf_sync_GetSystemEventENS0_3OutINS0_12NativeHandleEvEE
 00000000:0000007100041180       _ZN2nn2sf4cmif6client6detail13CmifProxyImplINS_7account6detail13IAsyncContextENS2_19CmifDomainProxyKindINS0_4hipc6client38Hipc2ClientSessionManagedProxyKindBaseINSA_18Hipc2ProxyKindBaseILNS9_6detail11MessageTypeE6EEEEEEENS0_25StatelessAllocationPolicyINS0_22ExpHeapStaticAllocatorILm2048ENS6_12ObjectHolder24ObjectHolderAllocatorTagEEEEENS5_4baas34IAsyncContextForLoginForOnlinePlayENS3_19ProcessModifierImplINS2_21DefaultProxyFilterTagEEEE18_nn_sf_sync_CancelEv
 00000000:00000071000411A0       _ZN2nn2sf4cmif6client6detail13CmifProxyImplINS_7account6detail13IAsyncContextENS2_19CmifDomainProxyKindINS0_4hipc6client38Hipc2ClientSessionManagedProxyKindBaseINSA_18Hipc2ProxyKindBaseILNS9_6detail11MessageTypeE6EEEEEEENS0_25StatelessAllocationPolicyINS0_22ExpHeapStaticAllocatorILm2048ENS6_12ObjectHolder24ObjectHolderAllocatorTagEEEEENS5_4baas34IAsyncContextForLoginForOnlinePlayENS3_19ProcessModifierImplINS2_21DefaultProxyFilterTagEEEE19_nn_sf_sync_HasDoneENS0_3OutIbvEE
 00000000:00000071000411C0       _ZN2nn2sf4cmif6client6detail13CmifProxyImplINS_7account6detail13IAsyncContextENS2_19CmifDomainProxyKindINS0_4hipc6client38Hipc2ClientSessionManagedProxyKindBaseINSA_18Hipc2ProxyKindBaseILNS9_6detail11MessageTypeE6EEEEEEENS0_25StatelessAllocationPolicyINS0_22ExpHeapStaticAllocatorILm2048ENS6_12ObjectHolder24ObjectHolderAllocatorTagEEEEENS5_4baas34IAsyncContextForLoginForOnlinePlayENS3_19ProcessModifierImplINS2_21DefaultProxyFilterTagEEEE21_nn_sf_sync_GetResultEv
 00000000:00000071000411E0       _ZN2nn2sf4cmif6client6detail13CmifProxyImplINS_7account4baas34IAsyncContextForLoginForOnlinePlayENS2_19CmifDomainProxyKindINS0_4hipc6client38Hipc2ClientSessionManagedProxyKindBaseINSA_18Hipc2ProxyKindBaseILNS9_6detail11MessageTypeE6EEEEEEENS0_25StatelessAllocationPolicyINS0_22ExpHeapStaticAllocatorILm2048ENS5_6detail12ObjectHolder24ObjectHolderAllocatorTagEEEEES7_NS3_19ProcessModifierImplINS2_21DefaultProxyFilterTagEEEE53_nn_sf_sync_GetNetworkServiceLicenseInfoForOnlinePlayENS0_3OutIivEE
 00000000:0000007100041200       _ZN2nn2sf4cmif6client6detail13CmifProxyImplINS_7account6detail13IAsyncContextENS2_19CmifDomainProxyKindINS0_4hipc6client38Hipc2ClientSessionManagedProxyKindBaseINSA_18Hipc2ProxyKindBaseILNS9_6detail11MessageTypeE6EEEEEEENS0_25StatelessAllocationPolicyINS0_22ExpHeapStaticAllocatorILm2048ENS6_12ObjectHolder24ObjectHolderAllocatorTagEEEEENS5_4baas34IAsyncContextForLoginForOnlinePlayENS3_19ProcessModifierImplINS2_21DefaultProxyFilterTagEEEE17GetCmifBaseObjectEv
 00000000:0000007100041210       _ZThn32_N2nn2sf4cmif6client6detail13CmifProxyImplINS_7account6detail13IAsyncContextENS2_19CmifDomainProxyKindINS0_4hipc6client38Hipc2ClientSessionManagedProxyKindBaseINSA_18Hipc2ProxyKindBaseILNS9_6detail11MessageTypeE6EEEEEEENS0_25StatelessAllocationPolicyINS0_22ExpHeapStaticAllocatorILm2048ENS6_12ObjectHolder24ObjectHolderAllocatorTagEEEEENS5_4baas34IAsyncContextForLoginForOnlinePlayENS3_19ProcessModifierImplINS2_21DefaultProxyFilterTagEEEE17GetCmifBaseObjectEv
 00000000:0000007100041220       _ZN2nn2sf4cmif6client34CmifDomainProxyClientCoreProcessorINS0_4hipc6client38Hipc2ClientSessionManagedProxyKindBaseINS5_18Hipc2ProxyKindBaseILNS4_6detail11MessageTypeE6EEEEENS1_6detail14CoreMethodInfoINSt3__15tupleIJNSC_17InRawArgumentInfoILm16ELm8ELl0EEENSC_18BufferArgumentInfoILi0ELi5ELm0EEEEEELm16ELm0ELb0EEESK_E7ProcessEPNS2_23CmifDomainClientMessageISB_E15ProxyBaseObjectENS2_23InRawClientArgumentTypeILm16ELm8EvEENS2_24BufferClientArgumentTypeEj
 00000000:0000007100041430       _ZN2nn2sf4cmif6client34CmifDomainProxyClientCoreProcessorINS0_4hipc6client38Hipc2ClientSessionManagedProxyKindBaseINS5_18Hipc2ProxyKindBaseILNS4_6detail11MessageTypeE6EEEEENS1_6detail14CoreMethodInfoINSt3__15tupleIJNSC_21OutObjectArgumentInfoILi0ELi0EEENSC_20InHandleArgumentInfoILi0ELi1EEENSC_17InRawArgumentInfoILm4ELm4ELl0EEEEEELm4ELm0ELb0EEESM_E21ProcessWithOutObjectsEPNS2_23CmifDomainClientMessageISB_E15ProxyBaseObjectENS2_27OutObjectClientArgumentTypeENS2_26InHandleClientArgumentTypeENS2_23InRawClientArgumentTypeILm4ELm4EvEEjPNS0_13SharedPointerINS0_14IServiceObjectEEE
 00000000:0000007100041650       _ZN2nn2sf4cmif6client6detail36GetClientProcessorImplWithObjectBaseINS2_19CmifDomainProxyKindINS0_4hipc6client38Hipc2ClientSessionManagedProxyKindBaseINS7_18Hipc2ProxyKindBaseILNS6_6detail11MessageTypeE6EEEEEEENS3_19ProcessModifierImplINS2_21DefaultProxyFilterTagEEEE14ObjectAssignerINS0_25StatelessAllocationPolicyINS0_22ExpHeapStaticAllocatorILm2048ENS_7account6detail12ObjectHolder24ObjectHolderAllocatorTagEEEEENS0_6detail23StatelessDummyAllocatorEE14AllocateObjectINSM_4baas18IGuestLoginRequestEEEvi
 00000000:0000007100041710       _ZN2nn2sf6detail39ObjectImplFactoryWithStatelessAllocatorINS0_4cmif6client6detail9CmifProxyINS_7account4baas18IGuestLoginRequestENS4_19CmifDomainProxyKindINS0_4hipc6client38Hipc2ClientSessionManagedProxyKindBaseINSC_18Hipc2ProxyKindBaseILNSB_6detail11MessageTypeE6EEEEEEENS0_25StatelessAllocationPolicyINS0_22ExpHeapStaticAllocatorILm2048ENS7_6detail12ObjectHolder24ObjectHolderAllocatorTagEEEEENS5_19ProcessModifierImplINS4_21DefaultProxyFilterTagEEEvEESQ_E6Object12AddReferenceEv
 00000000:0000007100041720       _ZN2nn2sf6detail39ObjectImplFactoryWithStatelessAllocatorINS0_4cmif6client6detail9CmifProxyINS_7account4baas18IGuestLoginRequestENS4_19CmifDomainProxyKindINS0_4hipc6client38Hipc2ClientSessionManagedProxyKindBaseINSC_18Hipc2ProxyKindBaseILNSB_6detail11MessageTypeE6EEEEEEENS0_25StatelessAllocationPolicyINS0_22ExpHeapStaticAllocatorILm2048ENS7_6detail12ObjectHolder24ObjectHolderAllocatorTagEEEEENS5_19ProcessModifierImplINS4_21DefaultProxyFilterTagEEEvEESQ_E6Object7ReleaseEv
 00000000:0000007100041790       _ZN2nn2sf4cmif6client6detail13CmifProxyImplINS_7account4baas18IGuestLoginRequestENS2_19CmifDomainProxyKindINS0_4hipc6client38Hipc2ClientSessionManagedProxyKindBaseINSA_18Hipc2ProxyKindBaseILNS9_6detail11MessageTypeE6EEEEEEENS0_25StatelessAllocationPolicyINS0_22ExpHeapStaticAllocatorILm2048ENS5_6detail12ObjectHolder24ObjectHolderAllocatorTagEEEEES7_NS3_19ProcessModifierImplINS2_21DefaultProxyFilterTagEEEE12GetProxyInfoEv
 00000000:00000071000417A0       _ZN2nn2sf4cmif6client6detail13CmifProxyImplINS_7account4baas18IGuestLoginRequestENS2_19CmifDomainProxyKindINS0_4hipc6client38Hipc2ClientSessionManagedProxyKindBaseINSA_18Hipc2ProxyKindBaseILNS9_6detail11MessageTypeE6EEEEEEENS0_25StatelessAllocationPolicyINS0_22ExpHeapStaticAllocatorILm2048ENS5_6detail12ObjectHolder24ObjectHolderAllocatorTagEEEEES7_NS3_19ProcessModifierImplINS2_21DefaultProxyFilterTagEEEE24_nn_sf_sync_GetSessionIdENS0_3OutINSK_4UuidEvEE
 00000000:00000071000417C0       _ZN2nn2sf4cmif6client6detail13CmifProxyImplINS_7account4baas18IGuestLoginRequestENS2_19CmifDomainProxyKindINS0_4hipc6client38Hipc2ClientSessionManagedProxyKindBaseINSA_18Hipc2ProxyKindBaseILNS9_6detail11MessageTypeE6EEEEEEENS0_25StatelessAllocationPolicyINS0_22ExpHeapStaticAllocatorILm2048ENS5_6detail12ObjectHolder24ObjectHolderAllocatorTagEEEEES7_NS3_19ProcessModifierImplINS2_21DefaultProxyFilterTagEEEE24_nn_sf_sync_GetAccountIdENS0_3OutINS5_23NetworkServiceAccountIdEvEE
 00000000:00000071000417E0       _ZN2nn2sf4cmif6client6detail13CmifProxyImplINS_7account4baas18IGuestLoginRequestENS2_19CmifDomainProxyKindINS0_4hipc6client38Hipc2ClientSessionManagedProxyKindBaseINSA_18Hipc2ProxyKindBaseILNS9_6detail11MessageTypeE6EEEEEEENS0_25StatelessAllocationPolicyINS0_22ExpHeapStaticAllocatorILm2048ENS5_6detail12ObjectHolder24ObjectHolderAllocatorTagEEEEES7_NS3_19ProcessModifierImplINS2_21DefaultProxyFilterTagEEEE38_nn_sf_sync_GetLinkedNintendoAccountIdENS0_3OutINS5_17NintendoAccountIdEvEE
 00000000:0000007100041800       _ZN2nn2sf4cmif6client6detail13CmifProxyImplINS_7account4baas18IGuestLoginRequestENS2_19CmifDomainProxyKindINS0_4hipc6client38Hipc2ClientSessionManagedProxyKindBaseINSA_18Hipc2ProxyKindBaseILNS9_6detail11MessageTypeE6EEEEEEENS0_25StatelessAllocationPolicyINS0_22ExpHeapStaticAllocatorILm2048ENS5_6detail12ObjectHolder24ObjectHolderAllocatorTagEEEEES7_NS3_19ProcessModifierImplINS2_21DefaultProxyFilterTagEEEE23_nn_sf_sync_GetNicknameERKNS0_8OutArrayIcEE
 00000000:0000007100041830       _ZN2nn2sf4cmif6client6detail13CmifProxyImplINS_7account4baas18IGuestLoginRequestENS2_19CmifDomainProxyKindINS0_4hipc6client38Hipc2ClientSessionManagedProxyKindBaseINSA_18Hipc2ProxyKindBaseILNS9_6detail11MessageTypeE6EEEEEEENS0_25StatelessAllocationPolicyINS0_22ExpHeapStaticAllocatorILm2048ENS5_6detail12ObjectHolder24ObjectHolderAllocatorTagEEEEES7_NS3_19ProcessModifierImplINS2_21DefaultProxyFilterTagEEEE27_nn_sf_sync_GetProfileImageENS0_3OutIjvEERKNS0_9OutBufferE
 00000000:0000007100041860       _ZN2nn2sf4cmif6client6detail13CmifProxyImplINS_7account4baas18IGuestLoginRequestENS2_19CmifDomainProxyKindINS0_4hipc6client38Hipc2ClientSessionManagedProxyKindBaseINSA_18Hipc2ProxyKindBaseILNS9_6detail11MessageTypeE6EEEEEEENS0_25StatelessAllocationPolicyINS0_22ExpHeapStaticAllocatorILm2048ENS5_6detail12ObjectHolder24ObjectHolderAllocatorTagEEEEES7_NS3_19ProcessModifierImplINS2_21DefaultProxyFilterTagEEEE28_nn_sf_sync_LoadIdTokenCacheENS0_3OutIjvEERKNS0_9OutBufferE
 00000000:0000007100041890       _ZN2nn2sf4cmif6client6detail13CmifProxyImplINS_7account4baas18IGuestLoginRequestENS2_19CmifDomainProxyKindINS0_4hipc6client38Hipc2ClientSessionManagedProxyKindBaseINSA_18Hipc2ProxyKindBaseILNS9_6detail11MessageTypeE6EEEEEEENS0_25StatelessAllocationPolicyINS0_22ExpHeapStaticAllocatorILm2048ENS5_6detail12ObjectHolder24ObjectHolderAllocatorTagEEEEES7_NS3_19ProcessModifierImplINS2_21DefaultProxyFilterTagEEEE17GetCmifBaseObjectEv
 00000000:00000071000418A0       _ZThn32_N2nn2sf4cmif6client6detail13CmifProxyImplINS_7account4baas18IGuestLoginRequestENS2_19CmifDomainProxyKindINS0_4hipc6client38Hipc2ClientSessionManagedProxyKindBaseINSA_18Hipc2ProxyKindBaseILNS9_6detail11MessageTypeE6EEEEEEENS0_25StatelessAllocationPolicyINS0_22ExpHeapStaticAllocatorILm2048ENS5_6detail12ObjectHolder24ObjectHolderAllocatorTagEEEEES7_NS3_19ProcessModifierImplINS2_21DefaultProxyFilterTagEEEE17GetCmifBaseObjectEv
 00000000:00000071000418B0       _ZN2nn7account6detail12ObjectHolder11AcquireImplINS0_31IAccountServiceForSystemServiceEEENS_6ResultEPPT_PKc
 00000000:00000071000419B0       _ZN2nn2sf4hipc6client34HipcSimpleClientSessionManagerBaseINS2_29DefaultSessionResourceManagerEE4Impl18InitializeByHandleINS_7account31IAccountServiceForSystemServiceENS0_25StatelessAllocationPolicyINS0_22ExpHeapStaticAllocatorILm2048ENS8_6detail12ObjectHolder24ObjectHolderAllocatorTagEEEEENS0_4cmif6client6detail19ProcessModifierImplINSI_21DefaultProxyFilterTagEEEEENS_6ResultEPNS0_13SharedPointerIT_EENS_3svc6HandleE
 00000000:0000007100041AD0       _ZN2nn2sf6detail39ObjectImplFactoryWithStatelessAllocatorINS0_4cmif6client6detail9CmifProxyINS_7account31IAccountServiceForSystemServiceENS4_19CmifDomainProxyKindINS0_4hipc6client38Hipc2ClientSessionManagedProxyKindBaseINSB_18Hipc2ProxyKindBaseILNSA_6detail11MessageTypeE6EEEEEEENS0_25StatelessAllocationPolicyINS0_22ExpHeapStaticAllocatorILm2048ENS7_6detail12ObjectHolder24ObjectHolderAllocatorTagEEEEENS5_19ProcessModifierImplINS4_21DefaultProxyFilterTagEEEvEESP_E6Object12AddReferenceEv
 00000000:0000007100041AE0       _ZN2nn2sf6detail39ObjectImplFactoryWithStatelessAllocatorINS0_4cmif6client6detail9CmifProxyINS_7account31IAccountServiceForSystemServiceENS4_19CmifDomainProxyKindINS0_4hipc6client38Hipc2ClientSessionManagedProxyKindBaseINSB_18Hipc2ProxyKindBaseILNSA_6detail11MessageTypeE6EEEEEEENS0_25StatelessAllocationPolicyINS0_22ExpHeapStaticAllocatorILm2048ENS7_6detail12ObjectHolder24ObjectHolderAllocatorTagEEEEENS5_19ProcessModifierImplINS4_21DefaultProxyFilterTagEEEvEESP_E6Object7ReleaseEv
 00000000:0000007100041B50       _ZN2nn2sf4cmif6client6detail13CmifProxyImplINS_7account19IAccountServiceBaseENS2_19CmifDomainProxyKindINS0_4hipc6client38Hipc2ClientSessionManagedProxyKindBaseINS9_18Hipc2ProxyKindBaseILNS8_6detail11MessageTypeE6EEEEEEENS0_25StatelessAllocationPolicyINS0_22ExpHeapStaticAllocatorILm2048ENS5_6detail12ObjectHolder24ObjectHolderAllocatorTagEEEEENS5_31IAccountServiceForSystemServiceENS3_19ProcessModifierImplINS2_21DefaultProxyFilterTagEEEE12GetProxyInfoEv
 00000000:0000007100041B60       _ZN2nn2sf4cmif6client6detail13CmifProxyImplINS_7account19IAccountServiceBaseENS2_19CmifDomainProxyKindINS0_4hipc6client38Hipc2ClientSessionManagedProxyKindBaseINS9_18Hipc2ProxyKindBaseILNS8_6detail11MessageTypeE6EEEEEEENS0_25StatelessAllocationPolicyINS0_22ExpHeapStaticAllocatorILm2048ENS5_6detail12ObjectHolder24ObjectHolderAllocatorTagEEEEENS5_31IAccountServiceForSystemServiceENS3_19ProcessModifierImplINS2_21DefaultProxyFilterTagEEEE24_nn_sf_sync_GetUserCountENS0_3OutIivEE
 00000000:0000007100041B80       _ZN2nn2sf4cmif6client6detail13CmifProxyImplINS_7account19IAccountServiceBaseENS2_19CmifDomainProxyKindINS0_4hipc6client38Hipc2ClientSessionManagedProxyKindBaseINS9_18Hipc2ProxyKindBaseILNS8_6detail11MessageTypeE6EEEEEEENS0_25StatelessAllocationPolicyINS0_22ExpHeapStaticAllocatorILm2048ENS5_6detail12ObjectHolder24ObjectHolderAllocatorTagEEEEENS5_31IAccountServiceForSystemServiceENS3_19ProcessModifierImplINS2_21DefaultProxyFilterTagEEEE28_nn_sf_sync_GetUserExistenceENS0_3OutIbvEERKNS5_3UidE
 00000000:0000007100041BA0       _ZN2nn2sf4cmif6client6detail13CmifProxyImplINS_7account19IAccountServiceBaseENS2_19CmifDomainProxyKindINS0_4hipc6client38Hipc2ClientSessionManagedProxyKindBaseINS9_18Hipc2ProxyKindBaseILNS8_6detail11MessageTypeE6EEEEEEENS0_25StatelessAllocationPolicyINS0_22ExpHeapStaticAllocatorILm2048ENS5_6detail12ObjectHolder24ObjectHolderAllocatorTagEEEEENS5_31IAccountServiceForSystemServiceENS3_19ProcessModifierImplINS2_21DefaultProxyFilterTagEEEE24_nn_sf_sync_ListAllUsersERKNS0_8OutArrayINS5_3UidEEE
 00000000:0000007100041BD0       _ZN2nn2sf4cmif6client6detail13CmifProxyImplINS_7account19IAccountServiceBaseENS2_19CmifDomainProxyKindINS0_4hipc6client38Hipc2ClientSessionManagedProxyKindBaseINS9_18Hipc2ProxyKindBaseILNS8_6detail11MessageTypeE6EEEEEEENS0_25StatelessAllocationPolicyINS0_22ExpHeapStaticAllocatorILm2048ENS5_6detail12ObjectHolder24ObjectHolderAllocatorTagEEEEENS5_31IAccountServiceForSystemServiceENS3_19ProcessModifierImplINS2_21DefaultProxyFilterTagEEEE25_nn_sf_sync_ListOpenUsersERKNS0_8OutArrayINS5_3UidEEE
 00000000:0000007100041C00       _ZN2nn2sf4cmif6client6detail13CmifProxyImplINS_7account19IAccountServiceBaseENS2_19CmifDomainProxyKindINS0_4hipc6client38Hipc2ClientSessionManagedProxyKindBaseINS9_18Hipc2ProxyKindBaseILNS8_6detail11MessageTypeE6EEEEEEENS0_25StatelessAllocationPolicyINS0_22ExpHeapStaticAllocatorILm2048ENS5_6detail12ObjectHolder24ObjectHolderAllocatorTagEEEEENS5_31IAccountServiceForSystemServiceENS3_19ProcessModifierImplINS2_21DefaultProxyFilterTagEEEE29_nn_sf_sync_GetLastOpenedUserENS0_3OutINS5_3UidEvEE
 00000000:0000007100041C20       _ZN2nn2sf4cmif6client6detail13CmifProxyImplINS_7account19IAccountServiceBaseENS2_19CmifDomainProxyKindINS0_4hipc6client38Hipc2ClientSessionManagedProxyKindBaseINS9_18Hipc2ProxyKindBaseILNS8_6detail11MessageTypeE6EEEEEEENS0_25StatelessAllocationPolicyINS0_22ExpHeapStaticAllocatorILm2048ENS5_6detail12ObjectHolder24ObjectHolderAllocatorTagEEEEENS5_31IAccountServiceForSystemServiceENS3_19ProcessModifierImplINS2_21DefaultProxyFilterTagEEEE22_nn_sf_sync_GetProfileENS0_3OutINS0_13SharedPointerINS5_7profile8IProfileEEEvEERKNS5_3UidE
 00000000:0000007100041CC0       _ZN2nn2sf4cmif6client6detail13CmifProxyImplINS_7account19IAccountServiceBaseENS2_19CmifDomainProxyKindINS0_4hipc6client38Hipc2ClientSessionManagedProxyKindBaseINS9_18Hipc2ProxyKindBaseILNS8_6detail11MessageTypeE6EEEEEEENS0_25StatelessAllocationPolicyINS0_22ExpHeapStaticAllocatorILm2048ENS5_6detail12ObjectHolder24ObjectHolderAllocatorTagEEEEENS5_31IAccountServiceForSystemServiceENS3_19ProcessModifierImplINS2_21DefaultProxyFilterTagEEEE28_nn_sf_sync_GetProfileDigestENS0_3OutINS5_13ProfileDigestEvEERKNS5_3UidE
 00000000:0000007100041CE0       _ZN2nn2sf4cmif6client6detail13CmifProxyImplINS_7account19IAccountServiceBaseENS2_19CmifDomainProxyKindINS0_4hipc6client38Hipc2ClientSessionManagedProxyKindBaseINS9_18Hipc2ProxyKindBaseILNS8_6detail11MessageTypeE6EEEEEEENS0_25StatelessAllocationPolicyINS0_22ExpHeapStaticAllocatorILm2048ENS5_6detail12ObjectHolder24ObjectHolderAllocatorTagEEEEENS5_31IAccountServiceForSystemServiceENS3_19ProcessModifierImplINS2_21DefaultProxyFilterTagEEEE46_nn_sf_sync_IsUserRegistrationRequestPermittedENS0_3OutIbvEEm
 00000000:0000007100041D00       _ZN2nn2sf4cmif6client6detail13CmifProxyImplINS_7account19IAccountServiceBaseENS2_19CmifDomainProxyKindINS0_4hipc6client38Hipc2ClientSessionManagedProxyKindBaseINS9_18Hipc2ProxyKindBaseILNS8_6detail11MessageTypeE6EEEEEEENS0_25StatelessAllocationPolicyINS0_22ExpHeapStaticAllocatorILm2048ENS5_6detail12ObjectHolder24ObjectHolderAllocatorTagEEEEENS5_31IAccountServiceForSystemServiceENS3_19ProcessModifierImplINS2_21DefaultProxyFilterTagEEEE43_nn_sf_sync_TrySelectUserWithoutInteractionENS0_3OutINS5_3UidEvEEb
 00000000:0000007100041D30       _ZN2nn2sf4cmif6client6detail13CmifProxyImplINS_7account19IAccountServiceBaseENS2_19CmifDomainProxyKindINS0_4hipc6client38Hipc2ClientSessionManagedProxyKindBaseINS9_18Hipc2ProxyKindBaseILNS8_6detail11MessageTypeE6EEEEEEENS0_25StatelessAllocationPolicyINS0_22ExpHeapStaticAllocatorILm2048ENS5_6detail12ObjectHolder24ObjectHolderAllocatorTagEEEEENS5_31IAccountServiceForSystemServiceENS3_19ProcessModifierImplINS2_21DefaultProxyFilterTagEEEE45_nn_sf_sync_DebugActivateOpenContextRetentionENS0_3OutINS0_13SharedPointerINSJ_14ISessionObjectEEEvEE
 00000000:0000007100041DC0       _ZN2nn2sf4cmif6client6detail13CmifProxyImplINS_7account31IAccountServiceForSystemServiceENS2_19CmifDomainProxyKindINS0_4hipc6client38Hipc2ClientSessionManagedProxyKindBaseINS9_18Hipc2ProxyKindBaseILNS8_6detail11MessageTypeE6EEEEEEENS0_25StatelessAllocationPolicyINS0_22ExpHeapStaticAllocatorILm2048ENS5_6detail12ObjectHolder24ObjectHolderAllocatorTagEEEEES6_NS3_19ProcessModifierImplINS2_21DefaultProxyFilterTagEEEE39_nn_sf_sync_GetUserRegistrationNotifierENS0_3OutINS0_13SharedPointerINSJ_9INotifierEEEvEE
 00000000:0000007100041E50       _ZN2nn2sf4cmif6client6detail13CmifProxyImplINS_7account31IAccountServiceForSystemServiceENS2_19CmifDomainProxyKindINS0_4hipc6client38Hipc2ClientSessionManagedProxyKindBaseINS9_18Hipc2ProxyKindBaseILNS8_6detail11MessageTypeE6EEEEEEENS0_25StatelessAllocationPolicyINS0_22ExpHeapStaticAllocatorILm2048ENS5_6detail12ObjectHolder24ObjectHolderAllocatorTagEEEEES6_NS3_19ProcessModifierImplINS2_21DefaultProxyFilterTagEEEE38_nn_sf_sync_GetUserStateChangeNotifierENS0_3OutINS0_13SharedPointerINSJ_9INotifierEEEvEE
 00000000:0000007100041EE0       _ZN2nn2sf4cmif6client6detail13CmifProxyImplINS_7account31IAccountServiceForSystemServiceENS2_19CmifDomainProxyKindINS0_4hipc6client38Hipc2ClientSessionManagedProxyKindBaseINS9_18Hipc2ProxyKindBaseILNS8_6detail11MessageTypeE6EEEEEEENS0_25StatelessAllocationPolicyINS0_22ExpHeapStaticAllocatorILm2048ENS5_6detail12ObjectHolder24ObjectHolderAllocatorTagEEEEES6_NS3_19ProcessModifierImplINS2_21DefaultProxyFilterTagEEEE49_nn_sf_sync_GetBaasAccountManagerForSystemServiceENS0_3OutINS0_13SharedPointerINS5_4baas24IManagerForSystemServiceEEEvEERKNS5_3UidE
 00000000:0000007100041F80       _ZN2nn2sf4cmif6client6detail13CmifProxyImplINS_7account31IAccountServiceForSystemServiceENS2_19CmifDomainProxyKindINS0_4hipc6client38Hipc2ClientSessionManagedProxyKindBaseINS9_18Hipc2ProxyKindBaseILNS8_6detail11MessageTypeE6EEEEEEENS0_25StatelessAllocationPolicyINS0_22ExpHeapStaticAllocatorILm2048ENS5_6detail12ObjectHolder24ObjectHolderAllocatorTagEEEEES6_NS3_19ProcessModifierImplINS2_21DefaultProxyFilterTagEEEE49_nn_sf_sync_GetBaasUserAvailabilityChangeNotifierENS0_3OutINS0_13SharedPointerINSJ_9INotifierEEEvEE
 00000000:0000007100042010       _ZN2nn2sf4cmif6client6detail13CmifProxyImplINS_7account31IAccountServiceForSystemServiceENS2_19CmifDomainProxyKindINS0_4hipc6client38Hipc2ClientSessionManagedProxyKindBaseINS9_18Hipc2ProxyKindBaseILNS8_6detail11MessageTypeE6EEEEEEENS0_25StatelessAllocationPolicyINS0_22ExpHeapStaticAllocatorILm2048ENS5_6detail12ObjectHolder24ObjectHolderAllocatorTagEEEEES6_NS3_19ProcessModifierImplINS2_21DefaultProxyFilterTagEEEE36_nn_sf_sync_GetProfileUpdateNotifierENS0_3OutINS0_13SharedPointerINSJ_9INotifierEEEvEE
 00000000:00000071000420A0       _ZN2nn2sf4cmif6client6detail13CmifProxyImplINS_7account31IAccountServiceForSystemServiceENS2_19CmifDomainProxyKindINS0_4hipc6client38Hipc2ClientSessionManagedProxyKindBaseINS9_18Hipc2ProxyKindBaseILNS8_6detail11MessageTypeE6EEEEEEENS0_25StatelessAllocationPolicyINS0_22ExpHeapStaticAllocatorILm2048ENS5_6detail12ObjectHolder24ObjectHolderAllocatorTagEEEEES6_NS3_19ProcessModifierImplINS2_21DefaultProxyFilterTagEEEE48_nn_sf_sync_CheckNetworkServiceAvailabilityAsyncENS0_3OutINS0_13SharedPointerINSJ_13IAsyncContextEEEvEERKNS5_27SystemProgramIdentificationEm
 00000000:0000007100042150       _ZN2nn2sf4cmif6client6detail13CmifProxyImplINS_7account31IAccountServiceForSystemServiceENS2_19CmifDomainProxyKindINS0_4hipc6client38Hipc2ClientSessionManagedProxyKindBaseINS9_18Hipc2ProxyKindBaseILNS8_6detail11MessageTypeE6EEEEEEENS0_25StatelessAllocationPolicyINS0_22ExpHeapStaticAllocatorILm2048ENS5_6detail12ObjectHolder24ObjectHolderAllocatorTagEEEEES6_NS3_19ProcessModifierImplINS2_21DefaultProxyFilterTagEEEE34_nn_sf_sync_StoreSaveDataThumbnailERKNS5_3UidENS_13ApplicationIdERKNS0_8InBufferE
 00000000:0000007100042180       _ZN2nn2sf4cmif6client6detail13CmifProxyImplINS_7account31IAccountServiceForSystemServiceENS2_19CmifDomainProxyKindINS0_4hipc6client38Hipc2ClientSessionManagedProxyKindBaseINS9_18Hipc2ProxyKindBaseILNS8_6detail11MessageTypeE6EEEEEEENS0_25StatelessAllocationPolicyINS0_22ExpHeapStaticAllocatorILm2048ENS5_6detail12ObjectHolder24ObjectHolderAllocatorTagEEEEES6_NS3_19ProcessModifierImplINS2_21DefaultProxyFilterTagEEEE34_nn_sf_sync_ClearSaveDataThumbnailERKNS5_3UidENS_13ApplicationIdE
 00000000:00000071000421A0       _ZN2nn2sf4cmif6client6detail13CmifProxyImplINS_7account31IAccountServiceForSystemServiceENS2_19CmifDomainProxyKindINS0_4hipc6client38Hipc2ClientSessionManagedProxyKindBaseINS9_18Hipc2ProxyKindBaseILNS8_6detail11MessageTypeE6EEEEEEENS0_25StatelessAllocationPolicyINS0_22ExpHeapStaticAllocatorILm2048ENS5_6detail12ObjectHolder24ObjectHolderAllocatorTagEEEEES6_NS3_19ProcessModifierImplINS2_21DefaultProxyFilterTagEEEE33_nn_sf_sync_LoadSaveDataThumbnailENS0_3OutIjvEERKNS0_9OutBufferERKNS5_3UidENS_13ApplicationIdE
 00000000:00000071000421D0       _ZN2nn2sf4cmif6client6detail13CmifProxyImplINS_7account31IAccountServiceForSystemServiceENS2_19CmifDomainProxyKindINS0_4hipc6client38Hipc2ClientSessionManagedProxyKindBaseINS9_18Hipc2ProxyKindBaseILNS8_6detail11MessageTypeE6EEEEEEENS0_25StatelessAllocationPolicyINS0_22ExpHeapStaticAllocatorILm2048ENS5_6detail12ObjectHolder24ObjectHolderAllocatorTagEEEEES6_NS3_19ProcessModifierImplINS2_21DefaultProxyFilterTagEEEE41_nn_sf_sync_GetSaveDataThumbnailExistenceENS0_3OutIbvEERKNS5_3UidENS_13ApplicationIdE
 00000000:00000071000421F0       _ZN2nn2sf4cmif6client6detail13CmifProxyImplINS_7account31IAccountServiceForSystemServiceENS2_19CmifDomainProxyKindINS0_4hipc6client38Hipc2ClientSessionManagedProxyKindBaseINS9_18Hipc2ProxyKindBaseILNS8_6detail11MessageTypeE6EEEEEEENS0_25StatelessAllocationPolicyINS0_22ExpHeapStaticAllocatorILm2048ENS5_6detail12ObjectHolder24ObjectHolderAllocatorTagEEEEES6_NS3_19ProcessModifierImplINS2_21DefaultProxyFilterTagEEEE40_nn_sf_sync_ActivateOpenContextRetentionENS0_3OutINS0_13SharedPointerINSJ_14ISessionObjectEEEvEENS_13ApplicationIdE
 00000000:0000007100042290       _ZN2nn2sf4cmif6client6detail13CmifProxyImplINS_7account31IAccountServiceForSystemServiceENS2_19CmifDomainProxyKindINS0_4hipc6client38Hipc2ClientSessionManagedProxyKindBaseINS9_18Hipc2ProxyKindBaseILNS8_6detail11MessageTypeE6EEEEEEENS0_25StatelessAllocationPolicyINS0_22ExpHeapStaticAllocatorILm2048ENS5_6detail12ObjectHolder24ObjectHolderAllocatorTagEEEEES6_NS3_19ProcessModifierImplINS2_21DefaultProxyFilterTagEEEE30_nn_sf_sync_ListQualifiedUsersERKNS0_8OutArrayINS5_3UidEEENS_13ApplicationIdE
 00000000:00000071000422C0       _ZN2nn2sf4cmif6client6detail13CmifProxyImplINS_7account31IAccountServiceForSystemServiceENS2_19CmifDomainProxyKindINS0_4hipc6client38Hipc2ClientSessionManagedProxyKindBaseINS9_18Hipc2ProxyKindBaseILNS8_6detail11MessageTypeE6EEEEEEENS0_25StatelessAllocationPolicyINS0_22ExpHeapStaticAllocatorILm2048ENS5_6detail12ObjectHolder24ObjectHolderAllocatorTagEEEEES6_NS3_19ProcessModifierImplINS2_21DefaultProxyFilterTagEEEE40_nn_sf_sync_GetUserLastOpenedApplicationENS0_3OutINS_13ApplicationIdEvEENSS_IjvEERKNS5_3UidE
 00000000:00000071000422E0       _ZN2nn2sf4cmif6client6detail13CmifProxyImplINS_7account31IAccountServiceForSystemServiceENS2_19CmifDomainProxyKindINS0_4hipc6client38Hipc2ClientSessionManagedProxyKindBaseINS9_18Hipc2ProxyKindBaseILNS8_6detail11MessageTypeE6EEEEEEENS0_25StatelessAllocationPolicyINS0_22ExpHeapStaticAllocatorILm2048ENS5_6detail12ObjectHolder24ObjectHolderAllocatorTagEEEEES6_NS3_19ProcessModifierImplINS2_21DefaultProxyFilterTagEEEE42_nn_sf_sync_UpdateNotificationReceiverInfoEv
 00000000:0000007100042300       _ZN2nn2sf4cmif6client6detail13CmifProxyImplINS_7account31IAccountServiceForSystemServiceENS2_19CmifDomainProxyKindINS0_4hipc6client38Hipc2ClientSessionManagedProxyKindBaseINS9_18Hipc2ProxyKindBaseILNS8_6detail11MessageTypeE6EEEEEEENS0_25StatelessAllocationPolicyINS0_22ExpHeapStaticAllocatorILm2048ENS5_6detail12ObjectHolder24ObjectHolderAllocatorTagEEEEES6_NS3_19ProcessModifierImplINS2_21DefaultProxyFilterTagEEEE44_nn_sf_sync_DebugInvalidateUserResourceCacheERKNS5_3UidE
 00000000:0000007100042320       _ZN2nn2sf4cmif6client6detail13CmifProxyImplINS_7account31IAccountServiceForSystemServiceENS2_19CmifDomainProxyKindINS0_4hipc6client38Hipc2ClientSessionManagedProxyKindBaseINS9_18Hipc2ProxyKindBaseILNS8_6detail11MessageTypeE6EEEEEEENS0_25StatelessAllocationPolicyINS0_22ExpHeapStaticAllocatorILm2048ENS5_6detail12ObjectHolder24ObjectHolderAllocatorTagEEEEES6_NS3_19ProcessModifierImplINS2_21DefaultProxyFilterTagEEEE34_nn_sf_sync_DebugSetUserStateCloseERKNS5_3UidE
 00000000:0000007100042340       _ZN2nn2sf4cmif6client6detail13CmifProxyImplINS_7account31IAccountServiceForSystemServiceENS2_19CmifDomainProxyKindINS0_4hipc6client38Hipc2ClientSessionManagedProxyKindBaseINS9_18Hipc2ProxyKindBaseILNS8_6detail11MessageTypeE6EEEEEEENS0_25StatelessAllocationPolicyINS0_22ExpHeapStaticAllocatorILm2048ENS5_6detail12ObjectHolder24ObjectHolderAllocatorTagEEEEES6_NS3_19ProcessModifierImplINS2_21DefaultProxyFilterTagEEEE33_nn_sf_sync_DebugSetUserStateOpenERKNS5_3UidE
 00000000:0000007100042360       _ZN2nn2sf4cmif6client6detail13CmifProxyImplINS_7account19IAccountServiceBaseENS2_19CmifDomainProxyKindINS0_4hipc6client38Hipc2ClientSessionManagedProxyKindBaseINS9_18Hipc2ProxyKindBaseILNS8_6detail11MessageTypeE6EEEEEEENS0_25StatelessAllocationPolicyINS0_22ExpHeapStaticAllocatorILm2048ENS5_6detail12ObjectHolder24ObjectHolderAllocatorTagEEEEENS5_31IAccountServiceForSystemServiceENS3_19ProcessModifierImplINS2_21DefaultProxyFilterTagEEEE17GetCmifBaseObjectEv
 00000000:0000007100042370       _ZThn32_N2nn2sf4cmif6client6detail13CmifProxyImplINS_7account19IAccountServiceBaseENS2_19CmifDomainProxyKindINS0_4hipc6client38Hipc2ClientSessionManagedProxyKindBaseINS9_18Hipc2ProxyKindBaseILNS8_6detail11MessageTypeE6EEEEEEENS0_25StatelessAllocationPolicyINS0_22ExpHeapStaticAllocatorILm2048ENS5_6detail12ObjectHolder24ObjectHolderAllocatorTagEEEEENS5_31IAccountServiceForSystemServiceENS3_19ProcessModifierImplINS2_21DefaultProxyFilterTagEEEE17GetCmifBaseObjectEv
 00000000:0000007100042380       _ZN2nn2sf4cmif6client6detail36GetClientProcessorImplWithObjectBaseINS2_19CmifDomainProxyKindINS0_4hipc6client38Hipc2ClientSessionManagedProxyKindBaseINS7_18Hipc2ProxyKindBaseILNS6_6detail11MessageTypeE6EEEEEEENS3_19ProcessModifierImplINS2_21DefaultProxyFilterTagEEEE14ObjectAssignerINS0_25StatelessAllocationPolicyINS0_22ExpHeapStaticAllocatorILm2048ENS_7account6detail12ObjectHolder24ObjectHolderAllocatorTagEEEEENS0_6detail23StatelessDummyAllocatorEE14AllocateObjectINSN_9INotifierEEEvi
 00000000:0000007100042440       _ZN2nn2sf6detail39ObjectImplFactoryWithStatelessAllocatorINS0_4cmif6client6detail9CmifProxyINS_7account6detail9INotifierENS4_19CmifDomainProxyKindINS0_4hipc6client38Hipc2ClientSessionManagedProxyKindBaseINSC_18Hipc2ProxyKindBaseILNSB_6detail11MessageTypeE6EEEEEEENS0_25StatelessAllocationPolicyINS0_22ExpHeapStaticAllocatorILm2048ENS8_12ObjectHolder24ObjectHolderAllocatorTagEEEEENS5_19ProcessModifierImplINS4_21DefaultProxyFilterTagEEEvEESP_E6Object12AddReferenceEv
 00000000:0000007100042450       _ZN2nn2sf6detail39ObjectImplFactoryWithStatelessAllocatorINS0_4cmif6client6detail9CmifProxyINS_7account6detail9INotifierENS4_19CmifDomainProxyKindINS0_4hipc6client38Hipc2ClientSessionManagedProxyKindBaseINSC_18Hipc2ProxyKindBaseILNSB_6detail11MessageTypeE6EEEEEEENS0_25StatelessAllocationPolicyINS0_22ExpHeapStaticAllocatorILm2048ENS8_12ObjectHolder24ObjectHolderAllocatorTagEEEEENS5_19ProcessModifierImplINS4_21DefaultProxyFilterTagEEEvEESP_E6Object7ReleaseEv
 00000000:00000071000424C0       _ZN2nn2sf4cmif6client6detail13CmifProxyImplINS_7account6detail9INotifierENS2_19CmifDomainProxyKindINS0_4hipc6client38Hipc2ClientSessionManagedProxyKindBaseINSA_18Hipc2ProxyKindBaseILNS9_6detail11MessageTypeE6EEEEEEENS0_25StatelessAllocationPolicyINS0_22ExpHeapStaticAllocatorILm2048ENS6_12ObjectHolder24ObjectHolderAllocatorTagEEEEES7_NS3_19ProcessModifierImplINS2_21DefaultProxyFilterTagEEEE12GetProxyInfoEv
 00000000:00000071000424D0       _ZN2nn2sf4cmif6client6detail13CmifProxyImplINS_7account6detail9INotifierENS2_19CmifDomainProxyKindINS0_4hipc6client38Hipc2ClientSessionManagedProxyKindBaseINSA_18Hipc2ProxyKindBaseILNS9_6detail11MessageTypeE6EEEEEEENS0_25StatelessAllocationPolicyINS0_22ExpHeapStaticAllocatorILm2048ENS6_12ObjectHolder24ObjectHolderAllocatorTagEEEEES7_NS3_19ProcessModifierImplINS2_21DefaultProxyFilterTagEEEE26_nn_sf_sync_GetSystemEventENS0_3OutINS0_12NativeHandleEvEE
 00000000:00000071000424F0       _ZN2nn2sf4cmif6client6detail13CmifProxyImplINS_7account6detail9INotifierENS2_19CmifDomainProxyKindINS0_4hipc6client38Hipc2ClientSessionManagedProxyKindBaseINSA_18Hipc2ProxyKindBaseILNS9_6detail11MessageTypeE6EEEEEEENS0_25StatelessAllocationPolicyINS0_22ExpHeapStaticAllocatorILm2048ENS6_12ObjectHolder24ObjectHolderAllocatorTagEEEEES7_NS3_19ProcessModifierImplINS2_21DefaultProxyFilterTagEEEE17GetCmifBaseObjectEv
 00000000:0000007100042500       _ZThn32_N2nn2sf4cmif6client6detail13CmifProxyImplINS_7account6detail9INotifierENS2_19CmifDomainProxyKindINS0_4hipc6client38Hipc2ClientSessionManagedProxyKindBaseINSA_18Hipc2ProxyKindBaseILNS9_6detail11MessageTypeE6EEEEEEENS0_25StatelessAllocationPolicyINS0_22ExpHeapStaticAllocatorILm2048ENS6_12ObjectHolder24ObjectHolderAllocatorTagEEEEES7_NS3_19ProcessModifierImplINS2_21DefaultProxyFilterTagEEEE17GetCmifBaseObjectEv
 00000000:0000007100042510       _ZN2nn2sf4cmif6client6detail36GetClientProcessorImplWithObjectBaseINS2_19CmifDomainProxyKindINS0_4hipc6client38Hipc2ClientSessionManagedProxyKindBaseINS7_18Hipc2ProxyKindBaseILNS6_6detail11MessageTypeE6EEEEEEENS3_19ProcessModifierImplINS2_21DefaultProxyFilterTagEEEE14ObjectAssignerINS0_25StatelessAllocationPolicyINS0_22ExpHeapStaticAllocatorILm2048ENS_7account6detail12ObjectHolder24ObjectHolderAllocatorTagEEEEENS0_6detail23StatelessDummyAllocatorEE14AllocateObjectINSM_4baas24IManagerForSystemServiceEEEvi
 00000000:00000071000425D0       _ZN2nn2sf6detail39ObjectImplFactoryWithStatelessAllocatorINS0_4cmif6client6detail9CmifProxyINS_7account4baas24IManagerForSystemServiceENS4_19CmifDomainProxyKindINS0_4hipc6client38Hipc2ClientSessionManagedProxyKindBaseINSC_18Hipc2ProxyKindBaseILNSB_6detail11MessageTypeE6EEEEEEENS0_25StatelessAllocationPolicyINS0_22ExpHeapStaticAllocatorILm2048ENS7_6detail12ObjectHolder24ObjectHolderAllocatorTagEEEEENS5_19ProcessModifierImplINS4_21DefaultProxyFilterTagEEEvEESQ_E6Object12AddReferenceEv
 00000000:00000071000425E0       _ZN2nn2sf6detail39ObjectImplFactoryWithStatelessAllocatorINS0_4cmif6client6detail9CmifProxyINS_7account4baas24IManagerForSystemServiceENS4_19CmifDomainProxyKindINS0_4hipc6client38Hipc2ClientSessionManagedProxyKindBaseINSC_18Hipc2ProxyKindBaseILNSB_6detail11MessageTypeE6EEEEEEENS0_25StatelessAllocationPolicyINS0_22ExpHeapStaticAllocatorILm2048ENS7_6detail12ObjectHolder24ObjectHolderAllocatorTagEEEEENS5_19ProcessModifierImplINS4_21DefaultProxyFilterTagEEEvEESQ_E6Object7ReleaseEv
 00000000:0000007100042650       _ZN2nn2sf4cmif6client6detail13CmifProxyImplINS_7account4baas12IManagerBaseENS2_19CmifDomainProxyKindINS0_4hipc6client38Hipc2ClientSessionManagedProxyKindBaseINSA_18Hipc2ProxyKindBaseILNS9_6detail11MessageTypeE6EEEEEEENS0_25StatelessAllocationPolicyINS0_22ExpHeapStaticAllocatorILm2048ENS5_6detail12ObjectHolder24ObjectHolderAllocatorTagEEEEENS6_24IManagerForSystemServiceENS3_19ProcessModifierImplINS2_21DefaultProxyFilterTagEEEE12GetProxyInfoEv
 00000000:0000007100042660       _ZN2nn2sf4cmif6client6detail13CmifProxyImplINS_7account4baas12IManagerBaseENS2_19CmifDomainProxyKindINS0_4hipc6client38Hipc2ClientSessionManagedProxyKindBaseINSA_18Hipc2ProxyKindBaseILNS9_6detail11MessageTypeE6EEEEEEENS0_25StatelessAllocationPolicyINS0_22ExpHeapStaticAllocatorILm2048ENS5_6detail12ObjectHolder24ObjectHolderAllocatorTagEEEEENS6_24IManagerForSystemServiceENS3_19ProcessModifierImplINS2_21DefaultProxyFilterTagEEEE29_nn_sf_sync_CheckAvailabilityEv
 00000000:0000007100042680       _ZN2nn2sf4cmif6client6detail13CmifProxyImplINS_7account4baas12IManagerBaseENS2_19CmifDomainProxyKindINS0_4hipc6client38Hipc2ClientSessionManagedProxyKindBaseINSA_18Hipc2ProxyKindBaseILNS9_6detail11MessageTypeE6EEEEEEENS0_25StatelessAllocationPolicyINS0_22ExpHeapStaticAllocatorILm2048ENS5_6detail12ObjectHolder24ObjectHolderAllocatorTagEEEEENS6_24IManagerForSystemServiceENS3_19ProcessModifierImplINS2_21DefaultProxyFilterTagEEEE24_nn_sf_sync_GetAccountIdENS0_3OutINS5_23NetworkServiceAccountIdEvEE
 00000000:00000071000426A0       _ZN2nn2sf4cmif6client6detail13CmifProxyImplINS_7account4baas12IManagerBaseENS2_19CmifDomainProxyKindINS0_4hipc6client38Hipc2ClientSessionManagedProxyKindBaseINSA_18Hipc2ProxyKindBaseILNS9_6detail11MessageTypeE6EEEEEEENS0_25StatelessAllocationPolicyINS0_22ExpHeapStaticAllocatorILm2048ENS5_6detail12ObjectHolder24ObjectHolderAllocatorTagEEEEENS6_24IManagerForSystemServiceENS3_19ProcessModifierImplINS2_21DefaultProxyFilterTagEEEE35_nn_sf_sync_EnsureIdTokenCacheAsyncENS0_3OutINS0_13SharedPointerINSK_13IAsyncContextEEEvEE
 00000000:0000007100042730       _ZN2nn2sf4cmif6client6detail13CmifProxyImplINS_7account4baas12IManagerBaseENS2_19CmifDomainProxyKindINS0_4hipc6client38Hipc2ClientSessionManagedProxyKindBaseINSA_18Hipc2ProxyKindBaseILNS9_6detail11MessageTypeE6EEEEEEENS0_25StatelessAllocationPolicyINS0_22ExpHeapStaticAllocatorILm2048ENS5_6detail12ObjectHolder24ObjectHolderAllocatorTagEEEEENS6_24IManagerForSystemServiceENS3_19ProcessModifierImplINS2_21DefaultProxyFilterTagEEEE28_nn_sf_sync_LoadIdTokenCacheENS0_3OutIjvEERKNS0_9OutBufferE
 00000000:0000007100042760       _ZN2nn2sf4cmif6client6detail13CmifProxyImplINS_7account4baas24IManagerForSystemServiceENS2_19CmifDomainProxyKindINS0_4hipc6client38Hipc2ClientSessionManagedProxyKindBaseINSA_18Hipc2ProxyKindBaseILNS9_6detail11MessageTypeE6EEEEEEENS0_25StatelessAllocationPolicyINS0_22ExpHeapStaticAllocatorILm2048ENS5_6detail12ObjectHolder24ObjectHolderAllocatorTagEEEEES7_NS3_19ProcessModifierImplINS2_21DefaultProxyFilterTagEEEE42_nn_sf_sync_SetSystemProgramIdentificationERKNS5_27SystemProgramIdentificationEm
 00000000:0000007100042790       _ZN2nn2sf4cmif6client6detail13CmifProxyImplINS_7account4baas24IManagerForSystemServiceENS2_19CmifDomainProxyKindINS0_4hipc6client38Hipc2ClientSessionManagedProxyKindBaseINSA_18Hipc2ProxyKindBaseILNS9_6detail11MessageTypeE6EEEEEEENS0_25StatelessAllocationPolicyINS0_22ExpHeapStaticAllocatorILm2048ENS5_6detail12ObjectHolder24ObjectHolderAllocatorTagEEEEES7_NS3_19ProcessModifierImplINS2_21DefaultProxyFilterTagEEEE41_nn_sf_sync_RefreshNotificationTokenAsyncENS0_3OutINS0_13SharedPointerINSK_13IAsyncContextEEEvEE
 00000000:0000007100042820       _ZN2nn2sf4cmif6client6detail13CmifProxyImplINS_7account4baas24IManagerForSystemServiceENS2_19CmifDomainProxyKindINS0_4hipc6client38Hipc2ClientSessionManagedProxyKindBaseINSA_18Hipc2ProxyKindBaseILNS9_6detail11MessageTypeE6EEEEEEENS0_25StatelessAllocationPolicyINS0_22ExpHeapStaticAllocatorILm2048ENS5_6detail12ObjectHolder24ObjectHolderAllocatorTagEEEEES7_NS3_19ProcessModifierImplINS2_21DefaultProxyFilterTagEEEE51_nn_sf_sync_GetServiceEntryRequirementCacheForLoginENS0_3OutIjvEENS_13ApplicationIdE
 00000000:0000007100042840       _ZN2nn2sf4cmif6client6detail13CmifProxyImplINS_7account4baas24IManagerForSystemServiceENS2_19CmifDomainProxyKindINS0_4hipc6client38Hipc2ClientSessionManagedProxyKindBaseINSA_18Hipc2ProxyKindBaseILNS9_6detail11MessageTypeE6EEEEEEENS0_25StatelessAllocationPolicyINS0_22ExpHeapStaticAllocatorILm2048ENS5_6detail12ObjectHolder24ObjectHolderAllocatorTagEEEEES7_NS3_19ProcessModifierImplINS2_21DefaultProxyFilterTagEEEE50_nn_sf_sync_InvalidateServiceEntryRequirementCacheENS_13ApplicationIdE
 00000000:0000007100042860       _ZN2nn2sf4cmif6client6detail13CmifProxyImplINS_7account4baas24IManagerForSystemServiceENS2_19CmifDomainProxyKindINS0_4hipc6client38Hipc2ClientSessionManagedProxyKindBaseINSA_18Hipc2ProxyKindBaseILNS9_6detail11MessageTypeE6EEEEEEENS0_25StatelessAllocationPolicyINS0_22ExpHeapStaticAllocatorILm2048ENS5_6detail12ObjectHolder24ObjectHolderAllocatorTagEEEEES7_NS3_19ProcessModifierImplINS2_21DefaultProxyFilterTagEEEE56_nn_sf_sync_GetServiceEntryRequirementCacheForOnlinePlayENS0_3OutIjvEENS_13ApplicationIdE
 00000000:0000007100042880       _ZN2nn2sf4cmif6client6detail13CmifProxyImplINS_7account4baas24IManagerForSystemServiceENS2_19CmifDomainProxyKindINS0_4hipc6client38Hipc2ClientSessionManagedProxyKindBaseINSA_18Hipc2ProxyKindBaseILNS9_6detail11MessageTypeE6EEEEEEENS0_25StatelessAllocationPolicyINS0_22ExpHeapStaticAllocatorILm2048ENS5_6detail12ObjectHolder24ObjectHolderAllocatorTagEEEEES7_NS3_19ProcessModifierImplINS2_21DefaultProxyFilterTagEEEE32_nn_sf_sync_GetNintendoAccountIdENS0_3OutINS5_17NintendoAccountIdEvEE
 00000000:00000071000428A0       _ZN2nn2sf4cmif6client6detail13CmifProxyImplINS_7account4baas24IManagerForSystemServiceENS2_19CmifDomainProxyKindINS0_4hipc6client38Hipc2ClientSessionManagedProxyKindBaseINSA_18Hipc2ProxyKindBaseILNS9_6detail11MessageTypeE6EEEEEEENS0_25StatelessAllocationPolicyINS0_22ExpHeapStaticAllocatorILm2048ENS5_6detail12ObjectHolder24ObjectHolderAllocatorTagEEEEES7_NS3_19ProcessModifierImplINS2_21DefaultProxyFilterTagEEEE47_nn_sf_sync_GetNintendoAccountUserResourceCacheENS0_3OutINS5_17NintendoAccountIdEvEENST_INS5_3nas11NasUserBaseEvEERKNS0_9OutBufferE
 00000000:00000071000428D0       _ZN2nn2sf4cmif6client6detail13CmifProxyImplINS_7account4baas24IManagerForSystemServiceENS2_19CmifDomainProxyKindINS0_4hipc6client38Hipc2ClientSessionManagedProxyKindBaseINSA_18Hipc2ProxyKindBaseILNS9_6detail11MessageTypeE6EEEEEEENS0_25StatelessAllocationPolicyINS0_22ExpHeapStaticAllocatorILm2048ENS5_6detail12ObjectHolder24ObjectHolderAllocatorTagEEEEES7_NS3_19ProcessModifierImplINS2_21DefaultProxyFilterTagEEEE56_nn_sf_sync_RefreshNintendoAccountUserResourceCacheAsyncENS0_3OutINS0_13SharedPointerINSK_13IAsyncContextEEEvEE
 00000000:0000007100042960       _ZN2nn2sf4cmif6client6detail13CmifProxyImplINS_7account4baas24IManagerForSystemServiceENS2_19CmifDomainProxyKindINS0_4hipc6client38Hipc2ClientSessionManagedProxyKindBaseINSA_18Hipc2ProxyKindBaseILNS9_6detail11MessageTypeE6EEEEEEENS0_25StatelessAllocationPolicyINS0_22ExpHeapStaticAllocatorILm2048ENS5_6detail12ObjectHolder24ObjectHolderAllocatorTagEEEEES7_NS3_19ProcessModifierImplINS2_21DefaultProxyFilterTagEEEE72_nn_sf_sync_RefreshNintendoAccountUserResourceCacheAsyncIfSecondsElapsedENS0_3OutIbvEENST_INS0_13SharedPointerINSK_13IAsyncContextEEEvEEj
 00000000:0000007100042A10       _ZN2nn2sf4cmif6client6detail13CmifProxyImplINS_7account4baas24IManagerForSystemServiceENS2_19CmifDomainProxyKindINS0_4hipc6client38Hipc2ClientSessionManagedProxyKindBaseINSA_18Hipc2ProxyKindBaseILNS9_6detail11MessageTypeE6EEEEEEENS0_25StatelessAllocationPolicyINS0_22ExpHeapStaticAllocatorILm2048ENS5_6detail12ObjectHolder24ObjectHolderAllocatorTagEEEEES7_NS3_19ProcessModifierImplINS2_21DefaultProxyFilterTagEEEE41_nn_sf_sync_GetNetworkServiceLicenseCacheENS0_3OutIivEENST_INS_4time9PosixTimeEvEE
 00000000:0000007100042A30       _ZN2nn2sf4cmif6client6detail13CmifProxyImplINS_7account4baas24IManagerForSystemServiceENS2_19CmifDomainProxyKindINS0_4hipc6client38Hipc2ClientSessionManagedProxyKindBaseINSA_18Hipc2ProxyKindBaseILNS9_6detail11MessageTypeE6EEEEEEENS0_25StatelessAllocationPolicyINS0_22ExpHeapStaticAllocatorILm2048ENS5_6detail12ObjectHolder24ObjectHolderAllocatorTagEEEEES7_NS3_19ProcessModifierImplINS2_21DefaultProxyFilterTagEEEE50_nn_sf_sync_RefreshNetworkServiceLicenseCacheAsyncENS0_3OutINS0_13SharedPointerINSK_13IAsyncContextEEEvEE
 00000000:0000007100042AC0       _ZN2nn2sf4cmif6client6detail13CmifProxyImplINS_7account4baas24IManagerForSystemServiceENS2_19CmifDomainProxyKindINS0_4hipc6client38Hipc2ClientSessionManagedProxyKindBaseINSA_18Hipc2ProxyKindBaseILNS9_6detail11MessageTypeE6EEEEEEENS0_25StatelessAllocationPolicyINS0_22ExpHeapStaticAllocatorILm2048ENS5_6detail12ObjectHolder24ObjectHolderAllocatorTagEEEEES7_NS3_19ProcessModifierImplINS2_21DefaultProxyFilterTagEEEE66_nn_sf_sync_RefreshNetworkServiceLicenseCacheAsyncIfSecondsElapsedENS0_3OutIbvEENST_INS0_13SharedPointerINSK_13IAsyncContextEEEvEEj
 00000000:0000007100042B70       _ZN2nn2sf4cmif6client6detail13CmifProxyImplINS_7account4baas24IManagerForSystemServiceENS2_19CmifDomainProxyKindINS0_4hipc6client38Hipc2ClientSessionManagedProxyKindBaseINSA_18Hipc2ProxyKindBaseILNS9_6detail11MessageTypeE6EEEEEEENS0_25StatelessAllocationPolicyINS0_22ExpHeapStaticAllocatorILm2048ENS5_6detail12ObjectHolder24ObjectHolderAllocatorTagEEEEES7_NS3_19ProcessModifierImplINS2_21DefaultProxyFilterTagEEEE38_nn_sf_sync_CreateAuthorizationRequestENS0_3OutINS0_13SharedPointerINS5_3nas21IAuthorizationRequestEEEvEERKNSV_13NasClientInfoERKNS5_45NintendoAccountAuthorizationRequestParametersEONS0_12NativeHandleEj
 00000000:0000007100042C40       _ZN2nn2sf4cmif6client6detail13CmifProxyImplINS_7account4baas12IManagerBaseENS2_19CmifDomainProxyKindINS0_4hipc6client38Hipc2ClientSessionManagedProxyKindBaseINSA_18Hipc2ProxyKindBaseILNS9_6detail11MessageTypeE6EEEEEEENS0_25StatelessAllocationPolicyINS0_22ExpHeapStaticAllocatorILm2048ENS5_6detail12ObjectHolder24ObjectHolderAllocatorTagEEEEENS6_24IManagerForSystemServiceENS3_19ProcessModifierImplINS2_21DefaultProxyFilterTagEEEE17GetCmifBaseObjectEv
 00000000:0000007100042C50       _ZThn32_N2nn2sf4cmif6client6detail13CmifProxyImplINS_7account4baas12IManagerBaseENS2_19CmifDomainProxyKindINS0_4hipc6client38Hipc2ClientSessionManagedProxyKindBaseINSA_18Hipc2ProxyKindBaseILNS9_6detail11MessageTypeE6EEEEEEENS0_25StatelessAllocationPolicyINS0_22ExpHeapStaticAllocatorILm2048ENS5_6detail12ObjectHolder24ObjectHolderAllocatorTagEEEEENS6_24IManagerForSystemServiceENS3_19ProcessModifierImplINS2_21DefaultProxyFilterTagEEEE17GetCmifBaseObjectEv
 00000000:0000007100042C60       _ZN2nn2sf4cmif6client34CmifDomainProxyClientCoreProcessorINS0_4hipc6client38Hipc2ClientSessionManagedProxyKindBaseINS5_18Hipc2ProxyKindBaseILNS4_6detail11MessageTypeE6EEEEENS1_6detail14CoreMethodInfoINSt3__15tupleIJNSC_18BufferArgumentInfoILi0ELi25ELm16EEENSC_17InRawArgumentInfoILm8ELm8ELl0EEEEEELm8ELm0ELb1EEESK_E7ProcessEPNS2_23CmifDomainClientMessageISB_E15ProxyBaseObjectENS2_24BufferClientArgumentTypeENS2_23InRawClientArgumentTypeILm8ELm8EvEEj
 00000000:0000007100042E50       _ZN2nn2sf4cmif6client34CmifDomainProxyClientCoreProcessorINS0_4hipc6client38Hipc2ClientSessionManagedProxyKindBaseINS5_18Hipc2ProxyKindBaseILNS4_6detail11MessageTypeE6EEEEENS1_6detail14CoreMethodInfoINSt3__15tupleIJNSC_18OutRawArgumentInfoILm4ELm4ELl0EEENSC_17InRawArgumentInfoILm8ELm8ELl0EEEEEELm8ELm4ELb0EEESK_E7ProcessEPNS2_23CmifDomainClientMessageISB_E15ProxyBaseObjectENS2_24OutRawClientArgumentTypeILm4ELm4EEENS2_23InRawClientArgumentTypeILm8ELm8EvEEj
 00000000:0000007100042FB0       _ZN2nn2sf4cmif6client34CmifDomainProxyClientCoreProcessorINS0_4hipc6client38Hipc2ClientSessionManagedProxyKindBaseINS5_18Hipc2ProxyKindBaseILNS4_6detail11MessageTypeE6EEEEENS1_6detail14CoreMethodInfoINSt3__15tupleIJNSC_18OutRawArgumentInfoILm8ELm8ELl0EEENSC_18BufferArgumentInfoILi0ELi26ELm592EEENSI_ILi1ELi6ELm0EEEEEELm0ELm8ELb0EEESL_E7ProcessEPNS2_23CmifDomainClientMessageISB_E15ProxyBaseObjectENS2_24OutRawClientArgumentTypeILm8ELm8EEENS2_24BufferClientArgumentTypeESU_j
 00000000:00000071000431C0       _ZN2nn2sf4cmif6client34CmifDomainProxyClientCoreProcessorINS0_4hipc6client38Hipc2ClientSessionManagedProxyKindBaseINS5_18Hipc2ProxyKindBaseILNS4_6detail11MessageTypeE6EEEEENS1_6detail14CoreMethodInfoINSt3__15tupleIJNSC_18OutRawArgumentInfoILm1ELm1ELl0EEENSC_21OutObjectArgumentInfoILi0ELi0EEENSC_17InRawArgumentInfoILm4ELm4ELl0EEEEEELm4ELm1ELb0EEESM_E21ProcessWithOutObjectsEPNS2_23CmifDomainClientMessageISB_E15ProxyBaseObjectENS2_24OutRawClientArgumentTypeILm1ELm1EEENS2_27OutObjectClientArgumentTypeENS2_23InRawClientArgumentTypeILm4ELm4EvEEjPNS0_13SharedPointerINS0_14IServiceObjectEEE
 00000000:00000071000433A0       _ZN2nn2sf4cmif6client34CmifDomainProxyClientCoreProcessorINS0_4hipc6client38Hipc2ClientSessionManagedProxyKindBaseINS5_18Hipc2ProxyKindBaseILNS4_6detail11MessageTypeE6EEEEENS1_6detail14CoreMethodInfoINSt3__15tupleIJNSC_18OutRawArgumentInfoILm4ELm4ELl0EEENSG_ILm8ELm8ELl8EEEEEELm0ELm16ELb0EEESJ_E7ProcessEPNS2_23CmifDomainClientMessageISB_E15ProxyBaseObjectENS2_24OutRawClientArgumentTypeILm4ELm4EEENSQ_ILm8ELm8EEEj
 00000000:0000007100043500       _ZN2nn2sf4cmif6client34CmifDomainProxyClientCoreProcessorINS0_4hipc6client38Hipc2ClientSessionManagedProxyKindBaseINS5_18Hipc2ProxyKindBaseILNS4_6detail11MessageTypeE6EEEEENS1_6detail14CoreMethodInfoINSt3__15tupleIJNSC_21OutObjectArgumentInfoILi0ELi0EEENSC_18BufferArgumentInfoILi0ELi25ELm264EEENSI_ILi1ELi25ELm512EEENSC_20InHandleArgumentInfoILi0ELi1EEENSC_17InRawArgumentInfoILm4ELm4ELl0EEEEEELm4ELm0ELb0EEESP_E21ProcessWithOutObjectsEPNS2_23CmifDomainClientMessageISB_E15ProxyBaseObjectENS2_27OutObjectClientArgumentTypeENS2_24BufferClientArgumentTypeESX_NS2_26InHandleClientArgumentTypeENS2_23InRawClientArgumentTypeILm4ELm4EvEEjPNS0_13SharedPointerINS0_14IServiceObjectEEE
 00000000:00000071000437D0       _ZN2nn2sf4cmif6client34CmifDomainProxyClientCoreProcessorINS0_4hipc6client38Hipc2ClientSessionManagedProxyKindBaseINS5_18Hipc2ProxyKindBaseILNS4_6detail11MessageTypeE6EEEEENS1_6detail14CoreMethodInfoINSt3__15tupleIJNSC_21OutObjectArgumentInfoILi0ELi0EEENSC_18BufferArgumentInfoILi0ELi25ELm16EEENSC_17InRawArgumentInfoILm8ELm8ELl0EEEEEELm8ELm0ELb1EEESM_E21ProcessWithOutObjectsEPNS2_23CmifDomainClientMessageISB_E15ProxyBaseObjectENS2_27OutObjectClientArgumentTypeENS2_24BufferClientArgumentTypeENS2_23InRawClientArgumentTypeILm8ELm8EvEEjPNS0_13SharedPointerINS0_14IServiceObjectEEE
 00000000:0000007100043A50       _ZN2nn2sf4cmif6client34CmifDomainProxyClientCoreProcessorINS0_4hipc6client38Hipc2ClientSessionManagedProxyKindBaseINS5_18Hipc2ProxyKindBaseILNS4_6detail11MessageTypeE6EEEEENS1_6detail14CoreMethodInfoINSt3__15tupleIJNSC_17InRawArgumentInfoILm16ELm8ELl0EEENSG_ILm8ELm8ELl16EEENSC_18BufferArgumentInfoILi0ELi5ELm0EEEEEELm24ELm0ELb0EEESL_E7ProcessEPNS2_23CmifDomainClientMessageISB_E15ProxyBaseObjectENS2_23InRawClientArgumentTypeILm16ELm8EvEENSS_ILm8ELm8EvEENS2_24BufferClientArgumentTypeEj
 00000000:0000007100043C70       _ZN2nn2sf4cmif6client34CmifDomainProxyClientCoreProcessorINS0_4hipc6client38Hipc2ClientSessionManagedProxyKindBaseINS5_18Hipc2ProxyKindBaseILNS4_6detail11MessageTypeE6EEEEENS1_6detail14CoreMethodInfoINSt3__15tupleIJNSC_17InRawArgumentInfoILm16ELm8ELl0EEENSG_ILm8ELm8ELl16EEEEEELm24ELm0ELb0EEESJ_E7ProcessEPNS2_23CmifDomainClientMessageISB_E15ProxyBaseObjectENS2_23InRawClientArgumentTypeILm16ELm8EvEENSQ_ILm8ELm8EvEEj
 00000000:0000007100043DD0       _ZN2nn2sf4cmif6client34CmifDomainProxyClientCoreProcessorINS0_4hipc6client38Hipc2ClientSessionManagedProxyKindBaseINS5_18Hipc2ProxyKindBaseILNS4_6detail11MessageTypeE6EEEEENS1_6detail14CoreMethodInfoINSt3__15tupleIJNSC_18OutRawArgumentInfoILm4ELm4ELl0EEENSC_18BufferArgumentInfoILi0ELi6ELm0EEENSC_17InRawArgumentInfoILm16ELm8ELl0EEENSK_ILm8ELm8ELl16EEEEEELm24ELm4ELb0EEESN_E7ProcessEPNS2_23CmifDomainClientMessageISB_E15ProxyBaseObjectENS2_24OutRawClientArgumentTypeILm4ELm4EEENS2_24BufferClientArgumentTypeENS2_23InRawClientArgumentTypeILm16ELm8EvEENSX_ILm8ELm8EvEEj
 00000000:0000007100044000       _ZN2nn2sf4cmif6client34CmifDomainProxyClientCoreProcessorINS0_4hipc6client38Hipc2ClientSessionManagedProxyKindBaseINS5_18Hipc2ProxyKindBaseILNS4_6detail11MessageTypeE6EEEEENS1_6detail14CoreMethodInfoINSt3__15tupleIJNSC_18OutRawArgumentInfoILm1ELm1ELl0EEENSC_17InRawArgumentInfoILm16ELm8ELl0EEENSI_ILm8ELm8ELl16EEEEEELm24ELm1ELb0EEESL_E7ProcessEPNS2_23CmifDomainClientMessageISB_E15ProxyBaseObjectENS2_24OutRawClientArgumentTypeILm1ELm1EEENS2_23InRawClientArgumentTypeILm16ELm8EvEENSU_ILm8ELm8EvEEj
 00000000:0000007100044170       _ZN2nn2sf4cmif6client34CmifDomainProxyClientCoreProcessorINS0_4hipc6client38Hipc2ClientSessionManagedProxyKindBaseINS5_18Hipc2ProxyKindBaseILNS4_6detail11MessageTypeE6EEEEENS1_6detail14CoreMethodInfoINSt3__15tupleIJNSC_18BufferArgumentInfoILi0ELi10ELm0EEENSC_17InRawArgumentInfoILm8ELm8ELl0EEEEEELm8ELm0ELb0EEESK_E7ProcessEPNS2_23CmifDomainClientMessageISB_E15ProxyBaseObjectENS2_24BufferClientArgumentTypeENS2_23InRawClientArgumentTypeILm8ELm8EvEEj
 00000000:0000007100044370       _ZN2nn2sf4cmif6client34CmifDomainProxyClientCoreProcessorINS0_4hipc6client38Hipc2ClientSessionManagedProxyKindBaseINS5_18Hipc2ProxyKindBaseILNS4_6detail11MessageTypeE6EEEEENS1_6detail14CoreMethodInfoINSt3__15tupleIJNSC_18OutRawArgumentInfoILm8ELm8ELl8EEENSG_ILm4ELm4ELl0EEENSC_17InRawArgumentInfoILm16ELm8ELl0EEEEEELm16ELm16ELb0EEESL_E7ProcessEPNS2_23CmifDomainClientMessageISB_E15ProxyBaseObjectENS2_24OutRawClientArgumentTypeILm8ELm8EEENSS_ILm4ELm4EEENS2_23InRawClientArgumentTypeILm16ELm8EvEEj
 00000000:00000071000444E0       _ZN2nn7account6detail12ObjectHolder11AcquireImplINS0_31IAccountServiceForAdministratorEEENS_6ResultEPPT_PKc
 00000000:00000071000445E0       _ZN2nn2sf4hipc6client34HipcSimpleClientSessionManagerBaseINS2_29DefaultSessionResourceManagerEE4Impl18InitializeByHandleINS_7account31IAccountServiceForAdministratorENS0_25StatelessAllocationPolicyINS0_22ExpHeapStaticAllocatorILm2048ENS8_6detail12ObjectHolder24ObjectHolderAllocatorTagEEEEENS0_4cmif6client6detail19ProcessModifierImplINSI_21DefaultProxyFilterTagEEEEENS_6ResultEPNS0_13SharedPointerIT_EENS_3svc6HandleE
 00000000:0000007100044700       _ZN2nn2sf6detail39ObjectImplFactoryWithStatelessAllocatorINS0_4cmif6client6detail9CmifProxyINS_7account31IAccountServiceForAdministratorENS4_19CmifDomainProxyKindINS0_4hipc6client38Hipc2ClientSessionManagedProxyKindBaseINSB_18Hipc2ProxyKindBaseILNSA_6detail11MessageTypeE6EEEEEEENS0_25StatelessAllocationPolicyINS0_22ExpHeapStaticAllocatorILm2048ENS7_6detail12ObjectHolder24ObjectHolderAllocatorTagEEEEENS5_19ProcessModifierImplINS4_21DefaultProxyFilterTagEEEvEESP_E6Object12AddReferenceEv
 00000000:0000007100044710       _ZN2nn2sf6detail39ObjectImplFactoryWithStatelessAllocatorINS0_4cmif6client6detail9CmifProxyINS_7account31IAccountServiceForAdministratorENS4_19CmifDomainProxyKindINS0_4hipc6client38Hipc2ClientSessionManagedProxyKindBaseINSB_18Hipc2ProxyKindBaseILNSA_6detail11MessageTypeE6EEEEEEENS0_25StatelessAllocationPolicyINS0_22ExpHeapStaticAllocatorILm2048ENS7_6detail12ObjectHolder24ObjectHolderAllocatorTagEEEEENS5_19ProcessModifierImplINS4_21DefaultProxyFilterTagEEEvEESP_E6Object7ReleaseEv
 00000000:0000007100044780       _ZN2nn2sf4cmif6client6detail13CmifProxyImplINS_7account19IAccountServiceBaseENS2_19CmifDomainProxyKindINS0_4hipc6client38Hipc2ClientSessionManagedProxyKindBaseINS9_18Hipc2ProxyKindBaseILNS8_6detail11MessageTypeE6EEEEEEENS0_25StatelessAllocationPolicyINS0_22ExpHeapStaticAllocatorILm2048ENS5_6detail12ObjectHolder24ObjectHolderAllocatorTagEEEEENS5_31IAccountServiceForAdministratorENS3_19ProcessModifierImplINS2_21DefaultProxyFilterTagEEEE12GetProxyInfoEv
 00000000:0000007100044790       _ZN2nn2sf4cmif6client6detail13CmifProxyImplINS_7account19IAccountServiceBaseENS2_19CmifDomainProxyKindINS0_4hipc6client38Hipc2ClientSessionManagedProxyKindBaseINS9_18Hipc2ProxyKindBaseILNS8_6detail11MessageTypeE6EEEEEEENS0_25StatelessAllocationPolicyINS0_22ExpHeapStaticAllocatorILm2048ENS5_6detail12ObjectHolder24ObjectHolderAllocatorTagEEEEENS5_31IAccountServiceForAdministratorENS3_19ProcessModifierImplINS2_21DefaultProxyFilterTagEEEE24_nn_sf_sync_GetUserCountENS0_3OutIivEE
 00000000:00000071000447B0       _ZN2nn2sf4cmif6client6detail13CmifProxyImplINS_7account19IAccountServiceBaseENS2_19CmifDomainProxyKindINS0_4hipc6client38Hipc2ClientSessionManagedProxyKindBaseINS9_18Hipc2ProxyKindBaseILNS8_6detail11MessageTypeE6EEEEEEENS0_25StatelessAllocationPolicyINS0_22ExpHeapStaticAllocatorILm2048ENS5_6detail12ObjectHolder24ObjectHolderAllocatorTagEEEEENS5_31IAccountServiceForAdministratorENS3_19ProcessModifierImplINS2_21DefaultProxyFilterTagEEEE28_nn_sf_sync_GetUserExistenceENS0_3OutIbvEERKNS5_3UidE
 00000000:00000071000447D0       _ZN2nn2sf4cmif6client6detail13CmifProxyImplINS_7account19IAccountServiceBaseENS2_19CmifDomainProxyKindINS0_4hipc6client38Hipc2ClientSessionManagedProxyKindBaseINS9_18Hipc2ProxyKindBaseILNS8_6detail11MessageTypeE6EEEEEEENS0_25StatelessAllocationPolicyINS0_22ExpHeapStaticAllocatorILm2048ENS5_6detail12ObjectHolder24ObjectHolderAllocatorTagEEEEENS5_31IAccountServiceForAdministratorENS3_19ProcessModifierImplINS2_21DefaultProxyFilterTagEEEE24_nn_sf_sync_ListAllUsersERKNS0_8OutArrayINS5_3UidEEE
 00000000:0000007100044800       _ZN2nn2sf4cmif6client6detail13CmifProxyImplINS_7account19IAccountServiceBaseENS2_19CmifDomainProxyKindINS0_4hipc6client38Hipc2ClientSessionManagedProxyKindBaseINS9_18Hipc2ProxyKindBaseILNS8_6detail11MessageTypeE6EEEEEEENS0_25StatelessAllocationPolicyINS0_22ExpHeapStaticAllocatorILm2048ENS5_6detail12ObjectHolder24ObjectHolderAllocatorTagEEEEENS5_31IAccountServiceForAdministratorENS3_19ProcessModifierImplINS2_21DefaultProxyFilterTagEEEE25_nn_sf_sync_ListOpenUsersERKNS0_8OutArrayINS5_3UidEEE
 00000000:0000007100044830       _ZN2nn2sf4cmif6client6detail13CmifProxyImplINS_7account19IAccountServiceBaseENS2_19CmifDomainProxyKindINS0_4hipc6client38Hipc2ClientSessionManagedProxyKindBaseINS9_18Hipc2ProxyKindBaseILNS8_6detail11MessageTypeE6EEEEEEENS0_25StatelessAllocationPolicyINS0_22ExpHeapStaticAllocatorILm2048ENS5_6detail12ObjectHolder24ObjectHolderAllocatorTagEEEEENS5_31IAccountServiceForAdministratorENS3_19ProcessModifierImplINS2_21DefaultProxyFilterTagEEEE29_nn_sf_sync_GetLastOpenedUserENS0_3OutINS5_3UidEvEE
 00000000:0000007100044850       _ZN2nn2sf4cmif6client6detail13CmifProxyImplINS_7account19IAccountServiceBaseENS2_19CmifDomainProxyKindINS0_4hipc6client38Hipc2ClientSessionManagedProxyKindBaseINS9_18Hipc2ProxyKindBaseILNS8_6detail11MessageTypeE6EEEEEEENS0_25StatelessAllocationPolicyINS0_22ExpHeapStaticAllocatorILm2048ENS5_6detail12ObjectHolder24ObjectHolderAllocatorTagEEEEENS5_31IAccountServiceForAdministratorENS3_19ProcessModifierImplINS2_21DefaultProxyFilterTagEEEE22_nn_sf_sync_GetProfileENS0_3OutINS0_13SharedPointerINS5_7profile8IProfileEEEvEERKNS5_3UidE
 00000000:00000071000448F0       _ZN2nn2sf4cmif6client6detail13CmifProxyImplINS_7account19IAccountServiceBaseENS2_19CmifDomainProxyKindINS0_4hipc6client38Hipc2ClientSessionManagedProxyKindBaseINS9_18Hipc2ProxyKindBaseILNS8_6detail11MessageTypeE6EEEEEEENS0_25StatelessAllocationPolicyINS0_22ExpHeapStaticAllocatorILm2048ENS5_6detail12ObjectHolder24ObjectHolderAllocatorTagEEEEENS5_31IAccountServiceForAdministratorENS3_19ProcessModifierImplINS2_21DefaultProxyFilterTagEEEE28_nn_sf_sync_GetProfileDigestENS0_3OutINS5_13ProfileDigestEvEERKNS5_3UidE
 00000000:0000007100044910       _ZN2nn2sf4cmif6client6detail13CmifProxyImplINS_7account19IAccountServiceBaseENS2_19CmifDomainProxyKindINS0_4hipc6client38Hipc2ClientSessionManagedProxyKindBaseINS9_18Hipc2ProxyKindBaseILNS8_6detail11MessageTypeE6EEEEEEENS0_25StatelessAllocationPolicyINS0_22ExpHeapStaticAllocatorILm2048ENS5_6detail12ObjectHolder24ObjectHolderAllocatorTagEEEEENS5_31IAccountServiceForAdministratorENS3_19ProcessModifierImplINS2_21DefaultProxyFilterTagEEEE46_nn_sf_sync_IsUserRegistrationRequestPermittedENS0_3OutIbvEEm
 00000000:0000007100044930       _ZN2nn2sf4cmif6client6detail13CmifProxyImplINS_7account19IAccountServiceBaseENS2_19CmifDomainProxyKindINS0_4hipc6client38Hipc2ClientSessionManagedProxyKindBaseINS9_18Hipc2ProxyKindBaseILNS8_6detail11MessageTypeE6EEEEEEENS0_25StatelessAllocationPolicyINS0_22ExpHeapStaticAllocatorILm2048ENS5_6detail12ObjectHolder24ObjectHolderAllocatorTagEEEEENS5_31IAccountServiceForAdministratorENS3_19ProcessModifierImplINS2_21DefaultProxyFilterTagEEEE43_nn_sf_sync_TrySelectUserWithoutInteractionENS0_3OutINS5_3UidEvEEb
 00000000:0000007100044960       _ZN2nn2sf4cmif6client6detail13CmifProxyImplINS_7account19IAccountServiceBaseENS2_19CmifDomainProxyKindINS0_4hipc6client38Hipc2ClientSessionManagedProxyKindBaseINS9_18Hipc2ProxyKindBaseILNS8_6detail11MessageTypeE6EEEEEEENS0_25StatelessAllocationPolicyINS0_22ExpHeapStaticAllocatorILm2048ENS5_6detail12ObjectHolder24ObjectHolderAllocatorTagEEEEENS5_31IAccountServiceForAdministratorENS3_19ProcessModifierImplINS2_21DefaultProxyFilterTagEEEE45_nn_sf_sync_DebugActivateOpenContextRetentionENS0_3OutINS0_13SharedPointerINSJ_14ISessionObjectEEEvEE
 00000000:00000071000449F0       _ZN2nn2sf4cmif6client6detail13CmifProxyImplINS_7account31IAccountServiceForSystemServiceENS2_19CmifDomainProxyKindINS0_4hipc6client38Hipc2ClientSessionManagedProxyKindBaseINS9_18Hipc2ProxyKindBaseILNS8_6detail11MessageTypeE6EEEEEEENS0_25StatelessAllocationPolicyINS0_22ExpHeapStaticAllocatorILm2048ENS5_6detail12ObjectHolder24ObjectHolderAllocatorTagEEEEENS5_31IAccountServiceForAdministratorENS3_19ProcessModifierImplINS2_21DefaultProxyFilterTagEEEE39_nn_sf_sync_GetUserRegistrationNotifierENS0_3OutINS0_13SharedPointerINSJ_9INotifierEEEvEE
 00000000:0000007100044A80       _ZN2nn2sf4cmif6client6detail13CmifProxyImplINS_7account31IAccountServiceForSystemServiceENS2_19CmifDomainProxyKindINS0_4hipc6client38Hipc2ClientSessionManagedProxyKindBaseINS9_18Hipc2ProxyKindBaseILNS8_6detail11MessageTypeE6EEEEEEENS0_25StatelessAllocationPolicyINS0_22ExpHeapStaticAllocatorILm2048ENS5_6detail12ObjectHolder24ObjectHolderAllocatorTagEEEEENS5_31IAccountServiceForAdministratorENS3_19ProcessModifierImplINS2_21DefaultProxyFilterTagEEEE38_nn_sf_sync_GetUserStateChangeNotifierENS0_3OutINS0_13SharedPointerINSJ_9INotifierEEEvEE
 00000000:0000007100044B10       _ZN2nn2sf4cmif6client6detail13CmifProxyImplINS_7account31IAccountServiceForSystemServiceENS2_19CmifDomainProxyKindINS0_4hipc6client38Hipc2ClientSessionManagedProxyKindBaseINS9_18Hipc2ProxyKindBaseILNS8_6detail11MessageTypeE6EEEEEEENS0_25StatelessAllocationPolicyINS0_22ExpHeapStaticAllocatorILm2048ENS5_6detail12ObjectHolder24ObjectHolderAllocatorTagEEEEENS5_31IAccountServiceForAdministratorENS3_19ProcessModifierImplINS2_21DefaultProxyFilterTagEEEE49_nn_sf_sync_GetBaasAccountManagerForSystemServiceENS0_3OutINS0_13SharedPointerINS5_4baas24IManagerForSystemServiceEEEvEERKNS5_3UidE
 00000000:0000007100044BB0       _ZN2nn2sf4cmif6client6detail13CmifProxyImplINS_7account31IAccountServiceForSystemServiceENS2_19CmifDomainProxyKindINS0_4hipc6client38Hipc2ClientSessionManagedProxyKindBaseINS9_18Hipc2ProxyKindBaseILNS8_6detail11MessageTypeE6EEEEEEENS0_25StatelessAllocationPolicyINS0_22ExpHeapStaticAllocatorILm2048ENS5_6detail12ObjectHolder24ObjectHolderAllocatorTagEEEEENS5_31IAccountServiceForAdministratorENS3_19ProcessModifierImplINS2_21DefaultProxyFilterTagEEEE49_nn_sf_sync_GetBaasUserAvailabilityChangeNotifierENS0_3OutINS0_13SharedPointerINSJ_9INotifierEEEvEE
 00000000:0000007100044C40       _ZN2nn2sf4cmif6client6detail13CmifProxyImplINS_7account31IAccountServiceForSystemServiceENS2_19CmifDomainProxyKindINS0_4hipc6client38Hipc2ClientSessionManagedProxyKindBaseINS9_18Hipc2ProxyKindBaseILNS8_6detail11MessageTypeE6EEEEEEENS0_25StatelessAllocationPolicyINS0_22ExpHeapStaticAllocatorILm2048ENS5_6detail12ObjectHolder24ObjectHolderAllocatorTagEEEEENS5_31IAccountServiceForAdministratorENS3_19ProcessModifierImplINS2_21DefaultProxyFilterTagEEEE36_nn_sf_sync_GetProfileUpdateNotifierENS0_3OutINS0_13SharedPointerINSJ_9INotifierEEEvEE
 00000000:0000007100044CD0       _ZN2nn2sf4cmif6client6detail13CmifProxyImplINS_7account31IAccountServiceForSystemServiceENS2_19CmifDomainProxyKindINS0_4hipc6client38Hipc2ClientSessionManagedProxyKindBaseINS9_18Hipc2ProxyKindBaseILNS8_6detail11MessageTypeE6EEEEEEENS0_25StatelessAllocationPolicyINS0_22ExpHeapStaticAllocatorILm2048ENS5_6detail12ObjectHolder24ObjectHolderAllocatorTagEEEEENS5_31IAccountServiceForAdministratorENS3_19ProcessModifierImplINS2_21DefaultProxyFilterTagEEEE48_nn_sf_sync_CheckNetworkServiceAvailabilityAsyncENS0_3OutINS0_13SharedPointerINSJ_13IAsyncContextEEEvEERKNS5_27SystemProgramIdentificationEm
 00000000:0000007100044D80       _ZN2nn2sf4cmif6client6detail13CmifProxyImplINS_7account31IAccountServiceForSystemServiceENS2_19CmifDomainProxyKindINS0_4hipc6client38Hipc2ClientSessionManagedProxyKindBaseINS9_18Hipc2ProxyKindBaseILNS8_6detail11MessageTypeE6EEEEEEENS0_25StatelessAllocationPolicyINS0_22ExpHeapStaticAllocatorILm2048ENS5_6detail12ObjectHolder24ObjectHolderAllocatorTagEEEEENS5_31IAccountServiceForAdministratorENS3_19ProcessModifierImplINS2_21DefaultProxyFilterTagEEEE34_nn_sf_sync_StoreSaveDataThumbnailERKNS5_3UidENS_13ApplicationIdERKNS0_8InBufferE
 00000000:0000007100044DB0       _ZN2nn2sf4cmif6client6detail13CmifProxyImplINS_7account31IAccountServiceForSystemServiceENS2_19CmifDomainProxyKindINS0_4hipc6client38Hipc2ClientSessionManagedProxyKindBaseINS9_18Hipc2ProxyKindBaseILNS8_6detail11MessageTypeE6EEEEEEENS0_25StatelessAllocationPolicyINS0_22ExpHeapStaticAllocatorILm2048ENS5_6detail12ObjectHolder24ObjectHolderAllocatorTagEEEEENS5_31IAccountServiceForAdministratorENS3_19ProcessModifierImplINS2_21DefaultProxyFilterTagEEEE34_nn_sf_sync_ClearSaveDataThumbnailERKNS5_3UidENS_13ApplicationIdE
 00000000:0000007100044DD0       _ZN2nn2sf4cmif6client6detail13CmifProxyImplINS_7account31IAccountServiceForSystemServiceENS2_19CmifDomainProxyKindINS0_4hipc6client38Hipc2ClientSessionManagedProxyKindBaseINS9_18Hipc2ProxyKindBaseILNS8_6detail11MessageTypeE6EEEEEEENS0_25StatelessAllocationPolicyINS0_22ExpHeapStaticAllocatorILm2048ENS5_6detail12ObjectHolder24ObjectHolderAllocatorTagEEEEENS5_31IAccountServiceForAdministratorENS3_19ProcessModifierImplINS2_21DefaultProxyFilterTagEEEE33_nn_sf_sync_LoadSaveDataThumbnailENS0_3OutIjvEERKNS0_9OutBufferERKNS5_3UidENS_13ApplicationIdE
 00000000:0000007100044E00       _ZN2nn2sf4cmif6client6detail13CmifProxyImplINS_7account31IAccountServiceForSystemServiceENS2_19CmifDomainProxyKindINS0_4hipc6client38Hipc2ClientSessionManagedProxyKindBaseINS9_18Hipc2ProxyKindBaseILNS8_6detail11MessageTypeE6EEEEEEENS0_25StatelessAllocationPolicyINS0_22ExpHeapStaticAllocatorILm2048ENS5_6detail12ObjectHolder24ObjectHolderAllocatorTagEEEEENS5_31IAccountServiceForAdministratorENS3_19ProcessModifierImplINS2_21DefaultProxyFilterTagEEEE41_nn_sf_sync_GetSaveDataThumbnailExistenceENS0_3OutIbvEERKNS5_3UidENS_13ApplicationIdE
 00000000:0000007100044E20       _ZN2nn2sf4cmif6client6detail13CmifProxyImplINS_7account31IAccountServiceForSystemServiceENS2_19CmifDomainProxyKindINS0_4hipc6client38Hipc2ClientSessionManagedProxyKindBaseINS9_18Hipc2ProxyKindBaseILNS8_6detail11MessageTypeE6EEEEEEENS0_25StatelessAllocationPolicyINS0_22ExpHeapStaticAllocatorILm2048ENS5_6detail12ObjectHolder24ObjectHolderAllocatorTagEEEEENS5_31IAccountServiceForAdministratorENS3_19ProcessModifierImplINS2_21DefaultProxyFilterTagEEEE40_nn_sf_sync_ActivateOpenContextRetentionENS0_3OutINS0_13SharedPointerINSJ_14ISessionObjectEEEvEENS_13ApplicationIdE
 00000000:0000007100044EC0       _ZN2nn2sf4cmif6client6detail13CmifProxyImplINS_7account31IAccountServiceForSystemServiceENS2_19CmifDomainProxyKindINS0_4hipc6client38Hipc2ClientSessionManagedProxyKindBaseINS9_18Hipc2ProxyKindBaseILNS8_6detail11MessageTypeE6EEEEEEENS0_25StatelessAllocationPolicyINS0_22ExpHeapStaticAllocatorILm2048ENS5_6detail12ObjectHolder24ObjectHolderAllocatorTagEEEEENS5_31IAccountServiceForAdministratorENS3_19ProcessModifierImplINS2_21DefaultProxyFilterTagEEEE30_nn_sf_sync_ListQualifiedUsersERKNS0_8OutArrayINS5_3UidEEENS_13ApplicationIdE
 00000000:0000007100044EF0       _ZN2nn2sf4cmif6client6detail13CmifProxyImplINS_7account31IAccountServiceForSystemServiceENS2_19CmifDomainProxyKindINS0_4hipc6client38Hipc2ClientSessionManagedProxyKindBaseINS9_18Hipc2ProxyKindBaseILNS8_6detail11MessageTypeE6EEEEEEENS0_25StatelessAllocationPolicyINS0_22ExpHeapStaticAllocatorILm2048ENS5_6detail12ObjectHolder24ObjectHolderAllocatorTagEEEEENS5_31IAccountServiceForAdministratorENS3_19ProcessModifierImplINS2_21DefaultProxyFilterTagEEEE40_nn_sf_sync_GetUserLastOpenedApplicationENS0_3OutINS_13ApplicationIdEvEENST_IjvEERKNS5_3UidE
 00000000:0000007100044F10       _ZN2nn2sf4cmif6client6detail13CmifProxyImplINS_7account31IAccountServiceForSystemServiceENS2_19CmifDomainProxyKindINS0_4hipc6client38Hipc2ClientSessionManagedProxyKindBaseINS9_18Hipc2ProxyKindBaseILNS8_6detail11MessageTypeE6EEEEEEENS0_25StatelessAllocationPolicyINS0_22ExpHeapStaticAllocatorILm2048ENS5_6detail12ObjectHolder24ObjectHolderAllocatorTagEEEEENS5_31IAccountServiceForAdministratorENS3_19ProcessModifierImplINS2_21DefaultProxyFilterTagEEEE42_nn_sf_sync_UpdateNotificationReceiverInfoEv
 00000000:0000007100044F30       _ZN2nn2sf4cmif6client6detail13CmifProxyImplINS_7account31IAccountServiceForSystemServiceENS2_19CmifDomainProxyKindINS0_4hipc6client38Hipc2ClientSessionManagedProxyKindBaseINS9_18Hipc2ProxyKindBaseILNS8_6detail11MessageTypeE6EEEEEEENS0_25StatelessAllocationPolicyINS0_22ExpHeapStaticAllocatorILm2048ENS5_6detail12ObjectHolder24ObjectHolderAllocatorTagEEEEENS5_31IAccountServiceForAdministratorENS3_19ProcessModifierImplINS2_21DefaultProxyFilterTagEEEE44_nn_sf_sync_DebugInvalidateUserResourceCacheERKNS5_3UidE
 00000000:0000007100044F50       _ZN2nn2sf4cmif6client6detail13CmifProxyImplINS_7account31IAccountServiceForSystemServiceENS2_19CmifDomainProxyKindINS0_4hipc6client38Hipc2ClientSessionManagedProxyKindBaseINS9_18Hipc2ProxyKindBaseILNS8_6detail11MessageTypeE6EEEEEEENS0_25StatelessAllocationPolicyINS0_22ExpHeapStaticAllocatorILm2048ENS5_6detail12ObjectHolder24ObjectHolderAllocatorTagEEEEENS5_31IAccountServiceForAdministratorENS3_19ProcessModifierImplINS2_21DefaultProxyFilterTagEEEE34_nn_sf_sync_DebugSetUserStateCloseERKNS5_3UidE
 00000000:0000007100044F70       _ZN2nn2sf4cmif6client6detail13CmifProxyImplINS_7account31IAccountServiceForSystemServiceENS2_19CmifDomainProxyKindINS0_4hipc6client38Hipc2ClientSessionManagedProxyKindBaseINS9_18Hipc2ProxyKindBaseILNS8_6detail11MessageTypeE6EEEEEEENS0_25StatelessAllocationPolicyINS0_22ExpHeapStaticAllocatorILm2048ENS5_6detail12ObjectHolder24ObjectHolderAllocatorTagEEEEENS5_31IAccountServiceForAdministratorENS3_19ProcessModifierImplINS2_21DefaultProxyFilterTagEEEE33_nn_sf_sync_DebugSetUserStateOpenERKNS5_3UidE
 00000000:0000007100044F90       _ZN2nn2sf4cmif6client6detail13CmifProxyImplINS_7account31IAccountServiceForAdministratorENS2_19CmifDomainProxyKindINS0_4hipc6client38Hipc2ClientSessionManagedProxyKindBaseINS9_18Hipc2ProxyKindBaseILNS8_6detail11MessageTypeE6EEEEEEENS0_25StatelessAllocationPolicyINS0_22ExpHeapStaticAllocatorILm2048ENS5_6detail12ObjectHolder24ObjectHolderAllocatorTagEEEEES6_NS3_19ProcessModifierImplINS2_21DefaultProxyFilterTagEEEE33_nn_sf_sync_BeginUserRegistrationENS0_3OutINS5_3UidEvEE
 00000000:0000007100044FB0       _ZN2nn2sf4cmif6client6detail13CmifProxyImplINS_7account31IAccountServiceForAdministratorENS2_19CmifDomainProxyKindINS0_4hipc6client38Hipc2ClientSessionManagedProxyKindBaseINS9_18Hipc2ProxyKindBaseILNS8_6detail11MessageTypeE6EEEEEEENS0_25StatelessAllocationPolicyINS0_22ExpHeapStaticAllocatorILm2048ENS5_6detail12ObjectHolder24ObjectHolderAllocatorTagEEEEES6_NS3_19ProcessModifierImplINS2_21DefaultProxyFilterTagEEEE36_nn_sf_sync_CompleteUserRegistrationERKNS5_3UidE
 00000000:0000007100044FD0       _ZN2nn2sf4cmif6client6detail13CmifProxyImplINS_7account31IAccountServiceForAdministratorENS2_19CmifDomainProxyKindINS0_4hipc6client38Hipc2ClientSessionManagedProxyKindBaseINS9_18Hipc2ProxyKindBaseILNS8_6detail11MessageTypeE6EEEEEEENS0_25StatelessAllocationPolicyINS0_22ExpHeapStaticAllocatorILm2048ENS5_6detail12ObjectHolder24ObjectHolderAllocatorTagEEEEES6_NS3_19ProcessModifierImplINS2_21DefaultProxyFilterTagEEEE34_nn_sf_sync_CancelUserRegistrationERKNS5_3UidE
 00000000:0000007100044FF0       _ZN2nn2sf4cmif6client6detail13CmifProxyImplINS_7account31IAccountServiceForAdministratorENS2_19CmifDomainProxyKindINS0_4hipc6client38Hipc2ClientSessionManagedProxyKindBaseINS9_18Hipc2ProxyKindBaseILNS8_6detail11MessageTypeE6EEEEEEENS0_25StatelessAllocationPolicyINS0_22ExpHeapStaticAllocatorILm2048ENS5_6detail12ObjectHolder24ObjectHolderAllocatorTagEEEEES6_NS3_19ProcessModifierImplINS2_21DefaultProxyFilterTagEEEE22_nn_sf_sync_DeleteUserERKNS5_3UidE
 00000000:0000007100045010       _ZN2nn2sf4cmif6client6detail13CmifProxyImplINS_7account31IAccountServiceForAdministratorENS2_19CmifDomainProxyKindINS0_4hipc6client38Hipc2ClientSessionManagedProxyKindBaseINS9_18Hipc2ProxyKindBaseILNS8_6detail11MessageTypeE6EEEEEEENS0_25StatelessAllocationPolicyINS0_22ExpHeapStaticAllocatorILm2048ENS5_6detail12ObjectHolder24ObjectHolderAllocatorTagEEEEES6_NS3_19ProcessModifierImplINS2_21DefaultProxyFilterTagEEEE27_nn_sf_sync_SetUserPositionERKNS5_3UidEi
 00000000:0000007100045040       _ZN2nn2sf4cmif6client6detail13CmifProxyImplINS_7account31IAccountServiceForAdministratorENS2_19CmifDomainProxyKindINS0_4hipc6client38Hipc2ClientSessionManagedProxyKindBaseINS9_18Hipc2ProxyKindBaseILNS8_6detail11MessageTypeE6EEEEEEENS0_25StatelessAllocationPolicyINS0_22ExpHeapStaticAllocatorILm2048ENS5_6detail12ObjectHolder24ObjectHolderAllocatorTagEEEEES6_NS3_19ProcessModifierImplINS2_21DefaultProxyFilterTagEEEE28_nn_sf_sync_GetProfileEditorENS0_3OutINS0_13SharedPointerINS5_7profile14IProfileEditorEEEvEERKNS5_3UidE
 00000000:00000071000450E0       _ZN2nn2sf4cmif6client6detail13CmifProxyImplINS_7account31IAccountServiceForAdministratorENS2_19CmifDomainProxyKindINS0_4hipc6client38Hipc2ClientSessionManagedProxyKindBaseINS9_18Hipc2ProxyKindBaseILNS8_6detail11MessageTypeE6EEEEEEENS0_25StatelessAllocationPolicyINS0_22ExpHeapStaticAllocatorILm2048ENS5_6detail12ObjectHolder24ObjectHolderAllocatorTagEEEEES6_NS3_19ProcessModifierImplINS2_21DefaultProxyFilterTagEEEE44_nn_sf_sync_CompleteUserRegistrationForciblyERKNS5_3UidE
 00000000:0000007100045100       _ZN2nn2sf4cmif6client6detail13CmifProxyImplINS_7account31IAccountServiceForAdministratorENS2_19CmifDomainProxyKindINS0_4hipc6client38Hipc2ClientSessionManagedProxyKindBaseINS9_18Hipc2ProxyKindBaseILNS8_6detail11MessageTypeE6EEEEEEENS0_25StatelessAllocationPolicyINS0_22ExpHeapStaticAllocatorILm2048ENS5_6detail12ObjectHolder24ObjectHolderAllocatorTagEEEEES6_NS3_19ProcessModifierImplINS2_21DefaultProxyFilterTagEEEE45_nn_sf_sync_CreateFloatingRegistrationRequestENS0_3OutINS0_13SharedPointerINS5_4baas28IFloatingRegistrationRequestEEEvEEONS0_12NativeHandleEj
 00000000:00000071000451B0       _ZN2nn2sf4cmif6client6detail13CmifProxyImplINS_7account31IAccountServiceForAdministratorENS2_19CmifDomainProxyKindINS0_4hipc6client38Hipc2ClientSessionManagedProxyKindBaseINS9_18Hipc2ProxyKindBaseILNS8_6detail11MessageTypeE6EEEEEEENS0_25StatelessAllocationPolicyINS0_22ExpHeapStaticAllocatorILm2048ENS5_6detail12ObjectHolder24ObjectHolderAllocatorTagEEEEES6_NS3_19ProcessModifierImplINS2_21DefaultProxyFilterTagEEEE60_nn_sf_sync_CreateProcedureToRegisterUserWithNintendoAccountENS0_3OutINS0_13SharedPointerINS5_3nas34IOAuthProcedureForUserRegistrationEEEvEEONS0_12NativeHandleEj
 00000000:0000007100045260       _ZN2nn2sf4cmif6client6detail13CmifProxyImplINS_7account31IAccountServiceForAdministratorENS2_19CmifDomainProxyKindINS0_4hipc6client38Hipc2ClientSessionManagedProxyKindBaseINS9_18Hipc2ProxyKindBaseILNS8_6detail11MessageTypeE6EEEEEEENS0_25StatelessAllocationPolicyINS0_22ExpHeapStaticAllocatorILm2048ENS5_6detail12ObjectHolder24ObjectHolderAllocatorTagEEEEES6_NS3_19ProcessModifierImplINS2_21DefaultProxyFilterTagEEEE60_nn_sf_sync_ResumeProcedureToRegisterUserWithNintendoAccountENS0_3OutINS0_13SharedPointerINS5_3nas34IOAuthProcedureForUserRegistrationEEEvEERKNSJ_4UuidEONS0_12NativeHandleEj
 00000000:0000007100045320       _ZN2nn2sf4cmif6client6detail13CmifProxyImplINS_7account31IAccountServiceForAdministratorENS2_19CmifDomainProxyKindINS0_4hipc6client38Hipc2ClientSessionManagedProxyKindBaseINS9_18Hipc2ProxyKindBaseILNS8_6detail11MessageTypeE6EEEEEEENS0_25StatelessAllocationPolicyINS0_22ExpHeapStaticAllocatorILm2048ENS5_6detail12ObjectHolder24ObjectHolderAllocatorTagEEEEES6_NS3_19ProcessModifierImplINS2_21DefaultProxyFilterTagEEEE36_nn_sf_sync_AuthenticateServiceAsyncENS0_3OutINS0_13SharedPointerINSJ_13IAsyncContextEEEvEE
 00000000:00000071000453B0       _ZN2nn2sf4cmif6client6detail13CmifProxyImplINS_7account31IAccountServiceForAdministratorENS2_19CmifDomainProxyKindINS0_4hipc6client38Hipc2ClientSessionManagedProxyKindBaseINS9_18Hipc2ProxyKindBaseILNS8_6detail11MessageTypeE6EEEEEEENS0_25StatelessAllocationPolicyINS0_22ExpHeapStaticAllocatorILm2048ENS5_6detail12ObjectHolder24ObjectHolderAllocatorTagEEEEES6_NS3_19ProcessModifierImplINS2_21DefaultProxyFilterTagEEEE39_nn_sf_sync_GetBaasAccountAdministratorENS0_3OutINS0_13SharedPointerINS5_4baas14IAdministratorEEEvEERKNS5_3UidE
 00000000:0000007100045450       _ZN2nn2sf4cmif6client6detail13CmifProxyImplINS_7account31IAccountServiceForAdministratorENS2_19CmifDomainProxyKindINS0_4hipc6client38Hipc2ClientSessionManagedProxyKindBaseINS9_18Hipc2ProxyKindBaseILNS8_6detail11MessageTypeE6EEEEEEENS0_25StatelessAllocationPolicyINS0_22ExpHeapStaticAllocatorILm2048ENS5_6detail12ObjectHolder24ObjectHolderAllocatorTagEEEEES6_NS3_19ProcessModifierImplINS2_21DefaultProxyFilterTagEEEE58_nn_sf_sync_ProxyProcedureForGuestLoginWithNintendoAccountENS0_3OutINS0_13SharedPointerINS5_3nas29IOAuthProcedureForExternalNsaEEEvEERKNSJ_4UuidE
 00000000:00000071000454F0       _ZN2nn2sf4cmif6client6detail13CmifProxyImplINS_7account31IAccountServiceForAdministratorENS2_19CmifDomainProxyKindINS0_4hipc6client38Hipc2ClientSessionManagedProxyKindBaseINS9_18Hipc2ProxyKindBaseILNS8_6detail11MessageTypeE6EEEEEEENS0_25StatelessAllocationPolicyINS0_22ExpHeapStaticAllocatorILm2048ENS5_6detail12ObjectHolder24ObjectHolderAllocatorTagEEEEES6_NS3_19ProcessModifierImplINS2_21DefaultProxyFilterTagEEEE68_nn_sf_sync_ProxyProcedureForFloatingRegistrationWithNintendoAccountENS0_3OutINS0_13SharedPointerINS5_3nas29IOAuthProcedureForExternalNsaEEEvEERKNSJ_4UuidE
 00000000:0000007100045590       _ZN2nn2sf4cmif6client6detail13CmifProxyImplINS_7account31IAccountServiceForAdministratorENS2_19CmifDomainProxyKindINS0_4hipc6client38Hipc2ClientSessionManagedProxyKindBaseINS9_18Hipc2ProxyKindBaseILNS8_6detail11MessageTypeE6EEEEEEENS0_25StatelessAllocationPolicyINS0_22ExpHeapStaticAllocatorILm2048ENS5_6detail12ObjectHolder24ObjectHolderAllocatorTagEEEEES6_NS3_19ProcessModifierImplINS2_21DefaultProxyFilterTagEEEE35_nn_sf_sync_SuspendBackgroundDaemonENS0_3OutINS0_13SharedPointerINSJ_14ISessionObjectEEEvEE
 00000000:0000007100045620       _ZN2nn2sf4cmif6client6detail13CmifProxyImplINS_7account19IAccountServiceBaseENS2_19CmifDomainProxyKindINS0_4hipc6client38Hipc2ClientSessionManagedProxyKindBaseINS9_18Hipc2ProxyKindBaseILNS8_6detail11MessageTypeE6EEEEEEENS0_25StatelessAllocationPolicyINS0_22ExpHeapStaticAllocatorILm2048ENS5_6detail12ObjectHolder24ObjectHolderAllocatorTagEEEEENS5_31IAccountServiceForAdministratorENS3_19ProcessModifierImplINS2_21DefaultProxyFilterTagEEEE17GetCmifBaseObjectEv
 00000000:0000007100045630       _ZThn32_N2nn2sf4cmif6client6detail13CmifProxyImplINS_7account19IAccountServiceBaseENS2_19CmifDomainProxyKindINS0_4hipc6client38Hipc2ClientSessionManagedProxyKindBaseINS9_18Hipc2ProxyKindBaseILNS8_6detail11MessageTypeE6EEEEEEENS0_25StatelessAllocationPolicyINS0_22ExpHeapStaticAllocatorILm2048ENS5_6detail12ObjectHolder24ObjectHolderAllocatorTagEEEEENS5_31IAccountServiceForAdministratorENS3_19ProcessModifierImplINS2_21DefaultProxyFilterTagEEEE17GetCmifBaseObjectEv
 00000000:0000007100045640       _ZN2nn2sf4cmif6client34CmifDomainProxyClientCoreProcessorINS0_4hipc6client38Hipc2ClientSessionManagedProxyKindBaseINS5_18Hipc2ProxyKindBaseILNS4_6detail11MessageTypeE6EEEEENS1_6detail14CoreMethodInfoINSt3__15tupleIJNSC_17InRawArgumentInfoILm16ELm8ELl8EEENSG_ILm4ELm4ELl0EEEEEELm24ELm0ELb0EEESJ_E7ProcessEPNS2_23CmifDomainClientMessageISB_E15ProxyBaseObjectENS2_23InRawClientArgumentTypeILm16ELm8EvEENSQ_ILm4ELm4EvEEj
 00000000:00000071000457A0       _ZN2nn2sf4cmif6client6detail36GetClientProcessorImplWithObjectBaseINS2_19CmifDomainProxyKindINS0_4hipc6client38Hipc2ClientSessionManagedProxyKindBaseINS7_18Hipc2ProxyKindBaseILNS6_6detail11MessageTypeE6EEEEEEENS3_19ProcessModifierImplINS2_21DefaultProxyFilterTagEEEE14ObjectAssignerINS0_25StatelessAllocationPolicyINS0_22ExpHeapStaticAllocatorILm2048ENS_7account6detail12ObjectHolder24ObjectHolderAllocatorTagEEEEENS0_6detail23StatelessDummyAllocatorEE14AllocateObjectINSM_7profile14IProfileEditorEEEvi
 00000000:0000007100045860       _ZN2nn2sf6detail39ObjectImplFactoryWithStatelessAllocatorINS0_4cmif6client6detail9CmifProxyINS_7account7profile14IProfileEditorENS4_19CmifDomainProxyKindINS0_4hipc6client38Hipc2ClientSessionManagedProxyKindBaseINSC_18Hipc2ProxyKindBaseILNSB_6detail11MessageTypeE6EEEEEEENS0_25StatelessAllocationPolicyINS0_22ExpHeapStaticAllocatorILm2048ENS7_6detail12ObjectHolder24ObjectHolderAllocatorTagEEEEENS5_19ProcessModifierImplINS4_21DefaultProxyFilterTagEEEvEESQ_E6Object12AddReferenceEv
 00000000:0000007100045870       _ZN2nn2sf6detail39ObjectImplFactoryWithStatelessAllocatorINS0_4cmif6client6detail9CmifProxyINS_7account7profile14IProfileEditorENS4_19CmifDomainProxyKindINS0_4hipc6client38Hipc2ClientSessionManagedProxyKindBaseINSC_18Hipc2ProxyKindBaseILNSB_6detail11MessageTypeE6EEEEEEENS0_25StatelessAllocationPolicyINS0_22ExpHeapStaticAllocatorILm2048ENS7_6detail12ObjectHolder24ObjectHolderAllocatorTagEEEEENS5_19ProcessModifierImplINS4_21DefaultProxyFilterTagEEEvEESQ_E6Object7ReleaseEv
 00000000:00000071000458E0       _ZN2nn2sf4cmif6client6detail13CmifProxyImplINS_7account7profile8IProfileENS2_19CmifDomainProxyKindINS0_4hipc6client38Hipc2ClientSessionManagedProxyKindBaseINSA_18Hipc2ProxyKindBaseILNS9_6detail11MessageTypeE6EEEEEEENS0_25StatelessAllocationPolicyINS0_22ExpHeapStaticAllocatorILm2048ENS5_6detail12ObjectHolder24ObjectHolderAllocatorTagEEEEENS6_14IProfileEditorENS3_19ProcessModifierImplINS2_21DefaultProxyFilterTagEEEE12GetProxyInfoEv
 00000000:00000071000458F0       _ZN2nn2sf4cmif6client6detail13CmifProxyImplINS_7account7profile8IProfileENS2_19CmifDomainProxyKindINS0_4hipc6client38Hipc2ClientSessionManagedProxyKindBaseINSA_18Hipc2ProxyKindBaseILNS9_6detail11MessageTypeE6EEEEEEENS0_25StatelessAllocationPolicyINS0_22ExpHeapStaticAllocatorILm2048ENS5_6detail12ObjectHolder24ObjectHolderAllocatorTagEEEEENS6_14IProfileEditorENS3_19ProcessModifierImplINS2_21DefaultProxyFilterTagEEEE15_nn_sf_sync_GetENS0_3OutINS6_11ProfileBaseEvEENSU_INS6_8UserDataEvEE
 00000000:0000007100045920       _ZN2nn2sf4cmif6client6detail13CmifProxyImplINS_7account7profile8IProfileENS2_19CmifDomainProxyKindINS0_4hipc6client38Hipc2ClientSessionManagedProxyKindBaseINSA_18Hipc2ProxyKindBaseILNS9_6detail11MessageTypeE6EEEEEEENS0_25StatelessAllocationPolicyINS0_22ExpHeapStaticAllocatorILm2048ENS5_6detail12ObjectHolder24ObjectHolderAllocatorTagEEEEENS6_14IProfileEditorENS3_19ProcessModifierImplINS2_21DefaultProxyFilterTagEEEE19_nn_sf_sync_GetBaseENS0_3OutINS6_11ProfileBaseEvEE
 00000000:0000007100045940       _ZN2nn2sf4cmif6client6detail13CmifProxyImplINS_7account7profile8IProfileENS2_19CmifDomainProxyKindINS0_4hipc6client38Hipc2ClientSessionManagedProxyKindBaseINSA_18Hipc2ProxyKindBaseILNS9_6detail11MessageTypeE6EEEEEEENS0_25StatelessAllocationPolicyINS0_22ExpHeapStaticAllocatorILm2048ENS5_6detail12ObjectHolder24ObjectHolderAllocatorTagEEEEENS6_14IProfileEditorENS3_19ProcessModifierImplINS2_21DefaultProxyFilterTagEEEE24_nn_sf_sync_GetImageSizeENS0_3OutIjvEE
 00000000:0000007100045960       _ZN2nn2sf4cmif6client6detail13CmifProxyImplINS_7account7profile8IProfileENS2_19CmifDomainProxyKindINS0_4hipc6client38Hipc2ClientSessionManagedProxyKindBaseINSA_18Hipc2ProxyKindBaseILNS9_6detail11MessageTypeE6EEEEEEENS0_25StatelessAllocationPolicyINS0_22ExpHeapStaticAllocatorILm2048ENS5_6detail12ObjectHolder24ObjectHolderAllocatorTagEEEEENS6_14IProfileEditorENS3_19ProcessModifierImplINS2_21DefaultProxyFilterTagEEEE21_nn_sf_sync_LoadImageENS0_3OutIjvEERKNS0_9OutBufferE
 00000000:0000007100045990       _ZN2nn2sf4cmif6client6detail13CmifProxyImplINS_7account7profile14IProfileEditorENS2_19CmifDomainProxyKindINS0_4hipc6client38Hipc2ClientSessionManagedProxyKindBaseINSA_18Hipc2ProxyKindBaseILNS9_6detail11MessageTypeE6EEEEEEENS0_25StatelessAllocationPolicyINS0_22ExpHeapStaticAllocatorILm2048ENS5_6detail12ObjectHolder24ObjectHolderAllocatorTagEEEEES7_NS3_19ProcessModifierImplINS2_21DefaultProxyFilterTagEEEE17_nn_sf_sync_StoreERKNS6_11ProfileBaseERKNS6_8UserDataE
 00000000:00000071000459C0       _ZN2nn2sf4cmif6client6detail13CmifProxyImplINS_7account7profile14IProfileEditorENS2_19CmifDomainProxyKindINS0_4hipc6client38Hipc2ClientSessionManagedProxyKindBaseINSA_18Hipc2ProxyKindBaseILNS9_6detail11MessageTypeE6EEEEEEENS0_25StatelessAllocationPolicyINS0_22ExpHeapStaticAllocatorILm2048ENS5_6detail12ObjectHolder24ObjectHolderAllocatorTagEEEEES7_NS3_19ProcessModifierImplINS2_21DefaultProxyFilterTagEEEE26_nn_sf_sync_StoreWithImageERKNS6_11ProfileBaseERKNS6_8UserDataERKNS0_8InBufferE
 00000000:00000071000459F0       _ZN2nn2sf4cmif6client6detail13CmifProxyImplINS_7account7profile8IProfileENS2_19CmifDomainProxyKindINS0_4hipc6client38Hipc2ClientSessionManagedProxyKindBaseINSA_18Hipc2ProxyKindBaseILNS9_6detail11MessageTypeE6EEEEEEENS0_25StatelessAllocationPolicyINS0_22ExpHeapStaticAllocatorILm2048ENS5_6detail12ObjectHolder24ObjectHolderAllocatorTagEEEEENS6_14IProfileEditorENS3_19ProcessModifierImplINS2_21DefaultProxyFilterTagEEEE17GetCmifBaseObjectEv
 00000000:0000007100045A00       _ZThn32_N2nn2sf4cmif6client6detail13CmifProxyImplINS_7account7profile8IProfileENS2_19CmifDomainProxyKindINS0_4hipc6client38Hipc2ClientSessionManagedProxyKindBaseINSA_18Hipc2ProxyKindBaseILNS9_6detail11MessageTypeE6EEEEEEENS0_25StatelessAllocationPolicyINS0_22ExpHeapStaticAllocatorILm2048ENS5_6detail12ObjectHolder24ObjectHolderAllocatorTagEEEEENS6_14IProfileEditorENS3_19ProcessModifierImplINS2_21DefaultProxyFilterTagEEEE17GetCmifBaseObjectEv
 00000000:0000007100045A10       _ZN2nn2sf4cmif6client34CmifDomainProxyClientCoreProcessorINS0_4hipc6client38Hipc2ClientSessionManagedProxyKindBaseINS5_18Hipc2ProxyKindBaseILNS4_6detail11MessageTypeE6EEEEENS1_6detail14CoreMethodInfoINSt3__15tupleIJNSC_17InRawArgumentInfoILm56ELm8ELl0EEENSC_18BufferArgumentInfoILi0ELi25ELm128EEEEEELm56ELm0ELb0EEESK_E7ProcessEPNS2_23CmifDomainClientMessageISB_E15ProxyBaseObjectENS2_23InRawClientArgumentTypeILm56ELm8EvEENS2_24BufferClientArgumentTypeEj
 00000000:0000007100045C40       _ZN2nn2sf4cmif6client34CmifDomainProxyClientCoreProcessorINS0_4hipc6client38Hipc2ClientSessionManagedProxyKindBaseINS5_18Hipc2ProxyKindBaseILNS4_6detail11MessageTypeE6EEEEENS1_6detail14CoreMethodInfoINSt3__15tupleIJNSC_17InRawArgumentInfoILm56ELm8ELl0EEENSC_18BufferArgumentInfoILi0ELi25ELm128EEENSI_ILi1ELi5ELm0EEEEEELm56ELm0ELb0EEESL_E7ProcessEPNS2_23CmifDomainClientMessageISB_E15ProxyBaseObjectENS2_23InRawClientArgumentTypeILm56ELm8EvEENS2_24BufferClientArgumentTypeESU_j
 00000000:0000007100045E70       _ZN2nn2sf4cmif6client6detail36GetClientProcessorImplWithObjectBaseINS2_19CmifDomainProxyKindINS0_4hipc6client38Hipc2ClientSessionManagedProxyKindBaseINS7_18Hipc2ProxyKindBaseILNS6_6detail11MessageTypeE6EEEEEEENS3_19ProcessModifierImplINS2_21DefaultProxyFilterTagEEEE14ObjectAssignerINS0_25StatelessAllocationPolicyINS0_22ExpHeapStaticAllocatorILm2048ENS_7account6detail12ObjectHolder24ObjectHolderAllocatorTagEEEEENS0_6detail23StatelessDummyAllocatorEE14AllocateObjectINSM_4baas28IFloatingRegistrationRequestEEEvi
 00000000:0000007100045F30       _ZN2nn2sf6detail39ObjectImplFactoryWithStatelessAllocatorINS0_4cmif6client6detail9CmifProxyINS_7account4baas28IFloatingRegistrationRequestENS4_19CmifDomainProxyKindINS0_4hipc6client38Hipc2ClientSessionManagedProxyKindBaseINSC_18Hipc2ProxyKindBaseILNSB_6detail11MessageTypeE6EEEEEEENS0_25StatelessAllocationPolicyINS0_22ExpHeapStaticAllocatorILm2048ENS7_6detail12ObjectHolder24ObjectHolderAllocatorTagEEEEENS5_19ProcessModifierImplINS4_21DefaultProxyFilterTagEEEvEESQ_E6Object12AddReferenceEv
 00000000:0000007100045F40       _ZN2nn2sf6detail39ObjectImplFactoryWithStatelessAllocatorINS0_4cmif6client6detail9CmifProxyINS_7account4baas28IFloatingRegistrationRequestENS4_19CmifDomainProxyKindINS0_4hipc6client38Hipc2ClientSessionManagedProxyKindBaseINSC_18Hipc2ProxyKindBaseILNSB_6detail11MessageTypeE6EEEEEEENS0_25StatelessAllocationPolicyINS0_22ExpHeapStaticAllocatorILm2048ENS7_6detail12ObjectHolder24ObjectHolderAllocatorTagEEEEENS5_19ProcessModifierImplINS4_21DefaultProxyFilterTagEEEvEESQ_E6Object7ReleaseEv
 00000000:0000007100045FB0       _ZN2nn2sf4cmif6client6detail13CmifProxyImplINS_7account4baas18IGuestLoginRequestENS2_19CmifDomainProxyKindINS0_4hipc6client38Hipc2ClientSessionManagedProxyKindBaseINSA_18Hipc2ProxyKindBaseILNS9_6detail11MessageTypeE6EEEEEEENS0_25StatelessAllocationPolicyINS0_22ExpHeapStaticAllocatorILm2048ENS5_6detail12ObjectHolder24ObjectHolderAllocatorTagEEEEENS6_28IFloatingRegistrationRequestENS3_19ProcessModifierImplINS2_21DefaultProxyFilterTagEEEE12GetProxyInfoEv
 00000000:0000007100045FC0       _ZN2nn2sf4cmif6client6detail13CmifProxyImplINS_7account4baas18IGuestLoginRequestENS2_19CmifDomainProxyKindINS0_4hipc6client38Hipc2ClientSessionManagedProxyKindBaseINSA_18Hipc2ProxyKindBaseILNS9_6detail11MessageTypeE6EEEEEEENS0_25StatelessAllocationPolicyINS0_22ExpHeapStaticAllocatorILm2048ENS5_6detail12ObjectHolder24ObjectHolderAllocatorTagEEEEENS6_28IFloatingRegistrationRequestENS3_19ProcessModifierImplINS2_21DefaultProxyFilterTagEEEE24_nn_sf_sync_GetSessionIdENS0_3OutINSK_4UuidEvEE
 00000000:0000007100045FE0       _ZN2nn2sf4cmif6client6detail13CmifProxyImplINS_7account4baas18IGuestLoginRequestENS2_19CmifDomainProxyKindINS0_4hipc6client38Hipc2ClientSessionManagedProxyKindBaseINSA_18Hipc2ProxyKindBaseILNS9_6detail11MessageTypeE6EEEEEEENS0_25StatelessAllocationPolicyINS0_22ExpHeapStaticAllocatorILm2048ENS5_6detail12ObjectHolder24ObjectHolderAllocatorTagEEEEENS6_28IFloatingRegistrationRequestENS3_19ProcessModifierImplINS2_21DefaultProxyFilterTagEEEE24_nn_sf_sync_GetAccountIdENS0_3OutINS5_23NetworkServiceAccountIdEvEE
 00000000:0000007100046000       _ZN2nn2sf4cmif6client6detail13CmifProxyImplINS_7account4baas18IGuestLoginRequestENS2_19CmifDomainProxyKindINS0_4hipc6client38Hipc2ClientSessionManagedProxyKindBaseINSA_18Hipc2ProxyKindBaseILNS9_6detail11MessageTypeE6EEEEEEENS0_25StatelessAllocationPolicyINS0_22ExpHeapStaticAllocatorILm2048ENS5_6detail12ObjectHolder24ObjectHolderAllocatorTagEEEEENS6_28IFloatingRegistrationRequestENS3_19ProcessModifierImplINS2_21DefaultProxyFilterTagEEEE38_nn_sf_sync_GetLinkedNintendoAccountIdENS0_3OutINS5_17NintendoAccountIdEvEE
 00000000:0000007100046020       _ZN2nn2sf4cmif6client6detail13CmifProxyImplINS_7account4baas18IGuestLoginRequestENS2_19CmifDomainProxyKindINS0_4hipc6client38Hipc2ClientSessionManagedProxyKindBaseINSA_18Hipc2ProxyKindBaseILNS9_6detail11MessageTypeE6EEEEEEENS0_25StatelessAllocationPolicyINS0_22ExpHeapStaticAllocatorILm2048ENS5_6detail12ObjectHolder24ObjectHolderAllocatorTagEEEEENS6_28IFloatingRegistrationRequestENS3_19ProcessModifierImplINS2_21DefaultProxyFilterTagEEEE23_nn_sf_sync_GetNicknameERKNS0_8OutArrayIcEE
 00000000:0000007100046050       _ZN2nn2sf4cmif6client6detail13CmifProxyImplINS_7account4baas18IGuestLoginRequestENS2_19CmifDomainProxyKindINS0_4hipc6client38Hipc2ClientSessionManagedProxyKindBaseINSA_18Hipc2ProxyKindBaseILNS9_6detail11MessageTypeE6EEEEEEENS0_25StatelessAllocationPolicyINS0_22ExpHeapStaticAllocatorILm2048ENS5_6detail12ObjectHolder24ObjectHolderAllocatorTagEEEEENS6_28IFloatingRegistrationRequestENS3_19ProcessModifierImplINS2_21DefaultProxyFilterTagEEEE27_nn_sf_sync_GetProfileImageENS0_3OutIjvEERKNS0_9OutBufferE
 00000000:0000007100046080       _ZN2nn2sf4cmif6client6detail13CmifProxyImplINS_7account4baas18IGuestLoginRequestENS2_19CmifDomainProxyKindINS0_4hipc6client38Hipc2ClientSessionManagedProxyKindBaseINSA_18Hipc2ProxyKindBaseILNS9_6detail11MessageTypeE6EEEEEEENS0_25StatelessAllocationPolicyINS0_22ExpHeapStaticAllocatorILm2048ENS5_6detail12ObjectHolder24ObjectHolderAllocatorTagEEEEENS6_28IFloatingRegistrationRequestENS3_19ProcessModifierImplINS2_21DefaultProxyFilterTagEEEE28_nn_sf_sync_LoadIdTokenCacheENS0_3OutIjvEERKNS0_9OutBufferE
 00000000:00000071000460B0       _ZN2nn2sf4cmif6client6detail13CmifProxyImplINS_7account4baas28IFloatingRegistrationRequestENS2_19CmifDomainProxyKindINS0_4hipc6client38Hipc2ClientSessionManagedProxyKindBaseINSA_18Hipc2ProxyKindBaseILNS9_6detail11MessageTypeE6EEEEEEENS0_25StatelessAllocationPolicyINS0_22ExpHeapStaticAllocatorILm2048ENS5_6detail12ObjectHolder24ObjectHolderAllocatorTagEEEEES7_NS3_19ProcessModifierImplINS2_21DefaultProxyFilterTagEEEE24_nn_sf_sync_RegisterUserENS0_3OutINS5_3UidEvEE
 00000000:00000071000460D0       _ZN2nn2sf4cmif6client6detail13CmifProxyImplINS_7account4baas28IFloatingRegistrationRequestENS2_19CmifDomainProxyKindINS0_4hipc6client38Hipc2ClientSessionManagedProxyKindBaseINSA_18Hipc2ProxyKindBaseILNS9_6detail11MessageTypeE6EEEEEEENS0_25StatelessAllocationPolicyINS0_22ExpHeapStaticAllocatorILm2048ENS5_6detail12ObjectHolder24ObjectHolderAllocatorTagEEEEES7_NS3_19ProcessModifierImplINS2_21DefaultProxyFilterTagEEEE31_nn_sf_sync_RegisterUserWithUidERKNS5_3UidE
 00000000:00000071000460F0       _ZN2nn2sf4cmif6client6detail13CmifProxyImplINS_7account4baas28IFloatingRegistrationRequestENS2_19CmifDomainProxyKindINS0_4hipc6client38Hipc2ClientSessionManagedProxyKindBaseINSA_18Hipc2ProxyKindBaseILNS9_6detail11MessageTypeE6EEEEEEENS0_25StatelessAllocationPolicyINS0_22ExpHeapStaticAllocatorILm2048ENS5_6detail12ObjectHolder24ObjectHolderAllocatorTagEEEEES7_NS3_19ProcessModifierImplINS2_21DefaultProxyFilterTagEEEE46_nn_sf_sync_RegisterNetworkServiceAccountAsyncENS0_3OutINS0_13SharedPointerINSK_13IAsyncContextEEEvEE
 00000000:0000007100046180       _ZN2nn2sf4cmif6client6detail13CmifProxyImplINS_7account4baas28IFloatingRegistrationRequestENS2_19CmifDomainProxyKindINS0_4hipc6client38Hipc2ClientSessionManagedProxyKindBaseINSA_18Hipc2ProxyKindBaseILNS9_6detail11MessageTypeE6EEEEEEENS0_25StatelessAllocationPolicyINS0_22ExpHeapStaticAllocatorILm2048ENS5_6detail12ObjectHolder24ObjectHolderAllocatorTagEEEEES7_NS3_19ProcessModifierImplINS2_21DefaultProxyFilterTagEEEE53_nn_sf_sync_RegisterNetworkServiceAccountWithUidAsyncENS0_3OutINS0_13SharedPointerINSK_13IAsyncContextEEEvEERKNS5_3UidE
 00000000:0000007100046220       _ZN2nn2sf4cmif6client6detail13CmifProxyImplINS_7account4baas28IFloatingRegistrationRequestENS2_19CmifDomainProxyKindINS0_4hipc6client38Hipc2ClientSessionManagedProxyKindBaseINSA_18Hipc2ProxyKindBaseILNS9_6detail11MessageTypeE6EEEEEEENS0_25StatelessAllocationPolicyINS0_22ExpHeapStaticAllocatorILm2048ENS5_6detail12ObjectHolder24ObjectHolderAllocatorTagEEEEES7_NS3_19ProcessModifierImplINS2_21DefaultProxyFilterTagEEEE42_nn_sf_sync_SetSystemProgramIdentificationERKNS5_27SystemProgramIdentificationEm
 00000000:0000007100046250       _ZN2nn2sf4cmif6client6detail13CmifProxyImplINS_7account4baas28IFloatingRegistrationRequestENS2_19CmifDomainProxyKindINS0_4hipc6client38Hipc2ClientSessionManagedProxyKindBaseINSA_18Hipc2ProxyKindBaseILNS9_6detail11MessageTypeE6EEEEEEENS0_25StatelessAllocationPolicyINS0_22ExpHeapStaticAllocatorILm2048ENS5_6detail12ObjectHolder24ObjectHolderAllocatorTagEEEEES7_NS3_19ProcessModifierImplINS2_21DefaultProxyFilterTagEEEE35_nn_sf_sync_EnsureIdTokenCacheAsyncENS0_3OutINS0_13SharedPointerINSK_13IAsyncContextEEEvEE
 00000000:00000071000462E0       _ZN2nn2sf4cmif6client6detail13CmifProxyImplINS_7account4baas18IGuestLoginRequestENS2_19CmifDomainProxyKindINS0_4hipc6client38Hipc2ClientSessionManagedProxyKindBaseINSA_18Hipc2ProxyKindBaseILNS9_6detail11MessageTypeE6EEEEEEENS0_25StatelessAllocationPolicyINS0_22ExpHeapStaticAllocatorILm2048ENS5_6detail12ObjectHolder24ObjectHolderAllocatorTagEEEEENS6_28IFloatingRegistrationRequestENS3_19ProcessModifierImplINS2_21DefaultProxyFilterTagEEEE17GetCmifBaseObjectEv
 00000000:00000071000462F0       _ZThn32_N2nn2sf4cmif6client6detail13CmifProxyImplINS_7account4baas18IGuestLoginRequestENS2_19CmifDomainProxyKindINS0_4hipc6client38Hipc2ClientSessionManagedProxyKindBaseINSA_18Hipc2ProxyKindBaseILNS9_6detail11MessageTypeE6EEEEEEENS0_25StatelessAllocationPolicyINS0_22ExpHeapStaticAllocatorILm2048ENS5_6detail12ObjectHolder24ObjectHolderAllocatorTagEEEEENS6_28IFloatingRegistrationRequestENS3_19ProcessModifierImplINS2_21DefaultProxyFilterTagEEEE17GetCmifBaseObjectEv
 00000000:0000007100046300       _ZN2nn2sf4cmif6client6detail36GetClientProcessorImplWithObjectBaseINS2_19CmifDomainProxyKindINS0_4hipc6client38Hipc2ClientSessionManagedProxyKindBaseINS7_18Hipc2ProxyKindBaseILNS6_6detail11MessageTypeE6EEEEEEENS3_19ProcessModifierImplINS2_21DefaultProxyFilterTagEEEE14ObjectAssignerINS0_25StatelessAllocationPolicyINS0_22ExpHeapStaticAllocatorILm2048ENS_7account6detail12ObjectHolder24ObjectHolderAllocatorTagEEEEENS0_6detail23StatelessDummyAllocatorEE14AllocateObjectINSM_3nas34IOAuthProcedureForUserRegistrationEEEvi
 00000000:00000071000463C0       _ZN2nn2sf6detail39ObjectImplFactoryWithStatelessAllocatorINS0_4cmif6client6detail9CmifProxyINS_7account3nas34IOAuthProcedureForUserRegistrationENS4_19CmifDomainProxyKindINS0_4hipc6client38Hipc2ClientSessionManagedProxyKindBaseINSC_18Hipc2ProxyKindBaseILNSB_6detail11MessageTypeE6EEEEEEENS0_25StatelessAllocationPolicyINS0_22ExpHeapStaticAllocatorILm2048ENS7_6detail12ObjectHolder24ObjectHolderAllocatorTagEEEEENS5_19ProcessModifierImplINS4_21DefaultProxyFilterTagEEEvEESQ_E6Object12AddReferenceEv
 00000000:00000071000463D0       _ZN2nn2sf6detail39ObjectImplFactoryWithStatelessAllocatorINS0_4cmif6client6detail9CmifProxyINS_7account3nas34IOAuthProcedureForUserRegistrationENS4_19CmifDomainProxyKindINS0_4hipc6client38Hipc2ClientSessionManagedProxyKindBaseINSC_18Hipc2ProxyKindBaseILNSB_6detail11MessageTypeE6EEEEEEENS0_25StatelessAllocationPolicyINS0_22ExpHeapStaticAllocatorILm2048ENS7_6detail12ObjectHolder24ObjectHolderAllocatorTagEEEEENS5_19ProcessModifierImplINS4_21DefaultProxyFilterTagEEEvEESQ_E6Object7ReleaseEv
 00000000:0000007100046440       _ZN2nn2sf4cmif6client6detail13CmifProxyImplINS_7account4http15IOAuthProcedureENS2_19CmifDomainProxyKindINS0_4hipc6client38Hipc2ClientSessionManagedProxyKindBaseINSA_18Hipc2ProxyKindBaseILNS9_6detail11MessageTypeE6EEEEEEENS0_25StatelessAllocationPolicyINS0_22ExpHeapStaticAllocatorILm2048ENS5_6detail12ObjectHolder24ObjectHolderAllocatorTagEEEEENS5_3nas34IOAuthProcedureForUserRegistrationENS3_19ProcessModifierImplINS2_21DefaultProxyFilterTagEEEE12GetProxyInfoEv
 00000000:0000007100046450       _ZN2nn2sf4cmif6client6detail13CmifProxyImplINS_7account4http15IOAuthProcedureENS2_19CmifDomainProxyKindINS0_4hipc6client38Hipc2ClientSessionManagedProxyKindBaseINSA_18Hipc2ProxyKindBaseILNS9_6detail11MessageTypeE6EEEEEEENS0_25StatelessAllocationPolicyINS0_22ExpHeapStaticAllocatorILm2048ENS5_6detail12ObjectHolder24ObjectHolderAllocatorTagEEEEENS5_3nas34IOAuthProcedureForUserRegistrationENS3_19ProcessModifierImplINS2_21DefaultProxyFilterTagEEEE24_nn_sf_sync_PrepareAsyncENS0_3OutINS0_13SharedPointerINSK_13IAsyncContextEEEvEE
 00000000:00000071000464E0       _ZN2nn2sf4cmif6client6detail13CmifProxyImplINS_7account4http15IOAuthProcedureENS2_19CmifDomainProxyKindINS0_4hipc6client38Hipc2ClientSessionManagedProxyKindBaseINSA_18Hipc2ProxyKindBaseILNS9_6detail11MessageTypeE6EEEEEEENS0_25StatelessAllocationPolicyINS0_22ExpHeapStaticAllocatorILm2048ENS5_6detail12ObjectHolder24ObjectHolderAllocatorTagEEEEENS5_3nas34IOAuthProcedureForUserRegistrationENS3_19ProcessModifierImplINS2_21DefaultProxyFilterTagEEEE22_nn_sf_sync_GetRequestENS0_3OutINS5_10RequestUrlEvEENSV_INS5_11CallbackUriEvEE
 00000000:0000007100046510       _ZN2nn2sf4cmif6client6detail13CmifProxyImplINS_7account4http15IOAuthProcedureENS2_19CmifDomainProxyKindINS0_4hipc6client38Hipc2ClientSessionManagedProxyKindBaseINSA_18Hipc2ProxyKindBaseILNS9_6detail11MessageTypeE6EEEEEEENS0_25StatelessAllocationPolicyINS0_22ExpHeapStaticAllocatorILm2048ENS5_6detail12ObjectHolder24ObjectHolderAllocatorTagEEEEENS5_3nas34IOAuthProcedureForUserRegistrationENS3_19ProcessModifierImplINS2_21DefaultProxyFilterTagEEEE25_nn_sf_sync_ApplyResponseERKNS0_7InArrayIcEE
 00000000:0000007100046540       _ZN2nn2sf4cmif6client6detail13CmifProxyImplINS_7account4http15IOAuthProcedureENS2_19CmifDomainProxyKindINS0_4hipc6client38Hipc2ClientSessionManagedProxyKindBaseINSA_18Hipc2ProxyKindBaseILNS9_6detail11MessageTypeE6EEEEEEENS0_25StatelessAllocationPolicyINS0_22ExpHeapStaticAllocatorILm2048ENS5_6detail12ObjectHolder24ObjectHolderAllocatorTagEEEEENS5_3nas34IOAuthProcedureForUserRegistrationENS3_19ProcessModifierImplINS2_21DefaultProxyFilterTagEEEE30_nn_sf_sync_ApplyResponseAsyncENS0_3OutINS0_13SharedPointerINSK_13IAsyncContextEEEvEERKNS0_7InArrayIcEE
 00000000:00000071000465E0       _ZN2nn2sf4cmif6client6detail13CmifProxyImplINS_7account4http15IOAuthProcedureENS2_19CmifDomainProxyKindINS0_4hipc6client38Hipc2ClientSessionManagedProxyKindBaseINSA_18Hipc2ProxyKindBaseILNS9_6detail11MessageTypeE6EEEEEEENS0_25StatelessAllocationPolicyINS0_22ExpHeapStaticAllocatorILm2048ENS5_6detail12ObjectHolder24ObjectHolderAllocatorTagEEEEENS5_3nas34IOAuthProcedureForUserRegistrationENS3_19ProcessModifierImplINS2_21DefaultProxyFilterTagEEEE19_nn_sf_sync_SuspendENS0_3OutINSK_4UuidEvEE
 00000000:0000007100046600       _ZN2nn2sf4cmif6client6detail13CmifProxyImplINS_7account3nas34IOAuthProcedureForUserRegistrationENS2_19CmifDomainProxyKindINS0_4hipc6client38Hipc2ClientSessionManagedProxyKindBaseINSA_18Hipc2ProxyKindBaseILNS9_6detail11MessageTypeE6EEEEEEENS0_25StatelessAllocationPolicyINS0_22ExpHeapStaticAllocatorILm2048ENS5_6detail12ObjectHolder24ObjectHolderAllocatorTagEEEEES7_NS3_19ProcessModifierImplINS2_21DefaultProxyFilterTagEEEE24_nn_sf_sync_GetAccountIdENS0_3OutINS5_23NetworkServiceAccountIdEvEE
 00000000:0000007100046620       _ZN2nn2sf4cmif6client6detail13CmifProxyImplINS_7account3nas34IOAuthProcedureForUserRegistrationENS2_19CmifDomainProxyKindINS0_4hipc6client38Hipc2ClientSessionManagedProxyKindBaseINSA_18Hipc2ProxyKindBaseILNS9_6detail11MessageTypeE6EEEEEEENS0_25StatelessAllocationPolicyINS0_22ExpHeapStaticAllocatorILm2048ENS5_6detail12ObjectHolder24ObjectHolderAllocatorTagEEEEES7_NS3_19ProcessModifierImplINS2_21DefaultProxyFilterTagEEEE38_nn_sf_sync_GetLinkedNintendoAccountIdENS0_3OutINS5_17NintendoAccountIdEvEE
 00000000:0000007100046640       _ZN2nn2sf4cmif6client6detail13CmifProxyImplINS_7account3nas34IOAuthProcedureForUserRegistrationENS2_19CmifDomainProxyKindINS0_4hipc6client38Hipc2ClientSessionManagedProxyKindBaseINSA_18Hipc2ProxyKindBaseILNS9_6detail11MessageTypeE6EEEEEEENS0_25StatelessAllocationPolicyINS0_22ExpHeapStaticAllocatorILm2048ENS5_6detail12ObjectHolder24ObjectHolderAllocatorTagEEEEES7_NS3_19ProcessModifierImplINS2_21DefaultProxyFilterTagEEEE23_nn_sf_sync_GetNicknameERKNS0_8OutArrayIcEE
 00000000:0000007100046670       _ZN2nn2sf4cmif6client6detail13CmifProxyImplINS_7account3nas34IOAuthProcedureForUserRegistrationENS2_19CmifDomainProxyKindINS0_4hipc6client38Hipc2ClientSessionManagedProxyKindBaseINSA_18Hipc2ProxyKindBaseILNS9_6detail11MessageTypeE6EEEEEEENS0_25StatelessAllocationPolicyINS0_22ExpHeapStaticAllocatorILm2048ENS5_6detail12ObjectHolder24ObjectHolderAllocatorTagEEEEES7_NS3_19ProcessModifierImplINS2_21DefaultProxyFilterTagEEEE27_nn_sf_sync_GetProfileImageENS0_3OutIjvEERKNS0_9OutBufferE
 00000000:00000071000466A0       _ZN2nn2sf4cmif6client6detail13CmifProxyImplINS_7account3nas34IOAuthProcedureForUserRegistrationENS2_19CmifDomainProxyKindINS0_4hipc6client38Hipc2ClientSessionManagedProxyKindBaseINSA_18Hipc2ProxyKindBaseILNS9_6detail11MessageTypeE6EEEEEEENS0_25StatelessAllocationPolicyINS0_22ExpHeapStaticAllocatorILm2048ENS5_6detail12ObjectHolder24ObjectHolderAllocatorTagEEEEES7_NS3_19ProcessModifierImplINS2_21DefaultProxyFilterTagEEEE29_nn_sf_sync_RegisterUserAsyncENS0_3OutINS0_13SharedPointerINSK_13IAsyncContextEEEvEE
 00000000:0000007100046730       _ZN2nn2sf4cmif6client6detail13CmifProxyImplINS_7account3nas34IOAuthProcedureForUserRegistrationENS2_19CmifDomainProxyKindINS0_4hipc6client38Hipc2ClientSessionManagedProxyKindBaseINSA_18Hipc2ProxyKindBaseILNS9_6detail11MessageTypeE6EEEEEEENS0_25StatelessAllocationPolicyINS0_22ExpHeapStaticAllocatorILm2048ENS5_6detail12ObjectHolder24ObjectHolderAllocatorTagEEEEES7_NS3_19ProcessModifierImplINS2_21DefaultProxyFilterTagEEEE18_nn_sf_sync_GetUidENS0_3OutINS5_3UidEvEE
 00000000:0000007100046750       _ZN2nn2sf4cmif6client6detail13CmifProxyImplINS_7account4http15IOAuthProcedureENS2_19CmifDomainProxyKindINS0_4hipc6client38Hipc2ClientSessionManagedProxyKindBaseINSA_18Hipc2ProxyKindBaseILNS9_6detail11MessageTypeE6EEEEEEENS0_25StatelessAllocationPolicyINS0_22ExpHeapStaticAllocatorILm2048ENS5_6detail12ObjectHolder24ObjectHolderAllocatorTagEEEEENS5_3nas34IOAuthProcedureForUserRegistrationENS3_19ProcessModifierImplINS2_21DefaultProxyFilterTagEEEE17GetCmifBaseObjectEv
 00000000:0000007100046760       _ZThn32_N2nn2sf4cmif6client6detail13CmifProxyImplINS_7account4http15IOAuthProcedureENS2_19CmifDomainProxyKindINS0_4hipc6client38Hipc2ClientSessionManagedProxyKindBaseINSA_18Hipc2ProxyKindBaseILNS9_6detail11MessageTypeE6EEEEEEENS0_25StatelessAllocationPolicyINS0_22ExpHeapStaticAllocatorILm2048ENS5_6detail12ObjectHolder24ObjectHolderAllocatorTagEEEEENS5_3nas34IOAuthProcedureForUserRegistrationENS3_19ProcessModifierImplINS2_21DefaultProxyFilterTagEEEE17GetCmifBaseObjectEv
 00000000:0000007100046770       _ZN2nn2sf4cmif6client34CmifDomainProxyClientCoreProcessorINS0_4hipc6client38Hipc2ClientSessionManagedProxyKindBaseINS5_18Hipc2ProxyKindBaseILNS4_6detail11MessageTypeE6EEEEENS1_6detail14CoreMethodInfoINSt3__15tupleIJNSC_18BufferArgumentInfoILi0ELi26ELm4096EEENSG_ILi1ELi26ELm256EEEEEELm0ELm0ELb0EEESJ_E7ProcessEPNS2_23CmifDomainClientMessageISB_E15ProxyBaseObjectENS2_24BufferClientArgumentTypeESQ_j
 00000000:0000007100046980       _ZN2nn2sf4cmif6client34CmifDomainProxyClientCoreProcessorINS0_4hipc6client38Hipc2ClientSessionManagedProxyKindBaseINS5_18Hipc2ProxyKindBaseILNS4_6detail11MessageTypeE6EEEEENS1_6detail14CoreMethodInfoINSt3__15tupleIJNSC_18BufferArgumentInfoILi0ELi9ELm0EEEEEELm0ELm0ELb0EEESI_E7ProcessEPNS2_23CmifDomainClientMessageISB_E15ProxyBaseObjectENS2_24BufferClientArgumentTypeEj
 00000000:0000007100046B80       _ZN2nn2sf4cmif6client34CmifDomainProxyClientCoreProcessorINS0_4hipc6client38Hipc2ClientSessionManagedProxyKindBaseINS5_18Hipc2ProxyKindBaseILNS4_6detail11MessageTypeE6EEEEENS1_6detail14CoreMethodInfoINSt3__15tupleIJNSC_21OutObjectArgumentInfoILi0ELi0EEENSC_18BufferArgumentInfoILi0ELi9ELm0EEEEEELm0ELm0ELb0EEESK_E21ProcessWithOutObjectsEPNS2_23CmifDomainClientMessageISB_E15ProxyBaseObjectENS2_27OutObjectClientArgumentTypeENS2_24BufferClientArgumentTypeEjPNS0_13SharedPointerINS0_14IServiceObjectEEE
 00000000:0000007100046E10       _ZN2nn2sf4cmif6client34CmifDomainProxyClientCoreProcessorINS0_4hipc6client38Hipc2ClientSessionManagedProxyKindBaseINS5_18Hipc2ProxyKindBaseILNS4_6detail11MessageTypeE6EEEEENS1_6detail14CoreMethodInfoINSt3__15tupleIJNSC_21OutObjectArgumentInfoILi0ELi0EEENSC_17InRawArgumentInfoILm16ELm4ELl0EEENSC_20InHandleArgumentInfoILi0ELi1EEENSI_ILm4ELm4ELl16EEEEEELm20ELm0ELb0EEESN_E21ProcessWithOutObjectsEPNS2_23CmifDomainClientMessageISB_E15ProxyBaseObjectENS2_27OutObjectClientArgumentTypeENS2_23InRawClientArgumentTypeILm16ELm4EvEENS2_26InHandleClientArgumentTypeENSV_ILm4ELm4EvEEjPNS0_13SharedPointerINS0_14IServiceObjectEEE
 00000000:0000007100047040       _ZN2nn2sf4cmif6client6detail36GetClientProcessorImplWithObjectBaseINS2_19CmifDomainProxyKindINS0_4hipc6client38Hipc2ClientSessionManagedProxyKindBaseINS7_18Hipc2ProxyKindBaseILNS6_6detail11MessageTypeE6EEEEEEENS3_19ProcessModifierImplINS2_21DefaultProxyFilterTagEEEE14ObjectAssignerINS0_25StatelessAllocationPolicyINS0_22ExpHeapStaticAllocatorILm2048ENS_7account6detail12ObjectHolder24ObjectHolderAllocatorTagEEEEENS0_6detail23StatelessDummyAllocatorEE14AllocateObjectINSM_4baas14IAdministratorEEEvi
 00000000:0000007100047100       _ZN2nn2sf6detail39ObjectImplFactoryWithStatelessAllocatorINS0_4cmif6client6detail9CmifProxyINS_7account4baas14IAdministratorENS4_19CmifDomainProxyKindINS0_4hipc6client38Hipc2ClientSessionManagedProxyKindBaseINSC_18Hipc2ProxyKindBaseILNSB_6detail11MessageTypeE6EEEEEEENS0_25StatelessAllocationPolicyINS0_22ExpHeapStaticAllocatorILm2048ENS7_6detail12ObjectHolder24ObjectHolderAllocatorTagEEEEENS5_19ProcessModifierImplINS4_21DefaultProxyFilterTagEEEvEESQ_E6Object12AddReferenceEv
 00000000:0000007100047110       _ZN2nn2sf6detail39ObjectImplFactoryWithStatelessAllocatorINS0_4cmif6client6detail9CmifProxyINS_7account4baas14IAdministratorENS4_19CmifDomainProxyKindINS0_4hipc6client38Hipc2ClientSessionManagedProxyKindBaseINSC_18Hipc2ProxyKindBaseILNSB_6detail11MessageTypeE6EEEEEEENS0_25StatelessAllocationPolicyINS0_22ExpHeapStaticAllocatorILm2048ENS7_6detail12ObjectHolder24ObjectHolderAllocatorTagEEEEENS5_19ProcessModifierImplINS4_21DefaultProxyFilterTagEEEvEESQ_E6Object7ReleaseEv
 00000000:0000007100047180       _ZN2nn2sf4cmif6client6detail13CmifProxyImplINS_7account4baas12IManagerBaseENS2_19CmifDomainProxyKindINS0_4hipc6client38Hipc2ClientSessionManagedProxyKindBaseINSA_18Hipc2ProxyKindBaseILNS9_6detail11MessageTypeE6EEEEEEENS0_25StatelessAllocationPolicyINS0_22ExpHeapStaticAllocatorILm2048ENS5_6detail12ObjectHolder24ObjectHolderAllocatorTagEEEEENS6_14IAdministratorENS3_19ProcessModifierImplINS2_21DefaultProxyFilterTagEEEE12GetProxyInfoEv
 00000000:0000007100047190       _ZN2nn2sf4cmif6client6detail13CmifProxyImplINS_7account4baas12IManagerBaseENS2_19CmifDomainProxyKindINS0_4hipc6client38Hipc2ClientSessionManagedProxyKindBaseINSA_18Hipc2ProxyKindBaseILNS9_6detail11MessageTypeE6EEEEEEENS0_25StatelessAllocationPolicyINS0_22ExpHeapStaticAllocatorILm2048ENS5_6detail12ObjectHolder24ObjectHolderAllocatorTagEEEEENS6_14IAdministratorENS3_19ProcessModifierImplINS2_21DefaultProxyFilterTagEEEE29_nn_sf_sync_CheckAvailabilityEv
 00000000:00000071000471B0       _ZN2nn2sf4cmif6client6detail13CmifProxyImplINS_7account4baas12IManagerBaseENS2_19CmifDomainProxyKindINS0_4hipc6client38Hipc2ClientSessionManagedProxyKindBaseINSA_18Hipc2ProxyKindBaseILNS9_6detail11MessageTypeE6EEEEEEENS0_25StatelessAllocationPolicyINS0_22ExpHeapStaticAllocatorILm2048ENS5_6detail12ObjectHolder24ObjectHolderAllocatorTagEEEEENS6_14IAdministratorENS3_19ProcessModifierImplINS2_21DefaultProxyFilterTagEEEE24_nn_sf_sync_GetAccountIdENS0_3OutINS5_23NetworkServiceAccountIdEvEE
 00000000:00000071000471D0       _ZN2nn2sf4cmif6client6detail13CmifProxyImplINS_7account4baas12IManagerBaseENS2_19CmifDomainProxyKindINS0_4hipc6client38Hipc2ClientSessionManagedProxyKindBaseINSA_18Hipc2ProxyKindBaseILNS9_6detail11MessageTypeE6EEEEEEENS0_25StatelessAllocationPolicyINS0_22ExpHeapStaticAllocatorILm2048ENS5_6detail12ObjectHolder24ObjectHolderAllocatorTagEEEEENS6_14IAdministratorENS3_19ProcessModifierImplINS2_21DefaultProxyFilterTagEEEE35_nn_sf_sync_EnsureIdTokenCacheAsyncENS0_3OutINS0_13SharedPointerINSK_13IAsyncContextEEEvEE
 00000000:0000007100047260       _ZN2nn2sf4cmif6client6detail13CmifProxyImplINS_7account4baas12IManagerBaseENS2_19CmifDomainProxyKindINS0_4hipc6client38Hipc2ClientSessionManagedProxyKindBaseINSA_18Hipc2ProxyKindBaseILNS9_6detail11MessageTypeE6EEEEEEENS0_25StatelessAllocationPolicyINS0_22ExpHeapStaticAllocatorILm2048ENS5_6detail12ObjectHolder24ObjectHolderAllocatorTagEEEEENS6_14IAdministratorENS3_19ProcessModifierImplINS2_21DefaultProxyFilterTagEEEE28_nn_sf_sync_LoadIdTokenCacheENS0_3OutIjvEERKNS0_9OutBufferE
 00000000:0000007100047290       _ZN2nn2sf4cmif6client6detail13CmifProxyImplINS_7account4baas24IManagerForSystemServiceENS2_19CmifDomainProxyKindINS0_4hipc6client38Hipc2ClientSessionManagedProxyKindBaseINSA_18Hipc2ProxyKindBaseILNS9_6detail11MessageTypeE6EEEEEEENS0_25StatelessAllocationPolicyINS0_22ExpHeapStaticAllocatorILm2048ENS5_6detail12ObjectHolder24ObjectHolderAllocatorTagEEEEENS6_14IAdministratorENS3_19ProcessModifierImplINS2_21DefaultProxyFilterTagEEEE42_nn_sf_sync_SetSystemProgramIdentificationERKNS5_27SystemProgramIdentificationEm
 00000000:00000071000472C0       _ZN2nn2sf4cmif6client6detail13CmifProxyImplINS_7account4baas24IManagerForSystemServiceENS2_19CmifDomainProxyKindINS0_4hipc6client38Hipc2ClientSessionManagedProxyKindBaseINSA_18Hipc2ProxyKindBaseILNS9_6detail11MessageTypeE6EEEEEEENS0_25StatelessAllocationPolicyINS0_22ExpHeapStaticAllocatorILm2048ENS5_6detail12ObjectHolder24ObjectHolderAllocatorTagEEEEENS6_14IAdministratorENS3_19ProcessModifierImplINS2_21DefaultProxyFilterTagEEEE41_nn_sf_sync_RefreshNotificationTokenAsyncENS0_3OutINS0_13SharedPointerINSK_13IAsyncContextEEEvEE
 00000000:0000007100047350       _ZN2nn2sf4cmif6client6detail13CmifProxyImplINS_7account4baas24IManagerForSystemServiceENS2_19CmifDomainProxyKindINS0_4hipc6client38Hipc2ClientSessionManagedProxyKindBaseINSA_18Hipc2ProxyKindBaseILNS9_6detail11MessageTypeE6EEEEEEENS0_25StatelessAllocationPolicyINS0_22ExpHeapStaticAllocatorILm2048ENS5_6detail12ObjectHolder24ObjectHolderAllocatorTagEEEEENS6_14IAdministratorENS3_19ProcessModifierImplINS2_21DefaultProxyFilterTagEEEE51_nn_sf_sync_GetServiceEntryRequirementCacheForLoginENS0_3OutIjvEENS_13ApplicationIdE
 00000000:0000007100047370       _ZN2nn2sf4cmif6client6detail13CmifProxyImplINS_7account4baas24IManagerForSystemServiceENS2_19CmifDomainProxyKindINS0_4hipc6client38Hipc2ClientSessionManagedProxyKindBaseINSA_18Hipc2ProxyKindBaseILNS9_6detail11MessageTypeE6EEEEEEENS0_25StatelessAllocationPolicyINS0_22ExpHeapStaticAllocatorILm2048ENS5_6detail12ObjectHolder24ObjectHolderAllocatorTagEEEEENS6_14IAdministratorENS3_19ProcessModifierImplINS2_21DefaultProxyFilterTagEEEE50_nn_sf_sync_InvalidateServiceEntryRequirementCacheENS_13ApplicationIdE
 00000000:0000007100047390       _ZN2nn2sf4cmif6client6detail13CmifProxyImplINS_7account4baas24IManagerForSystemServiceENS2_19CmifDomainProxyKindINS0_4hipc6client38Hipc2ClientSessionManagedProxyKindBaseINSA_18Hipc2ProxyKindBaseILNS9_6detail11MessageTypeE6EEEEEEENS0_25StatelessAllocationPolicyINS0_22ExpHeapStaticAllocatorILm2048ENS5_6detail12ObjectHolder24ObjectHolderAllocatorTagEEEEENS6_14IAdministratorENS3_19ProcessModifierImplINS2_21DefaultProxyFilterTagEEEE56_nn_sf_sync_GetServiceEntryRequirementCacheForOnlinePlayENS0_3OutIjvEENS_13ApplicationIdE
 00000000:00000071000473B0       _ZN2nn2sf4cmif6client6detail13CmifProxyImplINS_7account4baas24IManagerForSystemServiceENS2_19CmifDomainProxyKindINS0_4hipc6client38Hipc2ClientSessionManagedProxyKindBaseINSA_18Hipc2ProxyKindBaseILNS9_6detail11MessageTypeE6EEEEEEENS0_25StatelessAllocationPolicyINS0_22ExpHeapStaticAllocatorILm2048ENS5_6detail12ObjectHolder24ObjectHolderAllocatorTagEEEEENS6_14IAdministratorENS3_19ProcessModifierImplINS2_21DefaultProxyFilterTagEEEE32_nn_sf_sync_GetNintendoAccountIdENS0_3OutINS5_17NintendoAccountIdEvEE
 00000000:00000071000473D0       _ZN2nn2sf4cmif6client6detail13CmifProxyImplINS_7account4baas24IManagerForSystemServiceENS2_19CmifDomainProxyKindINS0_4hipc6client38Hipc2ClientSessionManagedProxyKindBaseINSA_18Hipc2ProxyKindBaseILNS9_6detail11MessageTypeE6EEEEEEENS0_25StatelessAllocationPolicyINS0_22ExpHeapStaticAllocatorILm2048ENS5_6detail12ObjectHolder24ObjectHolderAllocatorTagEEEEENS6_14IAdministratorENS3_19ProcessModifierImplINS2_21DefaultProxyFilterTagEEEE47_nn_sf_sync_GetNintendoAccountUserResourceCacheENS0_3OutINS5_17NintendoAccountIdEvEENSU_INS5_3nas11NasUserBaseEvEERKNS0_9OutBufferE
 00000000:0000007100047400       _ZN2nn2sf4cmif6client6detail13CmifProxyImplINS_7account4baas24IManagerForSystemServiceENS2_19CmifDomainProxyKindINS0_4hipc6client38Hipc2ClientSessionManagedProxyKindBaseINSA_18Hipc2ProxyKindBaseILNS9_6detail11MessageTypeE6EEEEEEENS0_25StatelessAllocationPolicyINS0_22ExpHeapStaticAllocatorILm2048ENS5_6detail12ObjectHolder24ObjectHolderAllocatorTagEEEEENS6_14IAdministratorENS3_19ProcessModifierImplINS2_21DefaultProxyFilterTagEEEE56_nn_sf_sync_RefreshNintendoAccountUserResourceCacheAsyncENS0_3OutINS0_13SharedPointerINSK_13IAsyncContextEEEvEE
 00000000:0000007100047490       _ZN2nn2sf4cmif6client6detail13CmifProxyImplINS_7account4baas24IManagerForSystemServiceENS2_19CmifDomainProxyKindINS0_4hipc6client38Hipc2ClientSessionManagedProxyKindBaseINSA_18Hipc2ProxyKindBaseILNS9_6detail11MessageTypeE6EEEEEEENS0_25StatelessAllocationPolicyINS0_22ExpHeapStaticAllocatorILm2048ENS5_6detail12ObjectHolder24ObjectHolderAllocatorTagEEEEENS6_14IAdministratorENS3_19ProcessModifierImplINS2_21DefaultProxyFilterTagEEEE72_nn_sf_sync_RefreshNintendoAccountUserResourceCacheAsyncIfSecondsElapsedENS0_3OutIbvEENSU_INS0_13SharedPointerINSK_13IAsyncContextEEEvEEj
 00000000:0000007100047540       _ZN2nn2sf4cmif6client6detail13CmifProxyImplINS_7account4baas24IManagerForSystemServiceENS2_19CmifDomainProxyKindINS0_4hipc6client38Hipc2ClientSessionManagedProxyKindBaseINSA_18Hipc2ProxyKindBaseILNS9_6detail11MessageTypeE6EEEEEEENS0_25StatelessAllocationPolicyINS0_22ExpHeapStaticAllocatorILm2048ENS5_6detail12ObjectHolder24ObjectHolderAllocatorTagEEEEENS6_14IAdministratorENS3_19ProcessModifierImplINS2_21DefaultProxyFilterTagEEEE41_nn_sf_sync_GetNetworkServiceLicenseCacheENS0_3OutIivEENSU_INS_4time9PosixTimeEvEE
 00000000:0000007100047560       _ZN2nn2sf4cmif6client6detail13CmifProxyImplINS_7account4baas24IManagerForSystemServiceENS2_19CmifDomainProxyKindINS0_4hipc6client38Hipc2ClientSessionManagedProxyKindBaseINSA_18Hipc2ProxyKindBaseILNS9_6detail11MessageTypeE6EEEEEEENS0_25StatelessAllocationPolicyINS0_22ExpHeapStaticAllocatorILm2048ENS5_6detail12ObjectHolder24ObjectHolderAllocatorTagEEEEENS6_14IAdministratorENS3_19ProcessModifierImplINS2_21DefaultProxyFilterTagEEEE50_nn_sf_sync_RefreshNetworkServiceLicenseCacheAsyncENS0_3OutINS0_13SharedPointerINSK_13IAsyncContextEEEvEE
 00000000:00000071000475F0       _ZN2nn2sf4cmif6client6detail13CmifProxyImplINS_7account4baas24IManagerForSystemServiceENS2_19CmifDomainProxyKindINS0_4hipc6client38Hipc2ClientSessionManagedProxyKindBaseINSA_18Hipc2ProxyKindBaseILNS9_6detail11MessageTypeE6EEEEEEENS0_25StatelessAllocationPolicyINS0_22ExpHeapStaticAllocatorILm2048ENS5_6detail12ObjectHolder24ObjectHolderAllocatorTagEEEEENS6_14IAdministratorENS3_19ProcessModifierImplINS2_21DefaultProxyFilterTagEEEE66_nn_sf_sync_RefreshNetworkServiceLicenseCacheAsyncIfSecondsElapsedENS0_3OutIbvEENSU_INS0_13SharedPointerINSK_13IAsyncContextEEEvEEj
 00000000:00000071000476A0       _ZN2nn2sf4cmif6client6detail13CmifProxyImplINS_7account4baas24IManagerForSystemServiceENS2_19CmifDomainProxyKindINS0_4hipc6client38Hipc2ClientSessionManagedProxyKindBaseINSA_18Hipc2ProxyKindBaseILNS9_6detail11MessageTypeE6EEEEEEENS0_25StatelessAllocationPolicyINS0_22ExpHeapStaticAllocatorILm2048ENS5_6detail12ObjectHolder24ObjectHolderAllocatorTagEEEEENS6_14IAdministratorENS3_19ProcessModifierImplINS2_21DefaultProxyFilterTagEEEE38_nn_sf_sync_CreateAuthorizationRequestENS0_3OutINS0_13SharedPointerINS5_3nas21IAuthorizationRequestEEEvEERKNSW_13NasClientInfoERKNS5_45NintendoAccountAuthorizationRequestParametersEONS0_12NativeHandleEj
 00000000:0000007100047770       _ZN2nn2sf4cmif6client6detail13CmifProxyImplINS_7account4baas14IAdministratorENS2_19CmifDomainProxyKindINS0_4hipc6client38Hipc2ClientSessionManagedProxyKindBaseINSA_18Hipc2ProxyKindBaseILNS9_6detail11MessageTypeE6EEEEEEENS0_25StatelessAllocationPolicyINS0_22ExpHeapStaticAllocatorILm2048ENS5_6detail12ObjectHolder24ObjectHolderAllocatorTagEEEEES7_NS3_19ProcessModifierImplINS2_21DefaultProxyFilterTagEEEE24_nn_sf_sync_IsRegisteredENS0_3OutIbvEE
 00000000:0000007100047790       _ZN2nn2sf4cmif6client6detail13CmifProxyImplINS_7account4baas14IAdministratorENS2_19CmifDomainProxyKindINS0_4hipc6client38Hipc2ClientSessionManagedProxyKindBaseINSA_18Hipc2ProxyKindBaseILNS9_6detail11MessageTypeE6EEEEEEENS0_25StatelessAllocationPolicyINS0_22ExpHeapStaticAllocatorILm2048ENS5_6detail12ObjectHolder24ObjectHolderAllocatorTagEEEEES7_NS3_19ProcessModifierImplINS2_21DefaultProxyFilterTagEEEE25_nn_sf_sync_RegisterAsyncENS0_3OutINS0_13SharedPointerINSK_13IAsyncContextEEEvEE
 00000000:0000007100047820       _ZN2nn2sf4cmif6client6detail13CmifProxyImplINS_7account4baas14IAdministratorENS2_19CmifDomainProxyKindINS0_4hipc6client38Hipc2ClientSessionManagedProxyKindBaseINSA_18Hipc2ProxyKindBaseILNS9_6detail11MessageTypeE6EEEEEEENS0_25StatelessAllocationPolicyINS0_22ExpHeapStaticAllocatorILm2048ENS5_6detail12ObjectHolder24ObjectHolderAllocatorTagEEEEES7_NS3_19ProcessModifierImplINS2_21DefaultProxyFilterTagEEEE27_nn_sf_sync_UnregisterAsyncENS0_3OutINS0_13SharedPointerINSK_13IAsyncContextEEEvEE
 00000000:00000071000478B0       _ZN2nn2sf4cmif6client6detail13CmifProxyImplINS_7account4baas14IAdministratorENS2_19CmifDomainProxyKindINS0_4hipc6client38Hipc2ClientSessionManagedProxyKindBaseINSA_18Hipc2ProxyKindBaseILNS9_6detail11MessageTypeE6EEEEEEENS0_25StatelessAllocationPolicyINS0_22ExpHeapStaticAllocatorILm2048ENS5_6detail12ObjectHolder24ObjectHolderAllocatorTagEEEEES7_NS3_19ProcessModifierImplINS2_21DefaultProxyFilterTagEEEE41_nn_sf_sync_DeleteRegistrationInfoLocallyEv
 00000000:00000071000478D0       _ZN2nn2sf4cmif6client6detail13CmifProxyImplINS_7account4baas14IAdministratorENS2_19CmifDomainProxyKindINS0_4hipc6client38Hipc2ClientSessionManagedProxyKindBaseINSA_18Hipc2ProxyKindBaseILNS9_6detail11MessageTypeE6EEEEEEENS0_25StatelessAllocationPolicyINS0_22ExpHeapStaticAllocatorILm2048ENS5_6detail12ObjectHolder24ObjectHolderAllocatorTagEEEEES7_NS3_19ProcessModifierImplINS2_21DefaultProxyFilterTagEEEE35_nn_sf_sync_SynchronizeProfileAsyncENS0_3OutINS0_13SharedPointerINSK_13IAsyncContextEEEvEE
 00000000:0000007100047960       _ZN2nn2sf4cmif6client6detail13CmifProxyImplINS_7account4baas14IAdministratorENS2_19CmifDomainProxyKindINS0_4hipc6client38Hipc2ClientSessionManagedProxyKindBaseINSA_18Hipc2ProxyKindBaseILNS9_6detail11MessageTypeE6EEEEEEENS0_25StatelessAllocationPolicyINS0_22ExpHeapStaticAllocatorILm2048ENS5_6detail12ObjectHolder24ObjectHolderAllocatorTagEEEEES7_NS3_19ProcessModifierImplINS2_21DefaultProxyFilterTagEEEE30_nn_sf_sync_UploadProfileAsyncENS0_3OutINS0_13SharedPointerINSK_13IAsyncContextEEEvEE
 00000000:00000071000479F0       _ZN2nn2sf4cmif6client6detail13CmifProxyImplINS_7account4baas14IAdministratorENS2_19CmifDomainProxyKindINS0_4hipc6client38Hipc2ClientSessionManagedProxyKindBaseINSA_18Hipc2ProxyKindBaseILNS9_6detail11MessageTypeE6EEEEEEENS0_25StatelessAllocationPolicyINS0_22ExpHeapStaticAllocatorILm2048ENS5_6detail12ObjectHolder24ObjectHolderAllocatorTagEEEEES7_NS3_19ProcessModifierImplINS2_21DefaultProxyFilterTagEEEE51_nn_sf_sync_SynchronizeProfileAsyncIfSecondsElapsedENS0_3OutIbvEENST_INS0_13SharedPointerINSK_13IAsyncContextEEEvEEj
 00000000:0000007100047AA0       _ZN2nn2sf4cmif6client6detail13CmifProxyImplINS_7account4baas14IAdministratorENS2_19CmifDomainProxyKindINS0_4hipc6client38Hipc2ClientSessionManagedProxyKindBaseINSA_18Hipc2ProxyKindBaseILNS9_6detail11MessageTypeE6EEEEEEENS0_25StatelessAllocationPolicyINS0_22ExpHeapStaticAllocatorILm2048ENS5_6detail12ObjectHolder24ObjectHolderAllocatorTagEEEEES7_NS3_19ProcessModifierImplINS2_21DefaultProxyFilterTagEEEE39_nn_sf_sync_IsLinkedWithNintendoAccountENS0_3OutIbvEE
 00000000:0000007100047AC0       _ZN2nn2sf4cmif6client6detail13CmifProxyImplINS_7account4baas14IAdministratorENS2_19CmifDomainProxyKindINS0_4hipc6client38Hipc2ClientSessionManagedProxyKindBaseINSA_18Hipc2ProxyKindBaseILNS9_6detail11MessageTypeE6EEEEEEENS0_25StatelessAllocationPolicyINS0_22ExpHeapStaticAllocatorILm2048ENS5_6detail12ObjectHolder24ObjectHolderAllocatorTagEEEEES7_NS3_19ProcessModifierImplINS2_21DefaultProxyFilterTagEEEE52_nn_sf_sync_CreateProcedureToLinkWithNintendoAccountENS0_3OutINS0_13SharedPointerINS5_3nas40IOAuthProcedureForNintendoAccountLinkageEEEvEE
 00000000:0000007100047B50       _ZN2nn2sf4cmif6client6detail13CmifProxyImplINS_7account4baas14IAdministratorENS2_19CmifDomainProxyKindINS0_4hipc6client38Hipc2ClientSessionManagedProxyKindBaseINSA_18Hipc2ProxyKindBaseILNS9_6detail11MessageTypeE6EEEEEEENS0_25StatelessAllocationPolicyINS0_22ExpHeapStaticAllocatorILm2048ENS5_6detail12ObjectHolder24ObjectHolderAllocatorTagEEEEES7_NS3_19ProcessModifierImplINS2_21DefaultProxyFilterTagEEEE52_nn_sf_sync_ResumeProcedureToLinkWithNintendoAccountENS0_3OutINS0_13SharedPointerINS5_3nas40IOAuthProcedureForNintendoAccountLinkageEEEvEERKNSK_4UuidE
 00000000:0000007100047BF0       _ZN2nn2sf4cmif6client6detail13CmifProxyImplINS_7account4baas14IAdministratorENS2_19CmifDomainProxyKindINS0_4hipc6client38Hipc2ClientSessionManagedProxyKindBaseINSA_18Hipc2ProxyKindBaseILNS9_6detail11MessageTypeE6EEEEEEENS0_25StatelessAllocationPolicyINS0_22ExpHeapStaticAllocatorILm2048ENS5_6detail12ObjectHolder24ObjectHolderAllocatorTagEEEEES7_NS3_19ProcessModifierImplINS2_21DefaultProxyFilterTagEEEE64_nn_sf_sync_CreateProcedureToUpdateLinkageStateOfNintendoAccountENS0_3OutINS0_13SharedPointerINS5_4http15IOAuthProcedureEEEvEE
 00000000:0000007100047C80       _ZN2nn2sf4cmif6client6detail13CmifProxyImplINS_7account4baas14IAdministratorENS2_19CmifDomainProxyKindINS0_4hipc6client38Hipc2ClientSessionManagedProxyKindBaseINSA_18Hipc2ProxyKindBaseILNS9_6detail11MessageTypeE6EEEEEEENS0_25StatelessAllocationPolicyINS0_22ExpHeapStaticAllocatorILm2048ENS5_6detail12ObjectHolder24ObjectHolderAllocatorTagEEEEES7_NS3_19ProcessModifierImplINS2_21DefaultProxyFilterTagEEEE64_nn_sf_sync_ResumeProcedureToUpdateLinkageStateOfNintendoAccountENS0_3OutINS0_13SharedPointerINS5_4http15IOAuthProcedureEEEvEERKNSK_4UuidE
 00000000:0000007100047D20       _ZN2nn2sf4cmif6client6detail13CmifProxyImplINS_7account4baas14IAdministratorENS2_19CmifDomainProxyKindINS0_4hipc6client38Hipc2ClientSessionManagedProxyKindBaseINSA_18Hipc2ProxyKindBaseILNS9_6detail11MessageTypeE6EEEEEEENS0_25StatelessAllocationPolicyINS0_22ExpHeapStaticAllocatorILm2048ENS5_6detail12ObjectHolder24ObjectHolderAllocatorTagEEEEES7_NS3_19ProcessModifierImplINS2_21DefaultProxyFilterTagEEEE56_nn_sf_sync_CreateProcedureToLinkNnidWithNintendoAccountENS0_3OutINS0_13SharedPointerINS5_4http15IOAuthProcedureEEEvEE
 00000000:0000007100047DB0       _ZN2nn2sf4cmif6client6detail13CmifProxyImplINS_7account4baas14IAdministratorENS2_19CmifDomainProxyKindINS0_4hipc6client38Hipc2ClientSessionManagedProxyKindBaseINSA_18Hipc2ProxyKindBaseILNS9_6detail11MessageTypeE6EEEEEEENS0_25StatelessAllocationPolicyINS0_22ExpHeapStaticAllocatorILm2048ENS5_6detail12ObjectHolder24ObjectHolderAllocatorTagEEEEES7_NS3_19ProcessModifierImplINS2_21DefaultProxyFilterTagEEEE56_nn_sf_sync_ResumeProcedureToLinkNnidWithNintendoAccountENS0_3OutINS0_13SharedPointerINS5_4http15IOAuthProcedureEEEvEERKNSK_4UuidE
 00000000:0000007100047E50       _ZN2nn2sf4cmif6client6detail13CmifProxyImplINS_7account4baas14IAdministratorENS2_19CmifDomainProxyKindINS0_4hipc6client38Hipc2ClientSessionManagedProxyKindBaseINSA_18Hipc2ProxyKindBaseILNS9_6detail11MessageTypeE6EEEEEEENS0_25StatelessAllocationPolicyINS0_22ExpHeapStaticAllocatorILm2048ENS5_6detail12ObjectHolder24ObjectHolderAllocatorTagEEEEES7_NS3_19ProcessModifierImplINS2_21DefaultProxyFilterTagEEEE77_nn_sf_sync_ProxyProcedureToAcquireApplicationAuthorizationForNintendoAccountENS0_3OutINS0_13SharedPointerINS5_4http15IOAuthProcedureEEEvEERKNSK_4UuidE
 00000000:0000007100047EF0       _ZN2nn2sf4cmif6client6detail13CmifProxyImplINS_7account4baas14IAdministratorENS2_19CmifDomainProxyKindINS0_4hipc6client38Hipc2ClientSessionManagedProxyKindBaseINSA_18Hipc2ProxyKindBaseILNS9_6detail11MessageTypeE6EEEEEEENS0_25StatelessAllocationPolicyINS0_22ExpHeapStaticAllocatorILm2048ENS5_6detail12ObjectHolder24ObjectHolderAllocatorTagEEEEES7_NS3_19ProcessModifierImplINS2_21DefaultProxyFilterTagEEEE56_nn_sf_sync_GetRequestForNintendoAccountUserResourceViewENS0_3OutINS5_10RequestUrlEvEE
 00000000:0000007100047F20       _ZN2nn2sf4cmif6client6detail13CmifProxyImplINS_7account4baas14IAdministratorENS2_19CmifDomainProxyKindINS0_4hipc6client38Hipc2ClientSessionManagedProxyKindBaseINSA_18Hipc2ProxyKindBaseILNS9_6detail11MessageTypeE6EEEEEEENS0_25StatelessAllocationPolicyINS0_22ExpHeapStaticAllocatorILm2048ENS5_6detail12ObjectHolder24ObjectHolderAllocatorTagEEEEES7_NS3_19ProcessModifierImplINS2_21DefaultProxyFilterTagEEEE51_nn_sf_sync_TryRecoverNintendoAccountUserStateAsyncENS0_3OutINS0_13SharedPointerINSK_13IAsyncContextEEEvEE
 00000000:0000007100047FB0       _ZN2nn2sf4cmif6client6detail13CmifProxyImplINS_7account4baas14IAdministratorENS2_19CmifDomainProxyKindINS0_4hipc6client38Hipc2ClientSessionManagedProxyKindBaseINSA_18Hipc2ProxyKindBaseILNS9_6detail11MessageTypeE6EEEEEEENS0_25StatelessAllocationPolicyINS0_22ExpHeapStaticAllocatorILm2048ENS5_6detail12ObjectHolder24ObjectHolderAllocatorTagEEEEES7_NS3_19ProcessModifierImplINS2_21DefaultProxyFilterTagEEEE70_nn_sf_sync_IsServiceEntryRequirementCacheRefreshRequiredForOnlinePlayENS0_3OutIbvEENS_13ApplicationIdE
 00000000:0000007100047FD0       _ZN2nn2sf4cmif6client6detail13CmifProxyImplINS_7account4baas14IAdministratorENS2_19CmifDomainProxyKindINS0_4hipc6client38Hipc2ClientSessionManagedProxyKindBaseINSA_18Hipc2ProxyKindBaseILNS9_6detail11MessageTypeE6EEEEEEENS0_25StatelessAllocationPolicyINS0_22ExpHeapStaticAllocatorILm2048ENS5_6detail12ObjectHolder24ObjectHolderAllocatorTagEEEEES7_NS3_19ProcessModifierImplINS2_21DefaultProxyFilterTagEEEE65_nn_sf_sync_RefreshServiceEntryRequirementCacheForOnlinePlayAsyncENS0_3OutINS0_13SharedPointerINSK_13IAsyncContextEEEvEENS_13ApplicationIdE
 00000000:0000007100048070       _ZN2nn2sf4cmif6client6detail13CmifProxyImplINS_7account4baas14IAdministratorENS2_19CmifDomainProxyKindINS0_4hipc6client38Hipc2ClientSessionManagedProxyKindBaseINSA_18Hipc2ProxyKindBaseILNS9_6detail11MessageTypeE6EEEEEEENS0_25StatelessAllocationPolicyINS0_22ExpHeapStaticAllocatorILm2048ENS5_6detail12ObjectHolder24ObjectHolderAllocatorTagEEEEES7_NS3_19ProcessModifierImplINS2_21DefaultProxyFilterTagEEEE43_nn_sf_sync_DebugUnlinkNintendoAccountAsyncENS0_3OutINS0_13SharedPointerINSK_13IAsyncContextEEEvEE
 00000000:0000007100048100       _ZN2nn2sf4cmif6client6detail13CmifProxyImplINS_7account4baas14IAdministratorENS2_19CmifDomainProxyKindINS0_4hipc6client38Hipc2ClientSessionManagedProxyKindBaseINSA_18Hipc2ProxyKindBaseILNS9_6detail11MessageTypeE6EEEEEEENS0_25StatelessAllocationPolicyINS0_22ExpHeapStaticAllocatorILm2048ENS5_6detail12ObjectHolder24ObjectHolderAllocatorTagEEEEES7_NS3_19ProcessModifierImplINS2_21DefaultProxyFilterTagEEEE43_nn_sf_sync_DebugSetAvailabilityErrorDetailEj
 00000000:0000007100048130       _ZN2nn2sf4cmif6client6detail13CmifProxyImplINS_7account4baas12IManagerBaseENS2_19CmifDomainProxyKindINS0_4hipc6client38Hipc2ClientSessionManagedProxyKindBaseINSA_18Hipc2ProxyKindBaseILNS9_6detail11MessageTypeE6EEEEEEENS0_25StatelessAllocationPolicyINS0_22ExpHeapStaticAllocatorILm2048ENS5_6detail12ObjectHolder24ObjectHolderAllocatorTagEEEEENS6_14IAdministratorENS3_19ProcessModifierImplINS2_21DefaultProxyFilterTagEEEE17GetCmifBaseObjectEv
 00000000:0000007100048140       _ZThn32_N2nn2sf4cmif6client6detail13CmifProxyImplINS_7account4baas12IManagerBaseENS2_19CmifDomainProxyKindINS0_4hipc6client38Hipc2ClientSessionManagedProxyKindBaseINSA_18Hipc2ProxyKindBaseILNS9_6detail11MessageTypeE6EEEEEEENS0_25StatelessAllocationPolicyINS0_22ExpHeapStaticAllocatorILm2048ENS5_6detail12ObjectHolder24ObjectHolderAllocatorTagEEEEENS6_14IAdministratorENS3_19ProcessModifierImplINS2_21DefaultProxyFilterTagEEEE17GetCmifBaseObjectEv
 00000000:0000007100048150       _ZN2nn2sf4cmif6client6detail36GetClientProcessorImplWithObjectBaseINS2_19CmifDomainProxyKindINS0_4hipc6client38Hipc2ClientSessionManagedProxyKindBaseINS7_18Hipc2ProxyKindBaseILNS6_6detail11MessageTypeE6EEEEEEENS3_19ProcessModifierImplINS2_21DefaultProxyFilterTagEEEE14ObjectAssignerINS0_25StatelessAllocationPolicyINS0_22ExpHeapStaticAllocatorILm2048ENS_7account6detail12ObjectHolder24ObjectHolderAllocatorTagEEEEENS0_6detail23StatelessDummyAllocatorEE14AllocateObjectINSM_3nas40IOAuthProcedureForNintendoAccountLinkageEEEvi
 00000000:0000007100048210       _ZN2nn2sf6detail39ObjectImplFactoryWithStatelessAllocatorINS0_4cmif6client6detail9CmifProxyINS_7account3nas40IOAuthProcedureForNintendoAccountLinkageENS4_19CmifDomainProxyKindINS0_4hipc6client38Hipc2ClientSessionManagedProxyKindBaseINSC_18Hipc2ProxyKindBaseILNSB_6detail11MessageTypeE6EEEEEEENS0_25StatelessAllocationPolicyINS0_22ExpHeapStaticAllocatorILm2048ENS7_6detail12ObjectHolder24ObjectHolderAllocatorTagEEEEENS5_19ProcessModifierImplINS4_21DefaultProxyFilterTagEEEvEESQ_E6Object12AddReferenceEv
 00000000:0000007100048220       _ZN2nn2sf6detail39ObjectImplFactoryWithStatelessAllocatorINS0_4cmif6client6detail9CmifProxyINS_7account3nas40IOAuthProcedureForNintendoAccountLinkageENS4_19CmifDomainProxyKindINS0_4hipc6client38Hipc2ClientSessionManagedProxyKindBaseINSC_18Hipc2ProxyKindBaseILNSB_6detail11MessageTypeE6EEEEEEENS0_25StatelessAllocationPolicyINS0_22ExpHeapStaticAllocatorILm2048ENS7_6detail12ObjectHolder24ObjectHolderAllocatorTagEEEEENS5_19ProcessModifierImplINS4_21DefaultProxyFilterTagEEEvEESQ_E6Object7ReleaseEv
 00000000:0000007100048290       _ZN2nn2sf4cmif6client6detail13CmifProxyImplINS_7account4http15IOAuthProcedureENS2_19CmifDomainProxyKindINS0_4hipc6client38Hipc2ClientSessionManagedProxyKindBaseINSA_18Hipc2ProxyKindBaseILNS9_6detail11MessageTypeE6EEEEEEENS0_25StatelessAllocationPolicyINS0_22ExpHeapStaticAllocatorILm2048ENS5_6detail12ObjectHolder24ObjectHolderAllocatorTagEEEEENS5_3nas40IOAuthProcedureForNintendoAccountLinkageENS3_19ProcessModifierImplINS2_21DefaultProxyFilterTagEEEE12GetProxyInfoEv
 00000000:00000071000482A0       _ZN2nn2sf4cmif6client6detail13CmifProxyImplINS_7account4http15IOAuthProcedureENS2_19CmifDomainProxyKindINS0_4hipc6client38Hipc2ClientSessionManagedProxyKindBaseINSA_18Hipc2ProxyKindBaseILNS9_6detail11MessageTypeE6EEEEEEENS0_25StatelessAllocationPolicyINS0_22ExpHeapStaticAllocatorILm2048ENS5_6detail12ObjectHolder24ObjectHolderAllocatorTagEEEEENS5_3nas40IOAuthProcedureForNintendoAccountLinkageENS3_19ProcessModifierImplINS2_21DefaultProxyFilterTagEEEE24_nn_sf_sync_PrepareAsyncENS0_3OutINS0_13SharedPointerINSK_13IAsyncContextEEEvEE
 00000000:0000007100048330       _ZN2nn2sf4cmif6client6detail13CmifProxyImplINS_7account4http15IOAuthProcedureENS2_19CmifDomainProxyKindINS0_4hipc6client38Hipc2ClientSessionManagedProxyKindBaseINSA_18Hipc2ProxyKindBaseILNS9_6detail11MessageTypeE6EEEEEEENS0_25StatelessAllocationPolicyINS0_22ExpHeapStaticAllocatorILm2048ENS5_6detail12ObjectHolder24ObjectHolderAllocatorTagEEEEENS5_3nas40IOAuthProcedureForNintendoAccountLinkageENS3_19ProcessModifierImplINS2_21DefaultProxyFilterTagEEEE22_nn_sf_sync_GetRequestENS0_3OutINS5_10RequestUrlEvEENSV_INS5_11CallbackUriEvEE
 00000000:0000007100048360       _ZN2nn2sf4cmif6client6detail13CmifProxyImplINS_7account4http15IOAuthProcedureENS2_19CmifDomainProxyKindINS0_4hipc6client38Hipc2ClientSessionManagedProxyKindBaseINSA_18Hipc2ProxyKindBaseILNS9_6detail11MessageTypeE6EEEEEEENS0_25StatelessAllocationPolicyINS0_22ExpHeapStaticAllocatorILm2048ENS5_6detail12ObjectHolder24ObjectHolderAllocatorTagEEEEENS5_3nas40IOAuthProcedureForNintendoAccountLinkageENS3_19ProcessModifierImplINS2_21DefaultProxyFilterTagEEEE25_nn_sf_sync_ApplyResponseERKNS0_7InArrayIcEE
 00000000:0000007100048390       _ZN2nn2sf4cmif6client6detail13CmifProxyImplINS_7account4http15IOAuthProcedureENS2_19CmifDomainProxyKindINS0_4hipc6client38Hipc2ClientSessionManagedProxyKindBaseINSA_18Hipc2ProxyKindBaseILNS9_6detail11MessageTypeE6EEEEEEENS0_25StatelessAllocationPolicyINS0_22ExpHeapStaticAllocatorILm2048ENS5_6detail12ObjectHolder24ObjectHolderAllocatorTagEEEEENS5_3nas40IOAuthProcedureForNintendoAccountLinkageENS3_19ProcessModifierImplINS2_21DefaultProxyFilterTagEEEE30_nn_sf_sync_ApplyResponseAsyncENS0_3OutINS0_13SharedPointerINSK_13IAsyncContextEEEvEERKNS0_7InArrayIcEE
 00000000:0000007100048430       _ZN2nn2sf4cmif6client6detail13CmifProxyImplINS_7account4http15IOAuthProcedureENS2_19CmifDomainProxyKindINS0_4hipc6client38Hipc2ClientSessionManagedProxyKindBaseINSA_18Hipc2ProxyKindBaseILNS9_6detail11MessageTypeE6EEEEEEENS0_25StatelessAllocationPolicyINS0_22ExpHeapStaticAllocatorILm2048ENS5_6detail12ObjectHolder24ObjectHolderAllocatorTagEEEEENS5_3nas40IOAuthProcedureForNintendoAccountLinkageENS3_19ProcessModifierImplINS2_21DefaultProxyFilterTagEEEE19_nn_sf_sync_SuspendENS0_3OutINSK_4UuidEvEE
 00000000:0000007100048450       _ZN2nn2sf4cmif6client6detail13CmifProxyImplINS_7account3nas40IOAuthProcedureForNintendoAccountLinkageENS2_19CmifDomainProxyKindINS0_4hipc6client38Hipc2ClientSessionManagedProxyKindBaseINSA_18Hipc2ProxyKindBaseILNS9_6detail11MessageTypeE6EEEEEEENS0_25StatelessAllocationPolicyINS0_22ExpHeapStaticAllocatorILm2048ENS5_6detail12ObjectHolder24ObjectHolderAllocatorTagEEEEES7_NS3_19ProcessModifierImplINS2_21DefaultProxyFilterTagEEEE31_nn_sf_sync_GetRequestWithThemeENS0_3OutINS5_10RequestUrlEvEENST_INS5_11CallbackUriEvEEi
 00000000:0000007100048490       _ZN2nn2sf4cmif6client6detail13CmifProxyImplINS_7account3nas40IOAuthProcedureForNintendoAccountLinkageENS2_19CmifDomainProxyKindINS0_4hipc6client38Hipc2ClientSessionManagedProxyKindBaseINSA_18Hipc2ProxyKindBaseILNS9_6detail11MessageTypeE6EEEEEEENS0_25StatelessAllocationPolicyINS0_22ExpHeapStaticAllocatorILm2048ENS5_6detail12ObjectHolder24ObjectHolderAllocatorTagEEEEES7_NS3_19ProcessModifierImplINS2_21DefaultProxyFilterTagEEEE43_nn_sf_sync_IsNetworkServiceAccountReplacedENS0_3OutIbvEE
 00000000:00000071000484B0       _ZN2nn2sf4cmif6client6detail13CmifProxyImplINS_7account4http15IOAuthProcedureENS2_19CmifDomainProxyKindINS0_4hipc6client38Hipc2ClientSessionManagedProxyKindBaseINSA_18Hipc2ProxyKindBaseILNS9_6detail11MessageTypeE6EEEEEEENS0_25StatelessAllocationPolicyINS0_22ExpHeapStaticAllocatorILm2048ENS5_6detail12ObjectHolder24ObjectHolderAllocatorTagEEEEENS5_3nas40IOAuthProcedureForNintendoAccountLinkageENS3_19ProcessModifierImplINS2_21DefaultProxyFilterTagEEEE17GetCmifBaseObjectEv
 00000000:00000071000484C0       _ZThn32_N2nn2sf4cmif6client6detail13CmifProxyImplINS_7account4http15IOAuthProcedureENS2_19CmifDomainProxyKindINS0_4hipc6client38Hipc2ClientSessionManagedProxyKindBaseINSA_18Hipc2ProxyKindBaseILNS9_6detail11MessageTypeE6EEEEEEENS0_25StatelessAllocationPolicyINS0_22ExpHeapStaticAllocatorILm2048ENS5_6detail12ObjectHolder24ObjectHolderAllocatorTagEEEEENS5_3nas40IOAuthProcedureForNintendoAccountLinkageENS3_19ProcessModifierImplINS2_21DefaultProxyFilterTagEEEE17GetCmifBaseObjectEv
 00000000:00000071000484D0       _ZN2nn2sf4cmif6client34CmifDomainProxyClientCoreProcessorINS0_4hipc6client38Hipc2ClientSessionManagedProxyKindBaseINS5_18Hipc2ProxyKindBaseILNS4_6detail11MessageTypeE6EEEEENS1_6detail14CoreMethodInfoINSt3__15tupleIJNSC_18BufferArgumentInfoILi0ELi26ELm4096EEENSG_ILi1ELi26ELm256EEENSC_17InRawArgumentInfoILm4ELm4ELl0EEEEEELm4ELm0ELb0EEESL_E7ProcessEPNS2_23CmifDomainClientMessageISB_E15ProxyBaseObjectENS2_24BufferClientArgumentTypeESS_NS2_23InRawClientArgumentTypeILm4ELm4EvEEj
 00000000:00000071000486E0       _ZN2nn2sf4cmif6client34CmifDomainProxyClientCoreProcessorINS0_4hipc6client38Hipc2ClientSessionManagedProxyKindBaseINS5_18Hipc2ProxyKindBaseILNS4_6detail11MessageTypeE6EEEEENS1_6detail14CoreMethodInfoINSt3__15tupleIJNSC_21OutObjectArgumentInfoILi0ELi0EEENSC_17InRawArgumentInfoILm16ELm4ELl0EEEEEELm16ELm0ELb0EEESK_E21ProcessWithOutObjectsEPNS2_23CmifDomainClientMessageISB_E15ProxyBaseObjectENS2_27OutObjectClientArgumentTypeENS2_23InRawClientArgumentTypeILm16ELm4EvEEjPNS0_13SharedPointerINS0_14IServiceObjectEEE
 00000000:00000071000488B0       _ZN2nn2sf4cmif6client6detail36GetClientProcessorImplWithObjectBaseINS2_19CmifDomainProxyKindINS0_4hipc6client38Hipc2ClientSessionManagedProxyKindBaseINS7_18Hipc2ProxyKindBaseILNS6_6detail11MessageTypeE6EEEEEEENS3_19ProcessModifierImplINS2_21DefaultProxyFilterTagEEEE14ObjectAssignerINS0_25StatelessAllocationPolicyINS0_22ExpHeapStaticAllocatorILm2048ENS_7account6detail12ObjectHolder24ObjectHolderAllocatorTagEEEEENS0_6detail23StatelessDummyAllocatorEE14AllocateObjectINSM_4http15IOAuthProcedureEEEvi
 00000000:0000007100048970       _ZN2nn2sf6detail39ObjectImplFactoryWithStatelessAllocatorINS0_4cmif6client6detail9CmifProxyINS_7account4http15IOAuthProcedureENS4_19CmifDomainProxyKindINS0_4hipc6client38Hipc2ClientSessionManagedProxyKindBaseINSC_18Hipc2ProxyKindBaseILNSB_6detail11MessageTypeE6EEEEEEENS0_25StatelessAllocationPolicyINS0_22ExpHeapStaticAllocatorILm2048ENS7_6detail12ObjectHolder24ObjectHolderAllocatorTagEEEEENS5_19ProcessModifierImplINS4_21DefaultProxyFilterTagEEEvEESQ_E6Object12AddReferenceEv
 00000000:0000007100048980       _ZN2nn2sf6detail39ObjectImplFactoryWithStatelessAllocatorINS0_4cmif6client6detail9CmifProxyINS_7account4http15IOAuthProcedureENS4_19CmifDomainProxyKindINS0_4hipc6client38Hipc2ClientSessionManagedProxyKindBaseINSC_18Hipc2ProxyKindBaseILNSB_6detail11MessageTypeE6EEEEEEENS0_25StatelessAllocationPolicyINS0_22ExpHeapStaticAllocatorILm2048ENS7_6detail12ObjectHolder24ObjectHolderAllocatorTagEEEEENS5_19ProcessModifierImplINS4_21DefaultProxyFilterTagEEEvEESQ_E6Object7ReleaseEv
 00000000:00000071000489F0       _ZN2nn2sf4cmif6client6detail13CmifProxyImplINS_7account4http15IOAuthProcedureENS2_19CmifDomainProxyKindINS0_4hipc6client38Hipc2ClientSessionManagedProxyKindBaseINSA_18Hipc2ProxyKindBaseILNS9_6detail11MessageTypeE6EEEEEEENS0_25StatelessAllocationPolicyINS0_22ExpHeapStaticAllocatorILm2048ENS5_6detail12ObjectHolder24ObjectHolderAllocatorTagEEEEES7_NS3_19ProcessModifierImplINS2_21DefaultProxyFilterTagEEEE12GetProxyInfoEv
 00000000:0000007100048A00       _ZN2nn2sf4cmif6client6detail13CmifProxyImplINS_7account4http15IOAuthProcedureENS2_19CmifDomainProxyKindINS0_4hipc6client38Hipc2ClientSessionManagedProxyKindBaseINSA_18Hipc2ProxyKindBaseILNS9_6detail11MessageTypeE6EEEEEEENS0_25StatelessAllocationPolicyINS0_22ExpHeapStaticAllocatorILm2048ENS5_6detail12ObjectHolder24ObjectHolderAllocatorTagEEEEES7_NS3_19ProcessModifierImplINS2_21DefaultProxyFilterTagEEEE24_nn_sf_sync_PrepareAsyncENS0_3OutINS0_13SharedPointerINSK_13IAsyncContextEEEvEE
 00000000:0000007100048A90       _ZN2nn2sf4cmif6client6detail13CmifProxyImplINS_7account4http15IOAuthProcedureENS2_19CmifDomainProxyKindINS0_4hipc6client38Hipc2ClientSessionManagedProxyKindBaseINSA_18Hipc2ProxyKindBaseILNS9_6detail11MessageTypeE6EEEEEEENS0_25StatelessAllocationPolicyINS0_22ExpHeapStaticAllocatorILm2048ENS5_6detail12ObjectHolder24ObjectHolderAllocatorTagEEEEES7_NS3_19ProcessModifierImplINS2_21DefaultProxyFilterTagEEEE22_nn_sf_sync_GetRequestENS0_3OutINS5_10RequestUrlEvEENST_INS5_11CallbackUriEvEE
 00000000:0000007100048AC0       _ZN2nn2sf4cmif6client6detail13CmifProxyImplINS_7account4http15IOAuthProcedureENS2_19CmifDomainProxyKindINS0_4hipc6client38Hipc2ClientSessionManagedProxyKindBaseINSA_18Hipc2ProxyKindBaseILNS9_6detail11MessageTypeE6EEEEEEENS0_25StatelessAllocationPolicyINS0_22ExpHeapStaticAllocatorILm2048ENS5_6detail12ObjectHolder24ObjectHolderAllocatorTagEEEEES7_NS3_19ProcessModifierImplINS2_21DefaultProxyFilterTagEEEE25_nn_sf_sync_ApplyResponseERKNS0_7InArrayIcEE
 00000000:0000007100048AF0       _ZN2nn2sf4cmif6client6detail13CmifProxyImplINS_7account4http15IOAuthProcedureENS2_19CmifDomainProxyKindINS0_4hipc6client38Hipc2ClientSessionManagedProxyKindBaseINSA_18Hipc2ProxyKindBaseILNS9_6detail11MessageTypeE6EEEEEEENS0_25StatelessAllocationPolicyINS0_22ExpHeapStaticAllocatorILm2048ENS5_6detail12ObjectHolder24ObjectHolderAllocatorTagEEEEES7_NS3_19ProcessModifierImplINS2_21DefaultProxyFilterTagEEEE30_nn_sf_sync_ApplyResponseAsyncENS0_3OutINS0_13SharedPointerINSK_13IAsyncContextEEEvEERKNS0_7InArrayIcEE
 00000000:0000007100048B90       _ZN2nn2sf4cmif6client6detail13CmifProxyImplINS_7account4http15IOAuthProcedureENS2_19CmifDomainProxyKindINS0_4hipc6client38Hipc2ClientSessionManagedProxyKindBaseINSA_18Hipc2ProxyKindBaseILNS9_6detail11MessageTypeE6EEEEEEENS0_25StatelessAllocationPolicyINS0_22ExpHeapStaticAllocatorILm2048ENS5_6detail12ObjectHolder24ObjectHolderAllocatorTagEEEEES7_NS3_19ProcessModifierImplINS2_21DefaultProxyFilterTagEEEE19_nn_sf_sync_SuspendENS0_3OutINSK_4UuidEvEE
 00000000:0000007100048BB0       _ZN2nn2sf4cmif6client6detail13CmifProxyImplINS_7account4http15IOAuthProcedureENS2_19CmifDomainProxyKindINS0_4hipc6client38Hipc2ClientSessionManagedProxyKindBaseINSA_18Hipc2ProxyKindBaseILNS9_6detail11MessageTypeE6EEEEEEENS0_25StatelessAllocationPolicyINS0_22ExpHeapStaticAllocatorILm2048ENS5_6detail12ObjectHolder24ObjectHolderAllocatorTagEEEEES7_NS3_19ProcessModifierImplINS2_21DefaultProxyFilterTagEEEE17GetCmifBaseObjectEv
 00000000:0000007100048BC0       _ZThn32_N2nn2sf4cmif6client6detail13CmifProxyImplINS_7account4http15IOAuthProcedureENS2_19CmifDomainProxyKindINS0_4hipc6client38Hipc2ClientSessionManagedProxyKindBaseINSA_18Hipc2ProxyKindBaseILNS9_6detail11MessageTypeE6EEEEEEENS0_25StatelessAllocationPolicyINS0_22ExpHeapStaticAllocatorILm2048ENS5_6detail12ObjectHolder24ObjectHolderAllocatorTagEEEEES7_NS3_19ProcessModifierImplINS2_21DefaultProxyFilterTagEEEE17GetCmifBaseObjectEv
 00000000:0000007100048BD0       _ZN2nn2sf4cmif6client34CmifDomainProxyClientCoreProcessorINS0_4hipc6client38Hipc2ClientSessionManagedProxyKindBaseINS5_18Hipc2ProxyKindBaseILNS4_6detail11MessageTypeE6EEEEENS1_6detail14CoreMethodInfoINSt3__15tupleIJNSC_18BufferArgumentInfoILi0ELi26ELm4096EEEEEELm0ELm0ELb0EEESI_E7ProcessEPNS2_23CmifDomainClientMessageISB_E15ProxyBaseObjectENS2_24BufferClientArgumentTypeEj
 00000000:0000007100048DC0       _ZN2nn2sf4cmif6client6detail36GetClientProcessorImplWithObjectBaseINS2_19CmifDomainProxyKindINS0_4hipc6client38Hipc2ClientSessionManagedProxyKindBaseINS7_18Hipc2ProxyKindBaseILNS6_6detail11MessageTypeE6EEEEEEENS3_19ProcessModifierImplINS2_21DefaultProxyFilterTagEEEE14ObjectAssignerINS0_25StatelessAllocationPolicyINS0_22ExpHeapStaticAllocatorILm2048ENS_7account6detail12ObjectHolder24ObjectHolderAllocatorTagEEEEENS0_6detail23StatelessDummyAllocatorEE14AllocateObjectINSM_3nas29IOAuthProcedureForExternalNsaEEEvi
 00000000:0000007100048E80       _ZN2nn2sf6detail39ObjectImplFactoryWithStatelessAllocatorINS0_4cmif6client6detail9CmifProxyINS_7account3nas29IOAuthProcedureForExternalNsaENS4_19CmifDomainProxyKindINS0_4hipc6client38Hipc2ClientSessionManagedProxyKindBaseINSC_18Hipc2ProxyKindBaseILNSB_6detail11MessageTypeE6EEEEEEENS0_25StatelessAllocationPolicyINS0_22ExpHeapStaticAllocatorILm2048ENS7_6detail12ObjectHolder24ObjectHolderAllocatorTagEEEEENS5_19ProcessModifierImplINS4_21DefaultProxyFilterTagEEEvEESQ_E6Object12AddReferenceEv
 00000000:0000007100048E90       _ZN2nn2sf6detail39ObjectImplFactoryWithStatelessAllocatorINS0_4cmif6client6detail9CmifProxyINS_7account3nas29IOAuthProcedureForExternalNsaENS4_19CmifDomainProxyKindINS0_4hipc6client38Hipc2ClientSessionManagedProxyKindBaseINSC_18Hipc2ProxyKindBaseILNSB_6detail11MessageTypeE6EEEEEEENS0_25StatelessAllocationPolicyINS0_22ExpHeapStaticAllocatorILm2048ENS7_6detail12ObjectHolder24ObjectHolderAllocatorTagEEEEENS5_19ProcessModifierImplINS4_21DefaultProxyFilterTagEEEvEESQ_E6Object7ReleaseEv
 00000000:0000007100048F00       _ZN2nn2sf4cmif6client6detail13CmifProxyImplINS_7account4http15IOAuthProcedureENS2_19CmifDomainProxyKindINS0_4hipc6client38Hipc2ClientSessionManagedProxyKindBaseINSA_18Hipc2ProxyKindBaseILNS9_6detail11MessageTypeE6EEEEEEENS0_25StatelessAllocationPolicyINS0_22ExpHeapStaticAllocatorILm2048ENS5_6detail12ObjectHolder24ObjectHolderAllocatorTagEEEEENS5_3nas29IOAuthProcedureForExternalNsaENS3_19ProcessModifierImplINS2_21DefaultProxyFilterTagEEEE12GetProxyInfoEv
 00000000:0000007100048F10       _ZN2nn2sf4cmif6client6detail13CmifProxyImplINS_7account4http15IOAuthProcedureENS2_19CmifDomainProxyKindINS0_4hipc6client38Hipc2ClientSessionManagedProxyKindBaseINSA_18Hipc2ProxyKindBaseILNS9_6detail11MessageTypeE6EEEEEEENS0_25StatelessAllocationPolicyINS0_22ExpHeapStaticAllocatorILm2048ENS5_6detail12ObjectHolder24ObjectHolderAllocatorTagEEEEENS5_3nas29IOAuthProcedureForExternalNsaENS3_19ProcessModifierImplINS2_21DefaultProxyFilterTagEEEE24_nn_sf_sync_PrepareAsyncENS0_3OutINS0_13SharedPointerINSK_13IAsyncContextEEEvEE
 00000000:0000007100048FA0       _ZN2nn2sf4cmif6client6detail13CmifProxyImplINS_7account4http15IOAuthProcedureENS2_19CmifDomainProxyKindINS0_4hipc6client38Hipc2ClientSessionManagedProxyKindBaseINSA_18Hipc2ProxyKindBaseILNS9_6detail11MessageTypeE6EEEEEEENS0_25StatelessAllocationPolicyINS0_22ExpHeapStaticAllocatorILm2048ENS5_6detail12ObjectHolder24ObjectHolderAllocatorTagEEEEENS5_3nas29IOAuthProcedureForExternalNsaENS3_19ProcessModifierImplINS2_21DefaultProxyFilterTagEEEE22_nn_sf_sync_GetRequestENS0_3OutINS5_10RequestUrlEvEENSV_INS5_11CallbackUriEvEE
 00000000:0000007100048FD0       _ZN2nn2sf4cmif6client6detail13CmifProxyImplINS_7account4http15IOAuthProcedureENS2_19CmifDomainProxyKindINS0_4hipc6client38Hipc2ClientSessionManagedProxyKindBaseINSA_18Hipc2ProxyKindBaseILNS9_6detail11MessageTypeE6EEEEEEENS0_25StatelessAllocationPolicyINS0_22ExpHeapStaticAllocatorILm2048ENS5_6detail12ObjectHolder24ObjectHolderAllocatorTagEEEEENS5_3nas29IOAuthProcedureForExternalNsaENS3_19ProcessModifierImplINS2_21DefaultProxyFilterTagEEEE25_nn_sf_sync_ApplyResponseERKNS0_7InArrayIcEE
 00000000:0000007100049000       _ZN2nn2sf4cmif6client6detail13CmifProxyImplINS_7account4http15IOAuthProcedureENS2_19CmifDomainProxyKindINS0_4hipc6client38Hipc2ClientSessionManagedProxyKindBaseINSA_18Hipc2ProxyKindBaseILNS9_6detail11MessageTypeE6EEEEEEENS0_25StatelessAllocationPolicyINS0_22ExpHeapStaticAllocatorILm2048ENS5_6detail12ObjectHolder24ObjectHolderAllocatorTagEEEEENS5_3nas29IOAuthProcedureForExternalNsaENS3_19ProcessModifierImplINS2_21DefaultProxyFilterTagEEEE30_nn_sf_sync_ApplyResponseAsyncENS0_3OutINS0_13SharedPointerINSK_13IAsyncContextEEEvEERKNS0_7InArrayIcEE
 00000000:00000071000490A0       _ZN2nn2sf4cmif6client6detail13CmifProxyImplINS_7account4http15IOAuthProcedureENS2_19CmifDomainProxyKindINS0_4hipc6client38Hipc2ClientSessionManagedProxyKindBaseINSA_18Hipc2ProxyKindBaseILNS9_6detail11MessageTypeE6EEEEEEENS0_25StatelessAllocationPolicyINS0_22ExpHeapStaticAllocatorILm2048ENS5_6detail12ObjectHolder24ObjectHolderAllocatorTagEEEEENS5_3nas29IOAuthProcedureForExternalNsaENS3_19ProcessModifierImplINS2_21DefaultProxyFilterTagEEEE19_nn_sf_sync_SuspendENS0_3OutINSK_4UuidEvEE
 00000000:00000071000490C0       _ZN2nn2sf4cmif6client6detail13CmifProxyImplINS_7account3nas29IOAuthProcedureForExternalNsaENS2_19CmifDomainProxyKindINS0_4hipc6client38Hipc2ClientSessionManagedProxyKindBaseINSA_18Hipc2ProxyKindBaseILNS9_6detail11MessageTypeE6EEEEEEENS0_25StatelessAllocationPolicyINS0_22ExpHeapStaticAllocatorILm2048ENS5_6detail12ObjectHolder24ObjectHolderAllocatorTagEEEEES7_NS3_19ProcessModifierImplINS2_21DefaultProxyFilterTagEEEE24_nn_sf_sync_GetAccountIdENS0_3OutINS5_23NetworkServiceAccountIdEvEE
 00000000:00000071000490E0       _ZN2nn2sf4cmif6client6detail13CmifProxyImplINS_7account3nas29IOAuthProcedureForExternalNsaENS2_19CmifDomainProxyKindINS0_4hipc6client38Hipc2ClientSessionManagedProxyKindBaseINSA_18Hipc2ProxyKindBaseILNS9_6detail11MessageTypeE6EEEEEEENS0_25StatelessAllocationPolicyINS0_22ExpHeapStaticAllocatorILm2048ENS5_6detail12ObjectHolder24ObjectHolderAllocatorTagEEEEES7_NS3_19ProcessModifierImplINS2_21DefaultProxyFilterTagEEEE38_nn_sf_sync_GetLinkedNintendoAccountIdENS0_3OutINS5_17NintendoAccountIdEvEE
 00000000:0000007100049100       _ZN2nn2sf4cmif6client6detail13CmifProxyImplINS_7account3nas29IOAuthProcedureForExternalNsaENS2_19CmifDomainProxyKindINS0_4hipc6client38Hipc2ClientSessionManagedProxyKindBaseINSA_18Hipc2ProxyKindBaseILNS9_6detail11MessageTypeE6EEEEEEENS0_25StatelessAllocationPolicyINS0_22ExpHeapStaticAllocatorILm2048ENS5_6detail12ObjectHolder24ObjectHolderAllocatorTagEEEEES7_NS3_19ProcessModifierImplINS2_21DefaultProxyFilterTagEEEE23_nn_sf_sync_GetNicknameERKNS0_8OutArrayIcEE
 00000000:0000007100049130       _ZN2nn2sf4cmif6client6detail13CmifProxyImplINS_7account3nas29IOAuthProcedureForExternalNsaENS2_19CmifDomainProxyKindINS0_4hipc6client38Hipc2ClientSessionManagedProxyKindBaseINSA_18Hipc2ProxyKindBaseILNS9_6detail11MessageTypeE6EEEEEEENS0_25StatelessAllocationPolicyINS0_22ExpHeapStaticAllocatorILm2048ENS5_6detail12ObjectHolder24ObjectHolderAllocatorTagEEEEES7_NS3_19ProcessModifierImplINS2_21DefaultProxyFilterTagEEEE27_nn_sf_sync_GetProfileImageENS0_3OutIjvEERKNS0_9OutBufferE
 00000000:0000007100049160       _ZN2nn2sf4cmif6client6detail13CmifProxyImplINS_7account4http15IOAuthProcedureENS2_19CmifDomainProxyKindINS0_4hipc6client38Hipc2ClientSessionManagedProxyKindBaseINSA_18Hipc2ProxyKindBaseILNS9_6detail11MessageTypeE6EEEEEEENS0_25StatelessAllocationPolicyINS0_22ExpHeapStaticAllocatorILm2048ENS5_6detail12ObjectHolder24ObjectHolderAllocatorTagEEEEENS5_3nas29IOAuthProcedureForExternalNsaENS3_19ProcessModifierImplINS2_21DefaultProxyFilterTagEEEE17GetCmifBaseObjectEv
 00000000:0000007100049170       _ZThn32_N2nn2sf4cmif6client6detail13CmifProxyImplINS_7account4http15IOAuthProcedureENS2_19CmifDomainProxyKindINS0_4hipc6client38Hipc2ClientSessionManagedProxyKindBaseINSA_18Hipc2ProxyKindBaseILNS9_6detail11MessageTypeE6EEEEEEENS0_25StatelessAllocationPolicyINS0_22ExpHeapStaticAllocatorILm2048ENS5_6detail12ObjectHolder24ObjectHolderAllocatorTagEEEEENS5_3nas29IOAuthProcedureForExternalNsaENS3_19ProcessModifierImplINS2_21DefaultProxyFilterTagEEEE17GetCmifBaseObjectEv
 00000000:0000007100049370       _ZN2nn7account12AsyncContext4SwapERS1_
 00000000:00000071000493A0       _ZNK2nn7account12AsyncContext16GetPointerUnsafeEv
 00000000:00000071000493B0       _ZN2nn7account12AsyncContextC1EOS1_
 00000000:00000071000493E0       _ZN2nn7account12AsyncContextaSEOS1_
 00000000:00000071000494B0       _ZN2nn7account12AsyncContextC1EPNS0_6detail13IAsyncContextE
 00000000:00000071000494D0       _ZN2nn7account12AsyncContextC1EPNS0_6detail13IAsyncContextERKNS0_3UidE
 00000000:00000071000494F0       _ZN2nn7account12AsyncContextC2Ev
 00000000:0000007100049510       _ZN2nn7account12AsyncContextD2Ev
 00000000:00000071000495B0       _ZNK2nn7account12AsyncContextcvbEv
 00000000:00000071000495C0       _ZN2nn7account12AsyncContextD0Ev
 00000000:0000007100049670       _ZN2nn7account12AsyncContext14GetSystemEventEPNS_2os11SystemEventE
 00000000:0000007100049720       _ZN2nn7account12AsyncContext6CancelEv
 00000000:0000007100049750       _ZN2nn7account12AsyncContext7HasDoneEPb
 00000000:0000007100049780       _ZN2nn7account12AsyncContext9GetResultEv
 00000000:00000071000497B0       _ZN2nn7account33InitializeBaasAccessTokenAccessorEv
 00000000:00000071000498C0       _ZN2nn7account37InitializeBaasAccessTokenAccessorWithEONS_2sf13SharedPointerINS0_24IBaasAccessTokenAccessorEEE
 00000000:0000007100049970       _ZN2nn7account31FinalizeBaasAccessTokenAccessorEv
 00000000:00000071000499F0       _ZN2nn7account31EnsureBaasAccessTokenCacheAsyncEPNS0_12AsyncContextERKNS0_3UidE
 00000000:0000007100049AD0       _ZN2nn7account24LoadBaasAccessTokenCacheEPmPcmRKNS0_3UidE
 00000000:0000007100049B80       _ZN2nn7account22GetBaasDeviceAccountIdEPmRKNS0_3UidE
 00000000:0000007100049C00       _ZZN2nn2sf40SimpleAllInOneHipcSubDomainClientManagerILm17EE27InitializeShimLibraryHolderINS_7account24IBaasAccessTokenAccessorENS0_4cmif6client6detail19ProcessModifierImplINS7_21DefaultProxyFilterTagEEEEENS_6ResultEPNS0_23ShimLibraryObjectHolderIT_EEPKcPNS_14MemoryResourceEENUlPNS0_13SharedPointerIS5_EEE_clESN_
 00000000:0000007100049F30       _ZN2nn2sf4hipc6client34HipcSimpleClientSessionManagerBaseINS2_29DefaultSessionResourceManagerEE4Impl18InitializeByHandleINS_7account24IBaasAccessTokenAccessorENS0_30MemoryResourceAllocationPolicyENS0_4cmif6client6detail19ProcessModifierImplINSC_21DefaultProxyFilterTagEEEEENS_6ResultEPNS0_13SharedPointerIT_EEPNT0_9AllocatorENS_3svc6HandleE
 00000000:000000710004A040       _ZN2nn2sf6detail38ObjectImplFactoryWithStatefulAllocatorINS0_4cmif6client6detail9CmifProxyINS_7account24IBaasAccessTokenAccessorENS4_19CmifDomainProxyKindINS0_4hipc6client38Hipc2ClientSessionManagedProxyKindBaseINSB_18Hipc2ProxyKindBaseILNSA_6detail11MessageTypeE6EEEEEEENS0_30MemoryResourceAllocationPolicyENS5_19ProcessModifierImplINS4_21DefaultProxyFilterTagEEEvEESJ_E6Object12AddReferenceEv
 00000000:000000710004A050       _ZN2nn2sf6detail38ObjectImplFactoryWithStatefulAllocatorINS0_4cmif6client6detail9CmifProxyINS_7account24IBaasAccessTokenAccessorENS4_19CmifDomainProxyKindINS0_4hipc6client38Hipc2ClientSessionManagedProxyKindBaseINSB_18Hipc2ProxyKindBaseILNSA_6detail11MessageTypeE6EEEEEEENS0_30MemoryResourceAllocationPolicyENS5_19ProcessModifierImplINS4_21DefaultProxyFilterTagEEEvEESJ_E6Object7ReleaseEv
 00000000:000000710004A0B0       _ZN2nn2sf4cmif6client6detail13CmifProxyImplINS_7account24IBaasAccessTokenAccessorENS2_19CmifDomainProxyKindINS0_4hipc6client38Hipc2ClientSessionManagedProxyKindBaseINS9_18Hipc2ProxyKindBaseILNS8_6detail11MessageTypeE6EEEEEEENS0_30MemoryResourceAllocationPolicyES6_NS3_19ProcessModifierImplINS2_21DefaultProxyFilterTagEEEE12GetProxyInfoEv
 00000000:000000710004A0C0       _ZN2nn2sf4cmif6client6detail13CmifProxyImplINS_7account24IBaasAccessTokenAccessorENS2_19CmifDomainProxyKindINS0_4hipc6client38Hipc2ClientSessionManagedProxyKindBaseINS9_18Hipc2ProxyKindBaseILNS8_6detail11MessageTypeE6EEEEEEENS0_30MemoryResourceAllocationPolicyES6_NS3_19ProcessModifierImplINS2_21DefaultProxyFilterTagEEEE28_nn_sf_sync_EnsureCacheAsyncENS0_3OutINS0_13SharedPointerINS5_6detail13IAsyncContextEEEvEERKNS5_3UidE
 00000000:000000710004A170       _ZN2nn2sf4cmif6client6detail13CmifProxyImplINS_7account24IBaasAccessTokenAccessorENS2_19CmifDomainProxyKindINS0_4hipc6client38Hipc2ClientSessionManagedProxyKindBaseINS9_18Hipc2ProxyKindBaseILNS8_6detail11MessageTypeE6EEEEEEENS0_30MemoryResourceAllocationPolicyES6_NS3_19ProcessModifierImplINS2_21DefaultProxyFilterTagEEEE21_nn_sf_sync_LoadCacheENS0_3OutIjvEERKNS0_9OutBufferERKNS5_3UidE
 00000000:000000710004A1A0       _ZN2nn2sf4cmif6client6detail13CmifProxyImplINS_7account24IBaasAccessTokenAccessorENS2_19CmifDomainProxyKindINS0_4hipc6client38Hipc2ClientSessionManagedProxyKindBaseINS9_18Hipc2ProxyKindBaseILNS8_6detail11MessageTypeE6EEEEEEENS0_30MemoryResourceAllocationPolicyES6_NS3_19ProcessModifierImplINS2_21DefaultProxyFilterTagEEEE30_nn_sf_sync_GetDeviceAccountIdENS0_3OutImvEERKNS5_3UidE
 00000000:000000710004A1C0       _ZN2nn2sf4cmif6client6detail13CmifProxyImplINS_7account24IBaasAccessTokenAccessorENS2_19CmifDomainProxyKindINS0_4hipc6client38Hipc2ClientSessionManagedProxyKindBaseINS9_18Hipc2ProxyKindBaseILNS8_6detail11MessageTypeE6EEEEEEENS0_30MemoryResourceAllocationPolicyES6_NS3_19ProcessModifierImplINS2_21DefaultProxyFilterTagEEEE17GetCmifBaseObjectEv
 00000000:000000710004A1D0       _ZThn32_N2nn2sf4cmif6client6detail13CmifProxyImplINS_7account24IBaasAccessTokenAccessorENS2_19CmifDomainProxyKindINS0_4hipc6client38Hipc2ClientSessionManagedProxyKindBaseINS9_18Hipc2ProxyKindBaseILNS8_6detail11MessageTypeE6EEEEEEENS0_30MemoryResourceAllocationPolicyES6_NS3_19ProcessModifierImplINS2_21DefaultProxyFilterTagEEEE17GetCmifBaseObjectEv
 00000000:000000710004A1E0       _ZN2nn2sf4cmif6client6detail36GetClientProcessorImplWithObjectBaseINS2_19CmifDomainProxyKindINS0_4hipc6client38Hipc2ClientSessionManagedProxyKindBaseINS7_18Hipc2ProxyKindBaseILNS6_6detail11MessageTypeE6EEEEEEENS3_19ProcessModifierImplINS2_21DefaultProxyFilterTagEEEE14ObjectAssignerINS0_30MemoryResourceAllocationPolicyENS_14MemoryResourceEE14AllocateObjectINS_7account6detail13IAsyncContextEEEvi
 00000000:000000710004A290       _ZN2nn2sf6detail38ObjectImplFactoryWithStatefulAllocatorINS0_4cmif6client6detail9CmifProxyINS_7account6detail13IAsyncContextENS4_19CmifDomainProxyKindINS0_4hipc6client38Hipc2ClientSessionManagedProxyKindBaseINSC_18Hipc2ProxyKindBaseILNSB_6detail11MessageTypeE6EEEEEEENS0_30MemoryResourceAllocationPolicyENS5_19ProcessModifierImplINS4_21DefaultProxyFilterTagEEEvEESK_E6Object12AddReferenceEv
 00000000:000000710004A2A0       _ZN2nn2sf6detail38ObjectImplFactoryWithStatefulAllocatorINS0_4cmif6client6detail9CmifProxyINS_7account6detail13IAsyncContextENS4_19CmifDomainProxyKindINS0_4hipc6client38Hipc2ClientSessionManagedProxyKindBaseINSC_18Hipc2ProxyKindBaseILNSB_6detail11MessageTypeE6EEEEEEENS0_30MemoryResourceAllocationPolicyENS5_19ProcessModifierImplINS4_21DefaultProxyFilterTagEEEvEESK_E6Object7ReleaseEv
 00000000:000000710004A300       _ZN2nn2sf4cmif6client6detail13CmifProxyImplINS_7account6detail13IAsyncContextENS2_19CmifDomainProxyKindINS0_4hipc6client38Hipc2ClientSessionManagedProxyKindBaseINSA_18Hipc2ProxyKindBaseILNS9_6detail11MessageTypeE6EEEEEEENS0_30MemoryResourceAllocationPolicyES7_NS3_19ProcessModifierImplINS2_21DefaultProxyFilterTagEEEE12GetProxyInfoEv
 00000000:000000710004A310       _ZN2nn2sf4cmif6client6detail13CmifProxyImplINS_7account6detail13IAsyncContextENS2_19CmifDomainProxyKindINS0_4hipc6client38Hipc2ClientSessionManagedProxyKindBaseINSA_18Hipc2ProxyKindBaseILNS9_6detail11MessageTypeE6EEEEEEENS0_30MemoryResourceAllocationPolicyES7_NS3_19ProcessModifierImplINS2_21DefaultProxyFilterTagEEEE26_nn_sf_sync_GetSystemEventENS0_3OutINS0_12NativeHandleEvEE
 00000000:000000710004A330       _ZN2nn2sf4cmif6client6detail13CmifProxyImplINS_7account6detail13IAsyncContextENS2_19CmifDomainProxyKindINS0_4hipc6client38Hipc2ClientSessionManagedProxyKindBaseINSA_18Hipc2ProxyKindBaseILNS9_6detail11MessageTypeE6EEEEEEENS0_30MemoryResourceAllocationPolicyES7_NS3_19ProcessModifierImplINS2_21DefaultProxyFilterTagEEEE18_nn_sf_sync_CancelEv
 00000000:000000710004A350       _ZN2nn2sf4cmif6client6detail13CmifProxyImplINS_7account6detail13IAsyncContextENS2_19CmifDomainProxyKindINS0_4hipc6client38Hipc2ClientSessionManagedProxyKindBaseINSA_18Hipc2ProxyKindBaseILNS9_6detail11MessageTypeE6EEEEEEENS0_30MemoryResourceAllocationPolicyES7_NS3_19ProcessModifierImplINS2_21DefaultProxyFilterTagEEEE19_nn_sf_sync_HasDoneENS0_3OutIbvEE
 00000000:000000710004A370       _ZN2nn2sf4cmif6client6detail13CmifProxyImplINS_7account6detail13IAsyncContextENS2_19CmifDomainProxyKindINS0_4hipc6client38Hipc2ClientSessionManagedProxyKindBaseINSA_18Hipc2ProxyKindBaseILNS9_6detail11MessageTypeE6EEEEEEENS0_30MemoryResourceAllocationPolicyES7_NS3_19ProcessModifierImplINS2_21DefaultProxyFilterTagEEEE21_nn_sf_sync_GetResultEv
 00000000:000000710004A390       _ZN2nn2sf4cmif6client6detail13CmifProxyImplINS_7account6detail13IAsyncContextENS2_19CmifDomainProxyKindINS0_4hipc6client38Hipc2ClientSessionManagedProxyKindBaseINSA_18Hipc2ProxyKindBaseILNS9_6detail11MessageTypeE6EEEEEEENS0_30MemoryResourceAllocationPolicyES7_NS3_19ProcessModifierImplINS2_21DefaultProxyFilterTagEEEE17GetCmifBaseObjectEv
 00000000:000000710004A3A0       _ZThn32_N2nn2sf4cmif6client6detail13CmifProxyImplINS_7account6detail13IAsyncContextENS2_19CmifDomainProxyKindINS0_4hipc6client38Hipc2ClientSessionManagedProxyKindBaseINSA_18Hipc2ProxyKindBaseILNS9_6detail11MessageTypeE6EEEEEEENS0_30MemoryResourceAllocationPolicyES7_NS3_19ProcessModifierImplINS2_21DefaultProxyFilterTagEEEE17GetCmifBaseObjectEv
 00000000:000000710004A3B0       _ZN2nn2sf4cmif6client34CmifDomainProxyClientCoreProcessorINS0_4hipc6client38Hipc2ClientSessionManagedProxyKindBaseINS5_18Hipc2ProxyKindBaseILNS4_6detail11MessageTypeE6EEEEENS1_6detail14CoreMethodInfoINSt3__15tupleIJNSC_18OutRawArgumentInfoILm4ELm4ELl0EEENSC_18BufferArgumentInfoILi0ELi6ELm0EEENSC_17InRawArgumentInfoILm16ELm8ELl0EEEEEELm16ELm4ELb0EEESM_E7ProcessEPNS2_23CmifDomainClientMessageISB_E15ProxyBaseObjectENS2_24OutRawClientArgumentTypeILm4ELm4EEENS2_24BufferClientArgumentTypeENS2_23InRawClientArgumentTypeILm16ELm8EvEEj
 00000000:000000710004A5D0       _ZN2nn2sf4cmif6client34CmifDomainProxyClientCoreProcessorINS0_4hipc6client38Hipc2ClientSessionManagedProxyKindBaseINS5_18Hipc2ProxyKindBaseILNS4_6detail11MessageTypeE6EEEEENS1_6detail14CoreMethodInfoINSt3__15tupleIJNSC_18OutRawArgumentInfoILm8ELm8ELl0EEENSC_17InRawArgumentInfoILm16ELm8ELl0EEEEEELm16ELm8ELb0EEESK_E7ProcessEPNS2_23CmifDomainClientMessageISB_E15ProxyBaseObjectENS2_24OutRawClientArgumentTypeILm8ELm8EEENS2_23InRawClientArgumentTypeILm16ELm8EvEEj
 00000000:000000710004A730       _ZZN2nn2sf40SimpleAllInOneHipcSubDomainClientManagerILm17EE27InitializeShimLibraryHolderINS_7account24IBaasAccessTokenAccessorENS0_4cmif6client6detail19ProcessModifierImplINS7_21DefaultProxyFilterTagEEEEENS_6ResultEPNS0_23ShimLibraryObjectHolderIT_EEPKcPNS_14MemoryResourceEENUlPvE_8__invokeESL_
 00000000:000000710004A740       _ZZN2nn2sf40SimpleAllInOneHipcSubDomainClientManagerILm17EE27InitializeShimLibraryHolderINS_7account24IBaasAccessTokenAccessorENS0_4cmif6client6detail19ProcessModifierImplINS7_21DefaultProxyFilterTagEEEEENS_6ResultEPNS0_23ShimLibraryObjectHolderIT_EEPKcPNS_14MemoryResourceEENKUlPvE_clESL_
 00000000:000000710004A7E0       _ZN2nn7account25CachedNintendoAccountInfoC2Ev
 00000000:000000710004A7F0       _ZNK2nn7account25CachedNintendoAccountInfo11GetBirthdayEPm
 00000000:000000710004A830       _ZNK2nn7account25CachedNintendoAccountInfo9GetGenderEPm
 00000000:000000710004A870       _ZNK2nn7account25CachedNintendoAccountInfo10GetCountryEPm
 00000000:000000710004A8B0       _ZNK2nn7account25CachedNintendoAccountInfo9GetRegionEPm
 00000000:000000710004A8F0       _ZN2nn7account41CachedNintendoAccountInfoForSystemServiceC2Ev
 00000000:000000710004A900       _ZNK2nn7account41CachedNintendoAccountInfoForSystemService5GetIdEv
 00000000:000000710004A910       _ZNK2nn7account41CachedNintendoAccountInfoForSystemService7IsChildEv
 00000000:000000710004A920       _ZNK2nn7account41CachedNintendoAccountInfoForSystemService13GetScreenNameEPm
 00000000:000000710004A960       _ZNK2nn7account41CachedNintendoAccountInfoForSystemService15GetEmailAddressEPm
 00000000:000000710004A9A0       _ZNK2nn7account41CachedNintendoAccountInfoForSystemService10GetLoginIdEPm
 00000000:000000710004A9E0       _ZNK2nn7account41CachedNintendoAccountInfoForSystemService11GetBirthdayEPm
 00000000:000000710004AA20       _ZNK2nn7account41CachedNintendoAccountInfoForSystemService9GetGenderEPm
 00000000:000000710004AA60       _ZNK2nn7account41CachedNintendoAccountInfoForSystemService10GetCountryEPm
 00000000:000000710004AAA0       _ZNK2nn7account41CachedNintendoAccountInfoForSystemService9GetRegionEPm
 00000000:000000710004AAE0       _ZNK2nn7account41CachedNintendoAccountInfoForSystemService11GetLanguageEPm
 00000000:000000710004AB20       _ZNK2nn7account41CachedNintendoAccountInfoForSystemService23GetAnalyticsOptedInFlagEv
 00000000:000000710004AB30       _ZNK2nn7account41CachedNintendoAccountInfoForSystemService27IsLinkedWithNintendoNetworkEv
 00000000:000000710004AB40       _ZN2nn7account19CalculateCheckDigitERKNS0_23NetworkServiceAccountIdE
 00000000:000000710004ABB0       _ZN2nn7account33ExternalNetworkServiceAccountInfoC2Ev
 00000000:000000710004ABC0       _ZN2nn7account33ExternalNetworkServiceAccountInfoC2EPNS0_4baas18IGuestLoginRequestE
 00000000:000000710004ABD0       _ZN2nn7account33ExternalNetworkServiceAccountInfoC1EOS1_
 00000000:000000710004ABE0       _ZN2nn7account33ExternalNetworkServiceAccountInfoD2Ev
 00000000:000000710004AC00       _ZN2nn7account33ExternalNetworkServiceAccountInfoaSEOS1_
 00000000:000000710004AC40       _ZN2nn7account33ExternalNetworkServiceAccountInfo4SwapERS1_
 00000000:000000710004AC60       _ZNK2nn7account33ExternalNetworkServiceAccountInfo11GetNicknameEPNS0_8NicknameE
 00000000:000000710004ACA0       _ZNK2nn7account33ExternalNetworkServiceAccountInfo15GetProfileImageEPmPvm
 00000000:000000710004AD10       _ZNK2nn7account33ExternalNetworkServiceAccountInfo26GetNetworkServiceAccountIdEPNS0_23NetworkServiceAccountIdE
 00000000:000000710004AD40       _ZNK2nn7account33ExternalNetworkServiceAccountInfo37LoadNetworkServiceAccountIdTokenCacheEPmPcm
 00000000:000000710004ADB0       _ZN2nn7account38ExternalNetworkServiceAccountRegistrarC2Ev
 00000000:000000710004ADC0       _ZN2nn7account38ExternalNetworkServiceAccountRegistrarC1EPNS0_4baas28IFloatingRegistrationRequestE
 00000000:000000710004ADD0       _ZN2nn7account38ExternalNetworkServiceAccountRegistrarC1EOS1_
 00000000:000000710004ADE0       _ZN2nn7account38ExternalNetworkServiceAccountRegistrarD1Ev
 00000000:000000710004AE00       _ZN2nn7account38ExternalNetworkServiceAccountRegistraraSEOS1_
 00000000:000000710004AE40       _ZN2nn7account38ExternalNetworkServiceAccountRegistrar4SwapERS1_
 00000000:000000710004AE60       _ZNK2nn7account38ExternalNetworkServiceAccountRegistrar26GetOAuthProcedureSessionIdEPNS0_9SessionIdE
 00000000:000000710004AEC0       _ZN2nn7account38ExternalNetworkServiceAccountRegistrar12RegisterUserEPNS0_3UidE
 00000000:000000710004AEF0       _ZN2nn7account38ExternalNetworkServiceAccountRegistrar14RegisterUserAsERKNS0_3UidE
 00000000:000000710004AF20       _ZN2nn7account38ExternalNetworkServiceAccountRegistrar34RegisterNetworkServiceAccountAsyncEPNS0_12AsyncContextE
 00000000:000000710004AFC0       _ZN2nn7account38ExternalNetworkServiceAccountRegistrar34RegisterNetworkServiceAccountAsyncEPNS0_12AsyncContextERKNS0_3UidE
 00000000:000000710004B060       _ZNK2nn7account38ExternalNetworkServiceAccountRegistrar11GetNicknameEPNS0_8NicknameE
 00000000:000000710004B0A0       _ZNK2nn7account38ExternalNetworkServiceAccountRegistrar15GetProfileImageEPmPvm
 00000000:000000710004B110       _ZNK2nn7account38ExternalNetworkServiceAccountRegistrar26GetNetworkServiceAccountIdEPNS0_23NetworkServiceAccountIdE
 00000000:000000710004B140       _ZN2nn7account38ExternalNetworkServiceAccountRegistrar30SetSystemProgramIdentificationERKNS0_27SystemProgramIdentificationE
 00000000:000000710004B170       _ZN2nn7account38ExternalNetworkServiceAccountRegistrar44EnsureNetworkServiceAccountIdTokenCacheAsyncEPNS0_12AsyncContextE
 00000000:000000710004B210       _ZNK2nn7account38ExternalNetworkServiceAccountRegistrar37LoadNetworkServiceAccountIdTokenCacheEPmPcm
 00000000:000000710004B280       _ZN2nn7account20MakePreselectionInfoERKNS0_3UidE
 00000000:000000710004B380       _ZN2nn7account36EnsureNetworkServiceAccountAvailableERKNS0_10UserHandleE
 00000000:000000710004B450       _ZN2nn7account32IsNetworkServiceAccountAvailableEPbRKNS0_10UserHandleE
 00000000:000000710004B4D0       _ZN2nn7account26GetNetworkServiceAccountIdEPNS0_23NetworkServiceAccountIdERKNS0_10UserHandleE
 00000000:000000710004B500       _ZN2nn7account44EnsureNetworkServiceAccountIdTokenCacheAsyncEPNS0_12AsyncContextERKNS0_10UserHandleE
 00000000:000000710004B5D0       _ZN2nn7account37LoadNetworkServiceAccountIdTokenCacheEPmPcmRKNS0_10UserHandleE
 00000000:000000710004B640       _ZN2nn7account41CreateNintendoAccountAuthorizationRequestEPNS0_42NintendoAccountAuthorizationRequestContextERKNS0_10UserHandleERKNS0_45NintendoAccountAuthorizationRequestParametersEPvm
 00000000:000000710004B7C0       _ZN2nn7account29LoadCachedNintendoAccountInfoEPNS0_25CachedNintendoAccountInfoERKNS0_10UserHandleEPvm
 00000000:000000710004B830       _ZN2nn7account28NetworkServiceAccountManagerC1Ev
 00000000:000000710004B850       _ZN2nn7account28NetworkServiceAccountManagerC1ERKNS0_3UidEPNS0_4baas24IManagerForSystemServiceE
 00000000:000000710004B870       _ZN2nn7account28NetworkServiceAccountManagerD0Ev
 00000000:000000710004B8C0       _ZN2nn7account28NetworkServiceAccountManager4SwapERS1_
 00000000:000000710004B8F0       _ZNK2nn7account28NetworkServiceAccountManager6GetPtrEv
 00000000:000000710004B900       _ZN2nn7account28NetworkServiceAccountManager36EnsureNetworkServiceAccountAvailableENS0_32NintendoAccountStartupDialogTypeE
 00000000:000000710004B9C0       _ZN2nn7account28NetworkServiceAccountManager38CheckNetworkServiceAccountAvailabilityEv
 00000000:000000710004B9F0       _ZN2nn7account28NetworkServiceAccountManager32IsNetworkServiceAccountAvailableEPb
 00000000:000000710004BA70       _ZN2nn7account28NetworkServiceAccountManager26GetNetworkServiceAccountIdEPNS0_23NetworkServiceAccountIdE
 00000000:000000710004BAA0       _ZN2nn7account28NetworkServiceAccountManager20GetNintendoAccountIdEPNS0_17NintendoAccountIdE
 00000000:000000710004BAD0       _ZN2nn7account28NetworkServiceAccountManager29LoadCachedNintendoAccountInfoEPNS0_41CachedNintendoAccountInfoForSystemServiceEPvm
 00000000:000000710004BB10       _ZN2nn7account28NetworkServiceAccountManager37RefreshCachedNintendoAccountInfoAsyncEPNS0_12AsyncContextE
 00000000:000000710004BBB0       _ZN2nn7account28NetworkServiceAccountManager50RefreshCachedNintendoAccountInfoAsyncIfTimeElapsedEPbPNS0_12AsyncContextENS_8TimeSpanE
 00000000:000000710004BCC0       _ZN2nn7account28NetworkServiceAccountManager34GetCachedNetworkServiceLicenseInfoEPNS0_31CachedNetworkServiceLicenseInfoE
 00000000:000000710004BD40       _ZN2nn7account28NetworkServiceAccountManager43RefreshCachedNetworkServiceLicenseInfoAsyncEPNS0_12AsyncContextE
 00000000:000000710004BDE0       _ZN2nn7account28NetworkServiceAccountManager56RefreshCachedNetworkServiceLicenseInfoAsyncIfTimeElapsedEPbPNS0_12AsyncContextENS_8TimeSpanE
 00000000:000000710004BEF0       _ZN2nn7account28NetworkServiceAccountManager44EnsureNetworkServiceAccountIdTokenCacheAsyncEPNS0_12AsyncContextE
 00000000:000000710004BF90       _ZN2nn7account28NetworkServiceAccountManager37LoadNetworkServiceAccountIdTokenCacheEPmPcm
 00000000:000000710004C000       _ZN2nn7account28NetworkServiceAccountManager41CreateNintendoAccountAuthorizationRequestEPNS0_42NintendoAccountAuthorizationRequestContextEmPKcmRKNS0_45NintendoAccountAuthorizationRequestParametersEPvm
 00000000:000000710004C1B0       _ZN2nn7account28NetworkServiceAccountManager29RefreshNotificationTokenAsyncEPNS0_12AsyncContextE
 00000000:000000710004C250       _ZN2nn7account28NetworkServiceAccountManager46DebugCreateNintendoAccountAuthorizationRequestEPNS0_42NintendoAccountAuthorizationRequestContextEmPKcmRKNS0_45NintendoAccountAuthorizationRequestParametersEPvm
 00000000:000000710004C3F0       _ZN2nn7account28NetworkServiceAccountManager30SetSystemProgramIdentificationERKNS0_27SystemProgramIdentificationE
 00000000:000000710004C420       _ZN2nn7account34NetworkServiceAccountAdministratorC2Ev
 00000000:000000710004C440       _ZN2nn7account34NetworkServiceAccountAdministratorC1ERKNS0_3UidEPNS0_4baas14IAdministratorE
 00000000:000000710004C470       _ZN2nn7account34NetworkServiceAccountAdministrator4SwapERS1_
 00000000:000000710004C4A0       _ZN2nn7account34NetworkServiceAccountAdministrator33IsNetworkServiceAccountRegisteredEPb
 00000000:000000710004C4D0       _ZN2nn7account34NetworkServiceAccountAdministrator13RegisterAsyncEPNS0_12AsyncContextE
 00000000:000000710004C580       _ZN2nn7account34NetworkServiceAccountAdministrator15UnregisterAsyncEPNS0_12AsyncContextE
 00000000:000000710004C630       _ZN2nn7account34NetworkServiceAccountAdministrator29DeleteRegistrationInfoLocallyEv
 00000000:000000710004C660       _ZN2nn7account34NetworkServiceAccountAdministrator23SynchronizeProfileAsyncEPNS0_12AsyncContextE
 00000000:000000710004C710       _ZN2nn7account34NetworkServiceAccountAdministrator36SynchronizeProfileAsyncIfTimeElapsedEPbPNS0_12AsyncContextENS_8TimeSpanE
 00000000:000000710004C820       _ZN2nn7account34NetworkServiceAccountAdministrator27IsLinkedWithNintendoAccountEPb
 00000000:000000710004C850       _ZN2nn7account34NetworkServiceAccountAdministrator40CreateProcedureToLinkWithNintendoAccountEPNS0_31NintendoAccountLinkageProcedureE
 00000000:000000710004C900       _ZN2nn7account34NetworkServiceAccountAdministrator40ResumeProcedureToLinkWithNintendoAccountEPNS0_31NintendoAccountLinkageProcedureERKNS0_9SessionIdE
 00000000:000000710004C9C0       _ZN2nn7account34NetworkServiceAccountAdministrator52CreateProcedureToUpdateLinkageStateOfNintendoAccountEPNS0_6detail24SimpleOAuthProcedureBaseE
 00000000:000000710004CA70       _ZN2nn7account34NetworkServiceAccountAdministrator52ResumeProcedureToUpdateLinkageStateOfNintendoAccountEPNS0_6detail24SimpleOAuthProcedureBaseERKNS0_9SessionIdE
 00000000:000000710004CB30       _ZN2nn7account34NetworkServiceAccountAdministrator44CreateProcedureToLinkNnidWithNintendoAccountEPNS0_6detail24SimpleOAuthProcedureBaseE
 00000000:000000710004CBE0       _ZN2nn7account34NetworkServiceAccountAdministrator44ResumeProcedureToLinkNnidWithNintendoAccountEPNS0_6detail24SimpleOAuthProcedureBaseERKNS0_9SessionIdE
 00000000:000000710004CCA0       _ZN2nn7account34NetworkServiceAccountAdministrator65ProxyProcedureToAcquireApplicationAuthorizationForNintendoAccountEPNS0_48NintendoAccountApplicationAuthorizationProcedureERKNS0_9SessionIdE
 00000000:000000710004CD60       _ZNK2nn7account34NetworkServiceAccountAdministrator36GetRequestForNintendoAccountInfoViewEPNS0_10RequestUrlE
 00000000:000000710004CD90       _ZNK2nn7account34NetworkServiceAccountAdministrator31GetRequiredLicenseCacheForLoginEPNS0_25NetworkServiceLicenseKindERKNS_13ApplicationIdE
 00000000:000000710004CE10       _ZNK2nn7account34NetworkServiceAccountAdministrator36GetRequiredLicenseCacheForOnlinePlayEPNS0_25NetworkServiceLicenseKindERKNS_13ApplicationIdE
 00000000:000000710004CE90       _ZNK2nn7account34NetworkServiceAccountAdministrator50IsRequiredLicenseCacheRefreshRequiredForOnlinePlayEPbRKNS_13ApplicationIdE
 00000000:000000710004CEC0       _ZN2nn7account34NetworkServiceAccountAdministrator44RefreshRequiredLicenseCacheForOnlinePlayAyncEPNS0_12AsyncContextERKNS_13ApplicationIdE
 00000000:000000710004CF70       _ZN2nn7account34NetworkServiceAccountAdministrator30InvalidateRequiredLicenseCacheERKNS_13ApplicationIdE
 00000000:000000710004CFA0       _ZN2nn7account34NetworkServiceAccountAdministrator39TryRecoverNintendoAccountUserStateAsyncEPNS0_12AsyncContextE
 00000000:000000710004D050       _ZN2nn7account34NetworkServiceAccountAdministrator46DebugSetNetworkServiceAccountAvailabilityErrorENS_6ResultE
 00000000:000000710004D1D0       _ZN2nn7account34NetworkServiceAccountAdministrator31DebugUnlinkNintendoAccountAsyncEPNS0_12AsyncContextE
 00000000:000000710004D290       _ZN2nn7account34NetworkServiceAccountAdministrator18UploadProfileAsyncEPNS0_12AsyncContextE
 00000000:000000710004D350       _ZN2nn7account28NetworkServiceAccountManagerD2Ev
 00000000:000000710004D380       _ZN2nn7account34NetworkServiceAccountAdministratorD0Ev
 00000000:000000710004D3D0       _ZN2nn7account37AsyncNetworkServiceLicenseInfoContextC2EPNS0_4baas34IAsyncContextForLoginForOnlinePlayE
 00000000:000000710004D400       _ZN2nn7account37AsyncNetworkServiceLicenseInfoContextC2Ev
 00000000:000000710004D430       _ZN2nn7account37AsyncNetworkServiceLicenseInfoContextC1EOS1_
 00000000:000000710004D460       _ZN2nn7account37AsyncNetworkServiceLicenseInfoContextaSEOS1_
 00000000:000000710004D4C0       _ZN2nn7account37AsyncNetworkServiceLicenseInfoContext28GetNetworkServiceLicenseKindEv
 00000000:000000710004D540       _ZN2nn7account34LoadNetworkServiceLicenseInfoAsyncEPNS0_37AsyncNetworkServiceLicenseInfoContextERKNS0_10UserHandleE
 00000000:000000710004D600       _ZN2nn7account37AsyncNetworkServiceLicenseInfoContextD0Ev
 00000000:000000710004D630       _ZN2nn7account42NintendoAccountAuthorizationRequestContextC2Ev
 00000000:000000710004D650       _ZN2nn7account42NintendoAccountAuthorizationRequestContextC1EPNS0_3nas21IAuthorizationRequestERKNS0_3UidE
 00000000:000000710004D670       _ZN2nn7account42NintendoAccountAuthorizationRequestContextC1EOS1_
 00000000:000000710004D6B0       _ZN2nn7account42NintendoAccountAuthorizationRequestContextD2Ev
 00000000:000000710004D6F0       _ZN2nn7account42NintendoAccountAuthorizationRequestContextaSEOS1_
 00000000:000000710004D7D0       _ZN2nn7account42NintendoAccountAuthorizationRequestContext4SwapERS1_
 00000000:000000710004D860       _ZN2nn7account42NintendoAccountAuthorizationRequestContext6InvokeEv
 00000000:000000710004D900       _ZN2nn7account42NintendoAccountAuthorizationRequestContext14GetSystemEventEPNS_2os11SystemEventE
 00000000:000000710004D920       _ZN2nn7account42NintendoAccountAuthorizationRequestContext6CancelEv
 00000000:000000710004D940       _ZN2nn7account42NintendoAccountAuthorizationRequestContext7HasDoneEPb
 00000000:000000710004D960       _ZN2nn7account42NintendoAccountAuthorizationRequestContext12GetRawResultEv
 00000000:000000710004D9D0       _ZN2nn7account42NintendoAccountAuthorizationRequestContext9GetResultEv
 00000000:000000710004DA80       _ZN2nn7account42NintendoAccountAuthorizationRequestContext34GetResultWithInteractionIfRequiredEv
 00000000:000000710004DBA0       _ZN2nn7account42NintendoAccountAuthorizationRequestContext20GetAuthorizationCodeEPmPcm
 00000000:000000710004DC10       _ZN2nn7account42NintendoAccountAuthorizationRequestContext10GetIdTokenEPmPcm
 00000000:000000710004DC80       _ZN2nn7account42NintendoAccountAuthorizationRequestContext8GetStateEPmPcm
 00000000:000000710004DD10       _ZN2nn7account42NintendoAccountAuthorizationRequestContext12DebugGetInfoEPmm
 00000000:000000710004DD80       _ZN2nn7account8Notifier4SwapERS1_
 00000000:000000710004DDA0       _ZN2nn7account8NotifierC2EPNS0_6detail9INotifierE
 00000000:000000710004DDC0       _ZN2nn7account8NotifierC2Ev
 00000000:000000710004DDE0       _ZN2nn7account8NotifierC2EOS1_
 00000000:000000710004DE00       _ZN2nn7account8NotifierD2Ev
 00000000:000000710004DE30       _ZN2nn7account8NotifierD0Ev
 00000000:000000710004DE80       _ZN2nn7account8NotifieraSEOS1_
 00000000:000000710004DEC0       _ZN2nn7account8Notifier14GetSystemEventEPNS_2os11SystemEventE
 00000000:000000710004DF70       _ZN2nn7account31NintendoAccountLinkageProcedureC2Ev
 00000000:000000710004DFA0       _ZN2nn7account31NintendoAccountLinkageProcedureC2ERKNS0_3UidEPNS0_3nas40IOAuthProcedureForNintendoAccountLinkageE
 00000000:000000710004DFD0       _ZN2nn7account31NintendoAccountLinkageProcedureC1EOS1_
 00000000:000000710004E000       _ZN2nn7account31NintendoAccountLinkageProcedureaSEOS1_
 00000000:000000710004E060       _ZN2nn7account31NintendoAccountLinkageProcedure4SwapERS1_
 00000000:000000710004E090       _ZN2nn7account31NintendoAccountLinkageProcedure10GetRequestEPNS0_10RequestUrlEPNS0_11CallbackUriENS0_37NintendoAccountAuthorizationPageThemeE
 00000000:000000710004E110       _ZN2nn7account31NintendoAccountLinkageProcedure31IsNetworkServiceAccountReplacedEPb
 00000000:000000710004E170       _ZN2nn7account48NintendoAccountApplicationAuthorizationProcedureC2Ev
 00000000:000000710004E1A0       _ZN2nn7account48NintendoAccountApplicationAuthorizationProcedureC2ERKNS0_3UidEPNS0_4http15IOAuthProcedureE
 00000000:000000710004E1D0       _ZN2nn7account48NintendoAccountApplicationAuthorizationProcedureC1EOS1_
 00000000:000000710004E200       _ZN2nn7account48NintendoAccountApplicationAuthorizationProcedureaSEOS1_
 00000000:000000710004E260       _ZN2nn7account48NintendoAccountApplicationAuthorizationProcedure4SwapERS1_
 00000000:000000710004E290       _ZN2nn7account49ExternalNetworkServiceAccountIntroducingProcedureC2Ev
 00000000:000000710004E2C0       _ZN2nn7account49ExternalNetworkServiceAccountIntroducingProcedureC1EPNS0_3nas29IOAuthProcedureForExternalNsaE
 00000000:000000710004E300       _ZN2nn7account49ExternalNetworkServiceAccountIntroducingProcedureC1EOS1_
 00000000:000000710004E330       _ZN2nn7account49ExternalNetworkServiceAccountIntroducingProcedureaSEOS1_
 00000000:000000710004E390       _ZN2nn7account49ExternalNetworkServiceAccountIntroducingProcedure4SwapERS1_
 00000000:000000710004E3C0       _ZNK2nn7account49ExternalNetworkServiceAccountIntroducingProcedure11GetNicknameEPNS0_8NicknameE
 00000000:000000710004E410       _ZNK2nn7account49ExternalNetworkServiceAccountIntroducingProcedure15GetProfileImageEPmPvm
 00000000:000000710004E480       _ZNK2nn7account49ExternalNetworkServiceAccountIntroducingProcedure26GetNetworkServiceAccountIdEPNS0_23NetworkServiceAccountIdE
 00000000:000000710004E4C0       _ZNK2nn7account49ExternalNetworkServiceAccountIntroducingProcedure26GetLinkedNintendoAccountIdEPNS0_17NintendoAccountIdE
 00000000:000000710004E500       _ZN2nn7account25UserRegistrationProcedureC2Ev
 00000000:000000710004E530       _ZN2nn7account25UserRegistrationProcedureC1EPNS0_3nas34IOAuthProcedureForUserRegistrationE
 00000000:000000710004E570       _ZN2nn7account25UserRegistrationProcedureC1EOS1_
 00000000:000000710004E5A0       _ZN2nn7account25UserRegistrationProcedureaSEOS1_
 00000000:000000710004E600       _ZN2nn7account25UserRegistrationProcedure4SwapERS1_
 00000000:000000710004E630       _ZNK2nn7account25UserRegistrationProcedure11GetNicknameEPNS0_8NicknameE
 00000000:000000710004E680       _ZNK2nn7account25UserRegistrationProcedure15GetProfileImageEPmPvm
 00000000:000000710004E6F0       _ZNK2nn7account25UserRegistrationProcedure26GetNetworkServiceAccountIdEPNS0_23NetworkServiceAccountIdE
 00000000:000000710004E730       _ZNK2nn7account25UserRegistrationProcedure26GetLinkedNintendoAccountIdEPNS0_17NintendoAccountIdE
 00000000:000000710004E770       _ZN2nn7account25UserRegistrationProcedure17RegisterUserAsyncEPNS0_12AsyncContextE
 00000000:000000710004E820       _ZNK2nn7account25UserRegistrationProcedure6GetUidEv
 00000000:000000710004E880       _ZN2nn7account31NintendoAccountLinkageProcedureD0Ev
 00000000:000000710004E8B0       _ZN2nn7account48NintendoAccountApplicationAuthorizationProcedureD0Ev
 00000000:000000710004E8E0       _ZN2nn7account49ExternalNetworkServiceAccountIntroducingProcedureD0Ev
 00000000:000000710004E910       _ZN2nn7account25UserRegistrationProcedureD0Ev
 00000000:000000710004E940       _ZN2nn7account13ProfileEditor4SwapERS1_
 00000000:000000710004EA90       _ZN2nn7account13ProfileEditorC1ERKNS0_3UidEPNS0_7profile14IProfileEditorE
 00000000:000000710004EAE0       _ZNK2nn7account13ProfileEditor19GetProfileImageSizeEPm
 00000000:000000710004EB30       _ZN2nn7account13ProfileEditorC2Ev
 00000000:000000710004EB80       _ZN2nn7account13ProfileEditorC1EOS1_
 00000000:000000710004EC40       _ZN2nn7account13ProfileEditorD2Ev
 00000000:000000710004EC70       _ZN2nn7account13ProfileEditorD0Ev
 00000000:000000710004ECC0       _ZN2nn7account13ProfileEditoraSEOS1_
 00000000:000000710004EF20       _ZN2nn7account13ProfileEditor7RefreshEv
 00000000:000000710004EF60       _ZNK2nn7account13ProfileEditor13IsLocalOriginEv
 00000000:000000710004EF90       _ZNK2nn7account13ProfileEditor12GetTimeStampEv
 00000000:000000710004EFA0       _ZNK2nn7account13ProfileEditor11GetNicknameEPNS0_8NicknameE
 00000000:000000710004EFD0       _ZNK2nn7account13ProfileEditor11GetUserDataEPcm
 00000000:000000710004F020       _ZNK2nn7account13ProfileEditor16LoadProfileImageEPmPvm
 00000000:000000710004F0C0       _ZN2nn7account13ProfileEditor11SetNicknameERKNS0_8NicknameE
 00000000:000000710004F0D0       _ZN2nn7account13ProfileEditor11SetUserDataEPKcm
 00000000:000000710004F120       _ZN2nn7account13ProfileEditor5FlushEv
 00000000:000000710004F150       _ZN2nn7account13ProfileEditor14FlushWithImageEPKvm
 00000000:000000710004F1A0       _ZN2nn5album21GetExtraMovieFileListEPiPNS0_14AlbumFileEntryEi
 00000000:000000710004F2B0       _ZN2nn5album20DeleteExtraMovieFileERKNS0_14AlbumFileEntryE
 00000000:000000710004F310       _ZN2nn5album11SetUserDataEPKvm
 00000000:000000710004F320       _ZN2nn5album26GetAlbumScreenshotFileListEPiPNS0_14AlbumFileEntryEi
 00000000:000000710004F430       _ZN2nn5album26GetAlbumScreenshotFileListEPiPNS0_14AlbumFileEntryEiRKNS_7account3UidE
 00000000:000000710004F560       _ZN2nn5album21GetAlbumMovieFileListEPiPNS0_14AlbumFileEntryEi
 00000000:000000710004F670       _ZN2nn5album14LoadAlbumImageEPiS1_PvmS2_mRKNS0_14AlbumFileEntryE
 00000000:000000710004F810       _ZN2nn5album14LoadAlbumImageEPiS1_PmPvmS3_mS3_mRKNS0_14AlbumFileEntryE
 00000000:000000710004FA30       _ZN2nn5album14LoadAlbumImageEPiS1_PNS0_18AlbumFileAttributeEPvmS4_mRKNS0_14AlbumFileEntryE
 00000000:000000710004FBF0       _ZN2nn5album14LoadAlbumImageEPiS1_PNS0_18AlbumFileAttributeEPmPvmS5_mS5_mRKNS0_14AlbumFileEntryE
 00000000:000000710004FE30       _ZN2nn5album23LoadAlbumThumbnailImageEPiS1_PvmS2_mRKNS0_14AlbumFileEntryE
 00000000:000000710004FFD0       _ZN2nn5album23LoadAlbumThumbnailImageEPiS1_PmPvmS3_mS3_mRKNS0_14AlbumFileEntryE
 00000000:00000071000501F0       _ZN2nn5album23LoadAlbumThumbnailImageEPiS1_PNS0_18AlbumFileAttributeEPvmS4_mRKNS0_14AlbumFileEntryE
 00000000:00000071000503B0       _ZN2nn5album23LoadAlbumThumbnailImageEPiS1_PNS0_18AlbumFileAttributeEPmPvmS5_mS5_mRKNS0_14AlbumFileEntryE
 00000000:00000071000505F0       _ZN2nn5album20OpenAlbumMovieStreamEPNS0_17MovieStreamHandleERKNS0_14AlbumFileEntryE
 00000000:0000007100050770       _ZN2nn5album21CloseAlbumMovieStreamENS0_17MovieStreamHandleE
 00000000:0000007100050800       _ZN2nn5album23GetAlbumMovieStreamSizeEPmNS0_17MovieStreamHandleE
 00000000:0000007100050850       _ZN2nn5album20ReadAlbumMovieStreamEPmPvmNS0_17MovieStreamHandleEl
 00000000:0000007100050960       _ZN2nn5album23GetAlbumFileCreatedTimeERKNS0_14AlbumFileEntryE
 00000000:0000007100050A10       _ZN2nn5album10InitializeEv
 00000000:0000007100050A40       _ZN2nn5album8FinalizeEv
 00000000:0000007100050A50       _ZN2nn5album17ConvertAlbumEntry14ConvertToAlbumERKNS_6capsrv21ApplicationAlbumEntryE
 00000000:0000007100050A70       _ZN2nn5album17ConvertAlbumEntry15ConvertToCapsrvERKNS0_14AlbumFileEntryE
 00000000:0000007100050A90       _ZN2nn5album17ConvertAlbumEntry24ReinterpretArrayToCapsrvEPNS0_14AlbumFileEntryE
 00000000:0000007100050AA0       _ZN2nn5album19ConvertCapsrvResultENS_6ResultE
 00000000:0000007100050BA0       _ZN2nn5album13GetImageWidthENS0_9ImageSizeE
 00000000:0000007100050BD0       _ZN2nn5album14GetImageHeightENS0_9ImageSizeE
 00000000:0000007100050C00       _ZN2nn5album12LibraryStateC2Ev
 00000000:0000007100050C10       _ZNK2nn5album12LibraryState13IsInitializedEv
 00000000:0000007100050C20       _ZNK2nn5album12LibraryState16IsAlbumAvailableEv
 00000000:0000007100050C30       _ZNK2nn5album12LibraryState16IsShareAvailableEv
 00000000:0000007100050C40       _ZN2nn5album12LibraryState10InitializeEv
 00000000:0000007100050C80       _ZN2nn5album12LibraryState8FinalizeEv
 00000000:0000007100050CE0       _ZN2nn5album12LibraryState15GetLibraryMutexEv
 00000000:0000007100050CF0       _ZN2nn5album12LibraryState20EnsureAlbumAvailableEv
 00000000:0000007100050D80       _ZN2nn5album12LibraryState20EnsureShareAvailableEv
 00000000:0000007100050DA0       _ZN2nn5album35GetMovieMakerRequiredWorkMemorySizeEv
 00000000:0000007100050DB0       _ZN2nn5album40GetMovieMakerRequiredWorkMemoryAlignmentEv
 00000000:0000007100050DC0       _ZN2nn5album23IsMovieMakerInitializedEv
 00000000:0000007100050E00       _ZN2nn5album19IsMovieMakerRunningEv
 00000000:0000007100050E50       _ZN2nn2sf13SharedPointerINS_2am7service11IMovieMakerEED2Ev
 00000000:0000007100050E70       _ZN2nn5album20InitializeMovieMakerEPvm
 00000000:0000007100051178       def_710005102C
 00000000:00000071000511F8       def_71000511F4
 00000000:00000071000513E0       _ZN2nn5album28InitializeMovieMakerInternalEONS_2sf13SharedPointerINS_6grcsrv11IMovieMakerEEEm
 00000000:0000007100051440       _ZN2nn5album18FinalizeMovieMakerEv
 00000000:0000007100051510       _ZN2nn5album15AbortMovieMakerEv
 00000000:0000007100051580       _ZN2nn5album25GetMovieMakerNativeWindowEPPv
 00000000:0000007100051610       _ZN2nn5album25PrecheckToStartMovieMakerEm
 00000000:0000007100051680       _ZN2nn5album15StartMovieMakerERKNS0_24MovieMakerMovieParameterE
 00000000:0000007100051764       def_710005173C
 00000000:00000071000517C0       _ZN2nn5album16FinishMovieMakerEv
 00000000:00000071000517F0       _ZN2nn5album16FinishMovieMakerEPNS0_14AlbumFileEntryEPKvmS4_mNS0_9ImageSizeE
 00000000:0000007100051960       def_710005194C
 00000000:0000007100051A00       _ZN2nn5album16FinishMovieMakerEPKvm
 00000000:0000007100051A30       _ZN2nn5album16FinishMovieMakerEPKvmS2_mNS0_9ImageSizeE
 00000000:0000007100051A60       _ZN2nn5album20CheckMovieMakerErrorEv
 00000000:0000007100051AEC       def_7100051AD0
 00000000:0000007100051B40       _ZN2nn5album27EncodeMovieMakerAudioSampleEPKvm
 00000000:0000007100051C34       def_7100051C28
 00000000:0000007100051CA0       _ZN2nn5album35SetMovieMakerErrorConversionEnabledEb
 00000000:0000007100051CB0       _ZN2nn5album24MovieMakerMovieParameter15GetDefaultValueEv
 00000000:0000007100051D00       _ZN2nn5album24MovieMakerMovieParameterC2Ev
 00000000:0000007100051D50       _ZNK2nn5album24MovieMakerMovieParameter15GetVideoBitRateEv
 00000000:0000007100051D60       _ZN2nn5album24MovieMakerMovieParameter15SetVideoBitRateEi
 00000000:0000007100051D70       _ZNK2nn5album24MovieMakerMovieParameter13GetVideoWidthEv
 00000000:0000007100051D80       _ZN2nn5album24MovieMakerMovieParameter13SetVideoWidthEi
 00000000:0000007100051D90       _ZNK2nn5album24MovieMakerMovieParameter14GetVideoHeightEv
 00000000:0000007100051DA0       _ZN2nn5album24MovieMakerMovieParameter14SetVideoHeightEi
 00000000:0000007100051DB0       _ZNK2nn5album24MovieMakerMovieParameter17GetVideoFrameRateEv
 00000000:0000007100051DC0       _ZN2nn5album24MovieMakerMovieParameter17SetVideoFrameRateEi
 00000000:0000007100051DD0       _ZNK2nn5album24MovieMakerMovieParameter24GetVideoKeyFrameIntervalEv
 00000000:0000007100051DE0       _ZN2nn5album24MovieMakerMovieParameter24SetVideoKeyFrameIntervalEi
 00000000:0000007100051DF0       _ZN2nn5album24MovieMakerMovieParameter24SetVideoImageOrientationENS0_16ImageOrientationE
 00000000:0000007100051E00       _ZNK2nn5album24MovieMakerMovieParameter15GetAudioBitRateEv
 00000000:0000007100051E10       _ZN2nn5album24MovieMakerMovieParameter15SetAudioBitRateEi
 00000000:0000007100051E20       _ZNK2nn5album24MovieMakerMovieParameter18GetAudioSampleRateEv
 00000000:0000007100051E30       _ZN2nn5album24MovieMakerMovieParameter18SetAudioSampleRateEi
 00000000:0000007100051E40       _ZNK2nn5album24MovieMakerMovieParameter20GetAudioChannelCountEv
 00000000:0000007100051E50       _ZN2nn5album24MovieMakerMovieParameter20SetAudioChannelCountEi
 00000000:0000007100051E60       _ZNK2nn5album24MovieMakerMovieParameter20GetAudioSampleFormatEv
 00000000:0000007100051E70       _ZN2nn5album24MovieMakerMovieParameter20SetAudioSampleFormatENS_5audio12SampleFormatE
 00000000:0000007100051ED0       _ZN2nn5album14SaveScreenshotEPKvmNS0_9ImageSizeENS0_17AlbumReportOptionE
 00000000:00000071000520D0       _ZN2nn5album14SaveScreenshotEPKvmNS0_9ImageSizeENS0_16ImageOrientationENS0_17AlbumReportOptionE
 00000000:0000007100052310       _ZN2nn5album26SaveScreenshotWithUserDataEPKvmNS0_9ImageSizeENS0_16ImageOrientationENS0_17AlbumReportOptionES2_m
 00000000:0000007100052570       _ZN2nn5album14SaveScreenshotEPKvmNS0_9ImageSizeENS0_16ImageOrientationENS0_17AlbumReportOptionEPKNS_7account3UidEi
 00000000:0000007100052790       _ZN2nn5album22SaveAndShareScreenshotEPKvmNS0_9ImageSizeENS0_17AlbumReportOptionERKNS_7account3UidE
 00000000:0000007100052F10       _ZN2nn5album22SaveAndShareScreenshotEPNS0_7ShareIdEPKvmNS0_9ImageSizeENS0_17AlbumReportOptionERKNS_7account3UidE
 00000000:0000007100052FF0       _ZN2nn5album22SaveAndShareScreenshotEPKvmNS0_9ImageSizeENS0_16ImageOrientationENS0_17AlbumReportOptionERKNS_7account3UidE
 00000000:00000071000530D0       _ZN2nn5album22SaveAndShareScreenshotEPNS0_7ShareIdEPKvmNS0_9ImageSizeENS0_16ImageOrientationENS0_17AlbumReportOptionERKNS_7account3UidE
 00000000:00000071000531C0       _ZN2nn5album22SaveAndShareScreenshotEPKvmNS0_9ImageSizeENS0_17AlbumReportOptionERKNS_7account3UidEPKc
 00000000:00000071000532D0       _ZN2nn5album22SaveAndShareScreenshotEPNS0_7ShareIdEPKvmNS0_9ImageSizeENS0_17AlbumReportOptionERKNS_7account3UidEPKc
 00000000:00000071000533F0       _ZN2nn5album22SaveAndShareScreenshotEPKvmNS0_9ImageSizeENS0_16ImageOrientationENS0_17AlbumReportOptionERKNS_7account3UidEPKc
 00000000:0000007100053500       _ZN2nn5album22SaveAndShareScreenshotEPNS0_7ShareIdEPKvmNS0_9ImageSizeENS0_16ImageOrientationENS0_17AlbumReportOptionERKNS_7account3UidEPKc
 00000000:0000007100053630       _ZN2nn5album34SaveAndShareScreenshotWithUserDataEPKvmNS0_9ImageSizeENS0_16ImageOrientationENS0_17AlbumReportOptionERKNS_7account3UidEPKcS2_m
 00000000:0000007100053760       _ZN2nn5album25GetSharePostedServiceNameEPcmRKNS0_7ShareIdE
 00000000:0000007100053800       _ZN2nn5album21GetSharePostedEntryIdEPcmRKNS0_7ShareIdE
 00000000:00000071000538A0       _ZN2nn5album21GetSharePostedLastUrlEPcmRKNS0_7ShareIdE
 00000000:0000007100053940       _ZN2nn5album23DeleteAlbumFileForDebugERKNS0_14AlbumFileEntryE
 00000000:0000007100053990       _ZN2nn5album14ShowAlbumFilesEv
 00000000:0000007100053A80       _ZN2nn5album17ShowAllAlbumFilesEv
 00000000:0000007100053AC0       _ZN2nn5album28ShowAllAlbumFilesForHomeMenuEv
 00000000:0000007100053B00       _ZN2nn2am23GetApplicationFunctionsEv
 00000000:0000007100053B50       _ZN2nn2am24GetAppletCommonFunctionsEv
 00000000:0000007100053BA0       _ZN2nn2am20GetSystemAppletProxyEv
 00000000:0000007100053BF0       _ZN2nn2am20GetHomeMenuFunctionsEv
 00000000:0000007100053C40       _ZN2nn2am24GetGlobalStateControllerEv
 00000000:0000007100053C90       _ZN2nn2am21GetApplicationCreatorEv
 00000000:0000007100053CE0       _ZN2nn2am21GetLibraryAppletProxyEv
 00000000:0000007100053D30       _ZN2nn2am28GetLibraryAppletSelfAccessorEv
 00000000:0000007100053D80       _ZN2nn2am21GetOverlayAppletProxyEv
 00000000:0000007100053DD0       _ZN2nn2am19GetOverlayFunctionsEv
 00000000:0000007100053E20       _ZN2nn2am19GetApplicationProxyEv
 00000000:0000007100053E70       _ZN2nn2am23GetLibraryAppletCreatorEv
 00000000:0000007100053EC0       _ZN2nn2am27GetProcessWindingControllerEv
 00000000:0000007100053F10       _ZN2nn2am20GetCommonStateGetterEv
 00000000:0000007100053F60       _ZN2nn2am17GetSelfControllerEv
 00000000:0000007100053FB0       _ZN2nn2am18GetAudioControllerEv
 00000000:0000007100054000       _ZN2nn2am20GetDisplayControllerEv
 00000000:0000007100054050       _ZN2nn2am19GetWindowControllerEv
 00000000:00000071000540A0       _ZN2nn2am17GetDebugFunctionsEv
 00000000:00000071000540F0       _ZN2nn2am26IsInitializedAsApplicationEv
 00000000:0000007100054150       _ZN2nn2am27IsInitializedAsSystemAppletEv
 00000000:00000071000541B0       _ZN2nn2am28IsInitializedAsLibraryAppletEv
 00000000:0000007100054210       _ZN2nn2am28IsInitializedAsOverlayAppletEv
 00000000:0000007100054270       _ZN2nn2am26InitializeCommonInterfacesEPNS0_7service21IStackableAppletProxyE
 00000000:0000007100054810       _ZN2nn2am24FinalizeCommonInterfacesEv
 00000000:0000007100054A70       _ZN2nn2am32InitializeSystemAppletInterfacesEv
 00000000:00000071000552C0       _ZN2nn2am30FinalizeSystemAppletInterfacesEv
 00000000:00000071000554D0       _ZN2nn2am24SetLibraryAppletResolverEPFvvE
 00000000:00000071000554E0       _ZN2nn2am35InvokeWithSelfLibraryCreatorEnabledEPFvvE
 00000000:0000007100055660       _ZN2nn2am33InitializeLibraryAppletInterfacesEPKNS0_15AppletAttributeE
 00000000:0000007100055EB0       _ZN2nn2am31FinalizeLibraryAppletInterfacesEv
 00000000:0000007100056080       _ZN2nn2am33InitializeOverlayAppletInterfacesEv
 00000000:0000007100056780       _ZN2nn2am31FinalizeOverlayAppletInterfacesEv
 00000000:0000007100056900       _ZN2nn2am31InitializeApplicationInterfacesEv
 00000000:0000007100056C10       _ZN2nn2am29FinalizeApplicationInterfacesEv
 00000000:0000007100056CF0       _ZN2nn2am37InitializeSystemApplicationInterfacesEv
 00000000:0000007100057330       _ZN2nn2am35FinalizeSystemApplicationInterfacesEv
 00000000:0000007100057410       _ZN2nn2am23GetAppletResourceUserIdEv
 00000000:0000007100057420       _ZN2nn2am36CreateSystemAppletControllerForDebugEv
 00000000:0000007100057630       _ZN2nn2am28CreateDebugFunctionsForDebugEv
 00000000:0000007100057890       _ZN2nn2sf13SharedPointerINS_2am7service30IAllSystemAppletProxiesServiceEED2Ev
 00000000:00000071000578C0       _ZZN2nn2sf40SimpleAllInOneHipcSubDomainClientManagerILm100EE27InitializeShimLibraryHolderINS_2am7service30IAllSystemAppletProxiesServiceENS0_4cmif6client6detail19ProcessModifierImplINS8_21DefaultProxyFilterTagEEEEENS_6ResultEPNS0_23ShimLibraryObjectHolderIT_EEPKcPNS_14MemoryResourceEENUlPNS0_13SharedPointerIS6_EEE_clESO_
 00000000:0000007100057C10       _ZN2nn2sf4hipc6client34HipcSimpleClientSessionManagerBaseINS2_29DefaultSessionResourceManagerEE4Impl18InitializeByHandleINS_2am7service30IAllSystemAppletProxiesServiceENS0_30MemoryResourceAllocationPolicyENS0_4cmif6client6detail19ProcessModifierImplINSD_21DefaultProxyFilterTagEEEEENS_6ResultEPNS0_13SharedPointerIT_EEPNT0_9AllocatorENS_3svc6HandleE
 00000000:0000007100057D20       _ZN2nn2sf6detail38ObjectImplFactoryWithStatefulAllocatorINS0_4cmif6client6detail9CmifProxyINS_2am7service30IAllSystemAppletProxiesServiceENS4_19CmifDomainProxyKindINS0_4hipc6client38Hipc2ClientSessionManagedProxyKindBaseINSC_18Hipc2ProxyKindBaseILNSB_6detail11MessageTypeE6EEEEEEENS0_30MemoryResourceAllocationPolicyENS5_19ProcessModifierImplINS4_21DefaultProxyFilterTagEEEvEESK_E6Object12AddReferenceEv
 00000000:0000007100057D30       _ZN2nn2sf6detail38ObjectImplFactoryWithStatefulAllocatorINS0_4cmif6client6detail9CmifProxyINS_2am7service30IAllSystemAppletProxiesServiceENS4_19CmifDomainProxyKindINS0_4hipc6client38Hipc2ClientSessionManagedProxyKindBaseINSC_18Hipc2ProxyKindBaseILNSB_6detail11MessageTypeE6EEEEEEENS0_30MemoryResourceAllocationPolicyENS5_19ProcessModifierImplINS4_21DefaultProxyFilterTagEEEvEESK_E6Object7ReleaseEv
 00000000:0000007100057D90       _ZN2nn2sf4cmif6client6detail13CmifProxyImplINS_2am7service30IAllSystemAppletProxiesServiceENS2_19CmifDomainProxyKindINS0_4hipc6client38Hipc2ClientSessionManagedProxyKindBaseINSA_18Hipc2ProxyKindBaseILNS9_6detail11MessageTypeE6EEEEEEENS0_30MemoryResourceAllocationPolicyES7_NS3_19ProcessModifierImplINS2_21DefaultProxyFilterTagEEEE12GetProxyInfoEv
 00000000:0000007100057DA0       _ZN2nn2sf4cmif6client6detail13CmifProxyImplINS_2am7service30IAllSystemAppletProxiesServiceENS2_19CmifDomainProxyKindINS0_4hipc6client38Hipc2ClientSessionManagedProxyKindBaseINSA_18Hipc2ProxyKindBaseILNS9_6detail11MessageTypeE6EEEEEEENS0_30MemoryResourceAllocationPolicyES7_NS3_19ProcessModifierImplINS2_21DefaultProxyFilterTagEEEE33_nn_sf_sync_OpenSystemAppletProxyENS0_3OutINS0_13SharedPointerINS6_18ISystemAppletProxyEEEvEEmONS0_12NativeHandleE
 00000000:0000007100057E50       _ZN2nn2sf4cmif6client6detail13CmifProxyImplINS_2am7service30IAllSystemAppletProxiesServiceENS2_19CmifDomainProxyKindINS0_4hipc6client38Hipc2ClientSessionManagedProxyKindBaseINSA_18Hipc2ProxyKindBaseILNS9_6detail11MessageTypeE6EEEEEEENS0_30MemoryResourceAllocationPolicyES7_NS3_19ProcessModifierImplINS2_21DefaultProxyFilterTagEEEE37_nn_sf_sync_OpenLibraryAppletProxyOldENS0_3OutINS0_13SharedPointerINS6_19ILibraryAppletProxyEEEvEEmONS0_12NativeHandleE
 00000000:0000007100057F00       _ZN2nn2sf4cmif6client6detail13CmifProxyImplINS_2am7service30IAllSystemAppletProxiesServiceENS2_19CmifDomainProxyKindINS0_4hipc6client38Hipc2ClientSessionManagedProxyKindBaseINSA_18Hipc2ProxyKindBaseILNS9_6detail11MessageTypeE6EEEEEEENS0_30MemoryResourceAllocationPolicyES7_NS3_19ProcessModifierImplINS2_21DefaultProxyFilterTagEEEE34_nn_sf_sync_OpenLibraryAppletProxyENS0_3OutINS0_13SharedPointerINS6_19ILibraryAppletProxyEEEvEEmONS0_12NativeHandleERKNS5_15AppletAttributeE
 00000000:0000007100057FC0       _ZN2nn2sf4cmif6client6detail13CmifProxyImplINS_2am7service30IAllSystemAppletProxiesServiceENS2_19CmifDomainProxyKindINS0_4hipc6client38Hipc2ClientSessionManagedProxyKindBaseINSA_18Hipc2ProxyKindBaseILNS9_6detail11MessageTypeE6EEEEEEENS0_30MemoryResourceAllocationPolicyES7_NS3_19ProcessModifierImplINS2_21DefaultProxyFilterTagEEEE34_nn_sf_sync_OpenOverlayAppletProxyENS0_3OutINS0_13SharedPointerINS6_19IOverlayAppletProxyEEEvEEmONS0_12NativeHandleE
 00000000:0000007100058070       _ZN2nn2sf4cmif6client6detail13CmifProxyImplINS_2am7service30IAllSystemAppletProxiesServiceENS2_19CmifDomainProxyKindINS0_4hipc6client38Hipc2ClientSessionManagedProxyKindBaseINSA_18Hipc2ProxyKindBaseILNS9_6detail11MessageTypeE6EEEEEEENS0_30MemoryResourceAllocationPolicyES7_NS3_19ProcessModifierImplINS2_21DefaultProxyFilterTagEEEE38_nn_sf_sync_OpenSystemApplicationProxyENS0_3OutINS0_13SharedPointerINS6_17IApplicationProxyEEEvEEmONS0_12NativeHandleE
 00000000:0000007100058120       _ZN2nn2sf4cmif6client6detail13CmifProxyImplINS_2am7service30IAllSystemAppletProxiesServiceENS2_19CmifDomainProxyKindINS0_4hipc6client38Hipc2ClientSessionManagedProxyKindBaseINSA_18Hipc2ProxyKindBaseILNS9_6detail11MessageTypeE6EEEEEEENS0_30MemoryResourceAllocationPolicyES7_NS3_19ProcessModifierImplINS2_21DefaultProxyFilterTagEEEE52_nn_sf_sync_CreateSelfLibraryAppletCreatorForDevelopENS0_3OutINS0_13SharedPointerINS6_21ILibraryAppletCreatorEEEvEEm
 00000000:00000071000581D0       _ZN2nn2sf4cmif6client6detail13CmifProxyImplINS_2am7service30IAllSystemAppletProxiesServiceENS2_19CmifDomainProxyKindINS0_4hipc6client38Hipc2ClientSessionManagedProxyKindBaseINSA_18Hipc2ProxyKindBaseILNS9_6detail11MessageTypeE6EEEEEEENS0_30MemoryResourceAllocationPolicyES7_NS3_19ProcessModifierImplINS2_21DefaultProxyFilterTagEEEE45_nn_sf_sync_GetSystemAppletControllerForDebugENS0_3OutINS0_13SharedPointerINS6_31ISystemAppletControllerForDebugEEEvEE
 00000000:0000007100058270       _ZN2nn2sf4cmif6client6detail13CmifProxyImplINS_2am7service30IAllSystemAppletProxiesServiceENS2_19CmifDomainProxyKindINS0_4hipc6client38Hipc2ClientSessionManagedProxyKindBaseINSA_18Hipc2ProxyKindBaseILNS9_6detail11MessageTypeE6EEEEEEENS0_30MemoryResourceAllocationPolicyES7_NS3_19ProcessModifierImplINS2_21DefaultProxyFilterTagEEEE29_nn_sf_sync_GetDebugFunctionsENS0_3OutINS0_13SharedPointerINS6_15IDebugFunctionsEEEvEE
 00000000:0000007100058310       _ZN2nn2sf4cmif6client6detail13CmifProxyImplINS_2am7service30IAllSystemAppletProxiesServiceENS2_19CmifDomainProxyKindINS0_4hipc6client38Hipc2ClientSessionManagedProxyKindBaseINSA_18Hipc2ProxyKindBaseILNS9_6detail11MessageTypeE6EEEEEEENS0_30MemoryResourceAllocationPolicyES7_NS3_19ProcessModifierImplINS2_21DefaultProxyFilterTagEEEE17GetCmifBaseObjectEv
 00000000:0000007100058320       _ZThn32_N2nn2sf4cmif6client6detail13CmifProxyImplINS_2am7service30IAllSystemAppletProxiesServiceENS2_19CmifDomainProxyKindINS0_4hipc6client38Hipc2ClientSessionManagedProxyKindBaseINSA_18Hipc2ProxyKindBaseILNS9_6detail11MessageTypeE6EEEEEEENS0_30MemoryResourceAllocationPolicyES7_NS3_19ProcessModifierImplINS2_21DefaultProxyFilterTagEEEE17GetCmifBaseObjectEv
 00000000:0000007100058330       _ZN2nn2sf4cmif6client34CmifDomainProxyClientCoreProcessorINS0_4hipc6client38Hipc2ClientSessionManagedProxyKindBaseINS5_18Hipc2ProxyKindBaseILNS4_6detail11MessageTypeE6EEEEENS1_6detail14CoreMethodInfoINSt3__15tupleIJNSC_21OutObjectArgumentInfoILi0ELi0EEENSC_17InRawArgumentInfoILm8ELm8ELl0EEENSC_20InHandleArgumentInfoILi0ELi1EEEEEELm8ELm0ELb1EEESM_E21ProcessWithOutObjectsEPNS2_23CmifDomainClientMessageISB_E15ProxyBaseObjectENS2_27OutObjectClientArgumentTypeENS2_23InRawClientArgumentTypeILm8ELm8EvEENS2_26InHandleClientArgumentTypeEjPNS0_13SharedPointerINS0_14IServiceObjectEEE
 00000000:0000007100058540       _ZN2nn2sf4cmif6client6detail36GetClientProcessorImplWithObjectBaseINS2_19CmifDomainProxyKindINS0_4hipc6client38Hipc2ClientSessionManagedProxyKindBaseINS7_18Hipc2ProxyKindBaseILNS6_6detail11MessageTypeE6EEEEEEENS3_19ProcessModifierImplINS2_21DefaultProxyFilterTagEEEE14ObjectAssignerINS0_30MemoryResourceAllocationPolicyENS_14MemoryResourceEE14AllocateObjectINS_2am7service18ISystemAppletProxyEEEvi
 00000000:00000071000585F0       _ZN2nn2sf6detail38ObjectImplFactoryWithStatefulAllocatorINS0_4cmif6client6detail9CmifProxyINS_2am7service18ISystemAppletProxyENS4_19CmifDomainProxyKindINS0_4hipc6client38Hipc2ClientSessionManagedProxyKindBaseINSC_18Hipc2ProxyKindBaseILNSB_6detail11MessageTypeE6EEEEEEENS0_30MemoryResourceAllocationPolicyENS5_19ProcessModifierImplINS4_21DefaultProxyFilterTagEEEvEESK_E6Object12AddReferenceEv
 00000000:0000007100058600       _ZN2nn2sf6detail38ObjectImplFactoryWithStatefulAllocatorINS0_4cmif6client6detail9CmifProxyINS_2am7service18ISystemAppletProxyENS4_19CmifDomainProxyKindINS0_4hipc6client38Hipc2ClientSessionManagedProxyKindBaseINSC_18Hipc2ProxyKindBaseILNSB_6detail11MessageTypeE6EEEEEEENS0_30MemoryResourceAllocationPolicyENS5_19ProcessModifierImplINS4_21DefaultProxyFilterTagEEEvEESK_E6Object7ReleaseEv
 00000000:0000007100058660       _ZN2nn2sf4cmif6client6detail13CmifProxyImplINS_2am7service18IAppletProxyCommonENS2_19CmifDomainProxyKindINS0_4hipc6client38Hipc2ClientSessionManagedProxyKindBaseINSA_18Hipc2ProxyKindBaseILNS9_6detail11MessageTypeE6EEEEEEENS0_30MemoryResourceAllocationPolicyENS6_18ISystemAppletProxyENS3_19ProcessModifierImplINS2_21DefaultProxyFilterTagEEEE12GetProxyInfoEv
 00000000:0000007100058670       _ZN2nn2sf4cmif6client6detail13CmifProxyImplINS_2am7service18IAppletProxyCommonENS2_19CmifDomainProxyKindINS0_4hipc6client38Hipc2ClientSessionManagedProxyKindBaseINSA_18Hipc2ProxyKindBaseILNS9_6detail11MessageTypeE6EEEEEEENS0_30MemoryResourceAllocationPolicyENS6_18ISystemAppletProxyENS3_19ProcessModifierImplINS2_21DefaultProxyFilterTagEEEE32_nn_sf_sync_GetCommonStateGetterENS0_3OutINS0_13SharedPointerINS6_18ICommonStateGetterEEEvEE
 00000000:0000007100058710       _ZN2nn2sf4cmif6client6detail13CmifProxyImplINS_2am7service18IAppletProxyCommonENS2_19CmifDomainProxyKindINS0_4hipc6client38Hipc2ClientSessionManagedProxyKindBaseINSA_18Hipc2ProxyKindBaseILNS9_6detail11MessageTypeE6EEEEEEENS0_30MemoryResourceAllocationPolicyENS6_18ISystemAppletProxyENS3_19ProcessModifierImplINS2_21DefaultProxyFilterTagEEEE29_nn_sf_sync_GetSelfControllerENS0_3OutINS0_13SharedPointerINS6_15ISelfControllerEEEvEE
 00000000:00000071000587B0       _ZN2nn2sf4cmif6client6detail13CmifProxyImplINS_2am7service18IAppletProxyCommonENS2_19CmifDomainProxyKindINS0_4hipc6client38Hipc2ClientSessionManagedProxyKindBaseINSA_18Hipc2ProxyKindBaseILNS9_6detail11MessageTypeE6EEEEEEENS0_30MemoryResourceAllocationPolicyENS6_18ISystemAppletProxyENS3_19ProcessModifierImplINS2_21DefaultProxyFilterTagEEEE31_nn_sf_sync_GetWindowControllerENS0_3OutINS0_13SharedPointerINS6_17IWindowControllerEEEvEE
 00000000:0000007100058850       _ZN2nn2sf4cmif6client6detail13CmifProxyImplINS_2am7service18IAppletProxyCommonENS2_19CmifDomainProxyKindINS0_4hipc6client38Hipc2ClientSessionManagedProxyKindBaseINSA_18Hipc2ProxyKindBaseILNS9_6detail11MessageTypeE6EEEEEEENS0_30MemoryResourceAllocationPolicyENS6_18ISystemAppletProxyENS3_19ProcessModifierImplINS2_21DefaultProxyFilterTagEEEE30_nn_sf_sync_GetAudioControllerENS0_3OutINS0_13SharedPointerINS6_16IAudioControllerEEEvEE
 00000000:00000071000588F0       _ZN2nn2sf4cmif6client6detail13CmifProxyImplINS_2am7service18IAppletProxyCommonENS2_19CmifDomainProxyKindINS0_4hipc6client38Hipc2ClientSessionManagedProxyKindBaseINSA_18Hipc2ProxyKindBaseILNS9_6detail11MessageTypeE6EEEEEEENS0_30MemoryResourceAllocationPolicyENS6_18ISystemAppletProxyENS3_19ProcessModifierImplINS2_21DefaultProxyFilterTagEEEE32_nn_sf_sync_GetDisplayControllerENS0_3OutINS0_13SharedPointerINS6_18IDisplayControllerEEEvEE
 00000000:0000007100058990       _ZN2nn2sf4cmif6client6detail13CmifProxyImplINS_2am7service18IAppletProxyCommonENS2_19CmifDomainProxyKindINS0_4hipc6client38Hipc2ClientSessionManagedProxyKindBaseINSA_18Hipc2ProxyKindBaseILNS9_6detail11MessageTypeE6EEEEEEENS0_30MemoryResourceAllocationPolicyENS6_18ISystemAppletProxyENS3_19ProcessModifierImplINS2_21DefaultProxyFilterTagEEEE29_nn_sf_sync_GetDebugFunctionsENS0_3OutINS0_13SharedPointerINS6_15IDebugFunctionsEEEvEE
 00000000:0000007100058A30       _ZN2nn2sf4cmif6client6detail13CmifProxyImplINS_2am7service21IStackableAppletProxyENS2_19CmifDomainProxyKindINS0_4hipc6client38Hipc2ClientSessionManagedProxyKindBaseINSA_18Hipc2ProxyKindBaseILNS9_6detail11MessageTypeE6EEEEEEENS0_30MemoryResourceAllocationPolicyENS6_18ISystemAppletProxyENS3_19ProcessModifierImplINS2_21DefaultProxyFilterTagEEEE39_nn_sf_sync_GetProcessWindingControllerENS0_3OutINS0_13SharedPointerINS6_25IProcessWindingControllerEEEvEE
 00000000:0000007100058AD0       _ZN2nn2sf4cmif6client6detail13CmifProxyImplINS_2am7service21IStackableAppletProxyENS2_19CmifDomainProxyKindINS0_4hipc6client38Hipc2ClientSessionManagedProxyKindBaseINSA_18Hipc2ProxyKindBaseILNS9_6detail11MessageTypeE6EEEEEEENS0_30MemoryResourceAllocationPolicyENS6_18ISystemAppletProxyENS3_19ProcessModifierImplINS2_21DefaultProxyFilterTagEEEE35_nn_sf_sync_GetLibraryAppletCreatorENS0_3OutINS0_13SharedPointerINS6_21ILibraryAppletCreatorEEEvEE
 00000000:0000007100058B70       _ZN2nn2sf4cmif6client6detail13CmifProxyImplINS_2am7service18ISystemAppletProxyENS2_19CmifDomainProxyKindINS0_4hipc6client38Hipc2ClientSessionManagedProxyKindBaseINSA_18Hipc2ProxyKindBaseILNS9_6detail11MessageTypeE6EEEEEEENS0_30MemoryResourceAllocationPolicyES7_NS3_19ProcessModifierImplINS2_21DefaultProxyFilterTagEEEE32_nn_sf_sync_GetHomeMenuFunctionsENS0_3OutINS0_13SharedPointerINS6_18IHomeMenuFunctionsEEEvEE
 00000000:0000007100058C10       _ZN2nn2sf4cmif6client6detail13CmifProxyImplINS_2am7service18ISystemAppletProxyENS2_19CmifDomainProxyKindINS0_4hipc6client38Hipc2ClientSessionManagedProxyKindBaseINSA_18Hipc2ProxyKindBaseILNS9_6detail11MessageTypeE6EEEEEEENS0_30MemoryResourceAllocationPolicyES7_NS3_19ProcessModifierImplINS2_21DefaultProxyFilterTagEEEE36_nn_sf_sync_GetGlobalStateControllerENS0_3OutINS0_13SharedPointerINS6_22IGlobalStateControllerEEEvEE
 00000000:0000007100058CB0       _ZN2nn2sf4cmif6client6detail13CmifProxyImplINS_2am7service18ISystemAppletProxyENS2_19CmifDomainProxyKindINS0_4hipc6client38Hipc2ClientSessionManagedProxyKindBaseINSA_18Hipc2ProxyKindBaseILNS9_6detail11MessageTypeE6EEEEEEENS0_30MemoryResourceAllocationPolicyES7_NS3_19ProcessModifierImplINS2_21DefaultProxyFilterTagEEEE33_nn_sf_sync_GetApplicationCreatorENS0_3OutINS0_13SharedPointerINS6_19IApplicationCreatorEEEvEE
 00000000:0000007100058D50       _ZN2nn2sf4cmif6client6detail13CmifProxyImplINS_2am7service18ISystemAppletProxyENS2_19CmifDomainProxyKindINS0_4hipc6client38Hipc2ClientSessionManagedProxyKindBaseINSA_18Hipc2ProxyKindBaseILNS9_6detail11MessageTypeE6EEEEEEENS0_30MemoryResourceAllocationPolicyES7_NS3_19ProcessModifierImplINS2_21DefaultProxyFilterTagEEEE36_nn_sf_sync_GetAppletCommonFunctionsENS0_3OutINS0_13SharedPointerINS6_22IAppletCommonFunctionsEEEvEE
 00000000:0000007100058DF0       _ZN2nn2sf4cmif6client6detail13CmifProxyImplINS_2am7service18IAppletProxyCommonENS2_19CmifDomainProxyKindINS0_4hipc6client38Hipc2ClientSessionManagedProxyKindBaseINSA_18Hipc2ProxyKindBaseILNS9_6detail11MessageTypeE6EEEEEEENS0_30MemoryResourceAllocationPolicyENS6_18ISystemAppletProxyENS3_19ProcessModifierImplINS2_21DefaultProxyFilterTagEEEE17GetCmifBaseObjectEv
 00000000:0000007100058E00       _ZThn32_N2nn2sf4cmif6client6detail13CmifProxyImplINS_2am7service18IAppletProxyCommonENS2_19CmifDomainProxyKindINS0_4hipc6client38Hipc2ClientSessionManagedProxyKindBaseINSA_18Hipc2ProxyKindBaseILNS9_6detail11MessageTypeE6EEEEEEENS0_30MemoryResourceAllocationPolicyENS6_18ISystemAppletProxyENS3_19ProcessModifierImplINS2_21DefaultProxyFilterTagEEEE17GetCmifBaseObjectEv
 00000000:0000007100058E10       _ZN2nn2sf4cmif6client6detail36GetClientProcessorImplWithObjectBaseINS2_19CmifDomainProxyKindINS0_4hipc6client38Hipc2ClientSessionManagedProxyKindBaseINS7_18Hipc2ProxyKindBaseILNS6_6detail11MessageTypeE6EEEEEEENS3_19ProcessModifierImplINS2_21DefaultProxyFilterTagEEEE14ObjectAssignerINS0_30MemoryResourceAllocationPolicyENS_14MemoryResourceEE14AllocateObjectINS_2am7service18ICommonStateGetterEEEvi
 00000000:0000007100058EC0       _ZN2nn2sf6detail38ObjectImplFactoryWithStatefulAllocatorINS0_4cmif6client6detail9CmifProxyINS_2am7service18ICommonStateGetterENS4_19CmifDomainProxyKindINS0_4hipc6client38Hipc2ClientSessionManagedProxyKindBaseINSC_18Hipc2ProxyKindBaseILNSB_6detail11MessageTypeE6EEEEEEENS0_30MemoryResourceAllocationPolicyENS5_19ProcessModifierImplINS4_21DefaultProxyFilterTagEEEvEESK_E6Object12AddReferenceEv
 00000000:0000007100058ED0       _ZN2nn2sf6detail38ObjectImplFactoryWithStatefulAllocatorINS0_4cmif6client6detail9CmifProxyINS_2am7service18ICommonStateGetterENS4_19CmifDomainProxyKindINS0_4hipc6client38Hipc2ClientSessionManagedProxyKindBaseINSC_18Hipc2ProxyKindBaseILNSB_6detail11MessageTypeE6EEEEEEENS0_30MemoryResourceAllocationPolicyENS5_19ProcessModifierImplINS4_21DefaultProxyFilterTagEEEvEESK_E6Object7ReleaseEv
 00000000:0000007100058F30       _ZN2nn2sf4cmif6client6detail13CmifProxyImplINS_2am7service18ICommonStateGetterENS2_19CmifDomainProxyKindINS0_4hipc6client38Hipc2ClientSessionManagedProxyKindBaseINSA_18Hipc2ProxyKindBaseILNS9_6detail11MessageTypeE6EEEEEEENS0_30MemoryResourceAllocationPolicyES7_NS3_19ProcessModifierImplINS2_21DefaultProxyFilterTagEEEE12GetProxyInfoEv
 00000000:0000007100058F40       _ZN2nn2sf4cmif6client6detail13CmifProxyImplINS_2am7service18ICommonStateGetterENS2_19CmifDomainProxyKindINS0_4hipc6client38Hipc2ClientSessionManagedProxyKindBaseINSA_18Hipc2ProxyKindBaseILNS9_6detail11MessageTypeE6EEEEEEENS0_30MemoryResourceAllocationPolicyES7_NS3_19ProcessModifierImplINS2_21DefaultProxyFilterTagEEEE26_nn_sf_sync_GetEventHandleENS0_3OutINS0_12NativeHandleEvEE
 00000000:0000007100058F60       _ZN2nn2sf4cmif6client6detail13CmifProxyImplINS_2am7service18ICommonStateGetterENS2_19CmifDomainProxyKindINS0_4hipc6client38Hipc2ClientSessionManagedProxyKindBaseINSA_18Hipc2ProxyKindBaseILNS9_6detail11MessageTypeE6EEEEEEENS0_30MemoryResourceAllocationPolicyES7_NS3_19ProcessModifierImplINS2_21DefaultProxyFilterTagEEEE26_nn_sf_sync_ReceiveMessageENS0_3OutINS5_13AppletMessageEvEE
 00000000:0000007100058F80       _ZN2nn2sf4cmif6client6detail13CmifProxyImplINS_2am7service18ICommonStateGetterENS2_19CmifDomainProxyKindINS0_4hipc6client38Hipc2ClientSessionManagedProxyKindBaseINSA_18Hipc2ProxyKindBaseILNS9_6detail11MessageTypeE6EEEEEEENS0_30MemoryResourceAllocationPolicyES7_NS3_19ProcessModifierImplINS2_21DefaultProxyFilterTagEEEE29_nn_sf_sync_GetThisAppletKindENS0_3OutINS6_10AppletKindEvEE
 00000000:0000007100058FA0       _ZN2nn2sf4cmif6client6detail13CmifProxyImplINS_2am7service18ICommonStateGetterENS2_19CmifDomainProxyKindINS0_4hipc6client38Hipc2ClientSessionManagedProxyKindBaseINSA_18Hipc2ProxyKindBaseILNS9_6detail11MessageTypeE6EEEEEEENS0_30MemoryResourceAllocationPolicyES7_NS3_19ProcessModifierImplINS2_21DefaultProxyFilterTagEEEE29_nn_sf_sync_AllowToEnterSleepEv
 00000000:0000007100058FC0       _ZN2nn2sf4cmif6client6detail13CmifProxyImplINS_2am7service18ICommonStateGetterENS2_19CmifDomainProxyKindINS0_4hipc6client38Hipc2ClientSessionManagedProxyKindBaseINSA_18Hipc2ProxyKindBaseILNS9_6detail11MessageTypeE6EEEEEEENS0_30MemoryResourceAllocationPolicyES7_NS3_19ProcessModifierImplINS2_21DefaultProxyFilterTagEEEE32_nn_sf_sync_DisallowToEnterSleepEv
 00000000:0000007100058FE0       _ZN2nn2sf4cmif6client6detail13CmifProxyImplINS_2am7service18ICommonStateGetterENS2_19CmifDomainProxyKindINS0_4hipc6client38Hipc2ClientSessionManagedProxyKindBaseINSA_18Hipc2ProxyKindBaseILNS9_6detail11MessageTypeE6EEEEEEENS0_30MemoryResourceAllocationPolicyES7_NS3_19ProcessModifierImplINS2_21DefaultProxyFilterTagEEEE28_nn_sf_sync_GetOperationModeENS0_3OutIhvEE
 00000000:0000007100059000       _ZN2nn2sf4cmif6client6detail13CmifProxyImplINS_2am7service18ICommonStateGetterENS2_19CmifDomainProxyKindINS0_4hipc6client38Hipc2ClientSessionManagedProxyKindBaseINSA_18Hipc2ProxyKindBaseILNS9_6detail11MessageTypeE6EEEEEEENS0_30MemoryResourceAllocationPolicyES7_NS3_19ProcessModifierImplINS2_21DefaultProxyFilterTagEEEE30_nn_sf_sync_GetPerformanceModeENS0_3OutIjvEE
 00000000:0000007100059020       _ZN2nn2sf4cmif6client6detail13CmifProxyImplINS_2am7service18ICommonStateGetterENS2_19CmifDomainProxyKindINS0_4hipc6client38Hipc2ClientSessionManagedProxyKindBaseINSA_18Hipc2ProxyKindBaseILNS9_6detail11MessageTypeE6EEEEEEENS0_30MemoryResourceAllocationPolicyES7_NS3_19ProcessModifierImplINS2_21DefaultProxyFilterTagEEEE27_nn_sf_sync_GetCradleStatusENS0_3OutIhvEE
 00000000:0000007100059040       _ZN2nn2sf4cmif6client6detail13CmifProxyImplINS_2am7service18ICommonStateGetterENS2_19CmifDomainProxyKindINS0_4hipc6client38Hipc2ClientSessionManagedProxyKindBaseINSA_18Hipc2ProxyKindBaseILNS9_6detail11MessageTypeE6EEEEEEENS0_30MemoryResourceAllocationPolicyES7_NS3_19ProcessModifierImplINS2_21DefaultProxyFilterTagEEEE23_nn_sf_sync_GetBootModeENS0_3OutIhvEE
 00000000:0000007100059060       _ZN2nn2sf4cmif6client6detail13CmifProxyImplINS_2am7service18ICommonStateGetterENS2_19CmifDomainProxyKindINS0_4hipc6client38Hipc2ClientSessionManagedProxyKindBaseINSA_18Hipc2ProxyKindBaseILNS9_6detail11MessageTypeE6EEEEEEENS0_30MemoryResourceAllocationPolicyES7_NS3_19ProcessModifierImplINS2_21DefaultProxyFilterTagEEEE32_nn_sf_sync_GetCurrentFocusStateENS0_3OutIhvEE
 00000000:0000007100059080       _ZN2nn2sf4cmif6client6detail13CmifProxyImplINS_2am7service18ICommonStateGetterENS2_19CmifDomainProxyKindINS0_4hipc6client38Hipc2ClientSessionManagedProxyKindBaseINSA_18Hipc2ProxyKindBaseILNS9_6detail11MessageTypeE6EEEEEEENS0_30MemoryResourceAllocationPolicyES7_NS3_19ProcessModifierImplINS2_21DefaultProxyFilterTagEEEE37_nn_sf_sync_RequestToAcquireSleepLockEv
 00000000:00000071000590A0       _ZN2nn2sf4cmif6client6detail13CmifProxyImplINS_2am7service18ICommonStateGetterENS2_19CmifDomainProxyKindINS0_4hipc6client38Hipc2ClientSessionManagedProxyKindBaseINSA_18Hipc2ProxyKindBaseILNS9_6detail11MessageTypeE6EEEEEEENS0_30MemoryResourceAllocationPolicyES7_NS3_19ProcessModifierImplINS2_21DefaultProxyFilterTagEEEE28_nn_sf_sync_ReleaseSleepLockEv
 00000000:00000071000590C0       _ZN2nn2sf4cmif6client6detail13CmifProxyImplINS_2am7service18ICommonStateGetterENS2_19CmifDomainProxyKindINS0_4hipc6client38Hipc2ClientSessionManagedProxyKindBaseINSA_18Hipc2ProxyKindBaseILNS9_6detail11MessageTypeE6EEEEEEENS0_30MemoryResourceAllocationPolicyES7_NS3_19ProcessModifierImplINS2_21DefaultProxyFilterTagEEEE39_nn_sf_sync_ReleaseSleepLockTransientlyEv
 00000000:00000071000590E0       _ZN2nn2sf4cmif6client6detail13CmifProxyImplINS_2am7service18ICommonStateGetterENS2_19CmifDomainProxyKindINS0_4hipc6client38Hipc2ClientSessionManagedProxyKindBaseINSA_18Hipc2ProxyKindBaseILNS9_6detail11MessageTypeE6EEEEEEENS0_30MemoryResourceAllocationPolicyES7_NS3_19ProcessModifierImplINS2_21DefaultProxyFilterTagEEEE37_nn_sf_sync_GetAcquiredSleepLockEventENS0_3OutINS0_12NativeHandleEvEE
 00000000:0000007100059100       _ZN2nn2sf4cmif6client6detail13CmifProxyImplINS_2am7service18ICommonStateGetterENS2_19CmifDomainProxyKindINS0_4hipc6client38Hipc2ClientSessionManagedProxyKindBaseINSA_18Hipc2ProxyKindBaseILNS9_6detail11MessageTypeE6EEEEEEENS0_30MemoryResourceAllocationPolicyES7_NS3_19ProcessModifierImplINS2_21DefaultProxyFilterTagEEEE32_nn_sf_sync_PushToGeneralChannelENS0_13SharedPointerINS6_8IStorageEEE
 00000000:0000007100059150       _ZN2nn2sf4cmif6client6detail13CmifProxyImplINS_2am7service18ICommonStateGetterENS2_19CmifDomainProxyKindINS0_4hipc6client38Hipc2ClientSessionManagedProxyKindBaseINSA_18Hipc2ProxyKindBaseILNS9_6detail11MessageTypeE6EEEEEEENS0_30MemoryResourceAllocationPolicyES7_NS3_19ProcessModifierImplINS2_21DefaultProxyFilterTagEEEE43_nn_sf_sync_GetHomeButtonReaderLockAccessorENS0_3OutINS0_13SharedPointerINS6_13ILockAccessorEEEvEE
 00000000:00000071000591F0       _ZN2nn2sf4cmif6client6detail13CmifProxyImplINS_2am7service18ICommonStateGetterENS2_19CmifDomainProxyKindINS0_4hipc6client38Hipc2ClientSessionManagedProxyKindBaseINSA_18Hipc2ProxyKindBaseILNS9_6detail11MessageTypeE6EEEEEEENS0_30MemoryResourceAllocationPolicyES7_NS3_19ProcessModifierImplINS2_21DefaultProxyFilterTagEEEE35_nn_sf_sync_GetReaderLockAccessorExENS0_3OutINS0_13SharedPointerINS6_13ILockAccessorEEEvEEi
 00000000:00000071000592A0       _ZN2nn2sf4cmif6client6detail13CmifProxyImplINS_2am7service18ICommonStateGetterENS2_19CmifDomainProxyKindINS0_4hipc6client38Hipc2ClientSessionManagedProxyKindBaseINSA_18Hipc2ProxyKindBaseILNS9_6detail11MessageTypeE6EEEEEEENS0_30MemoryResourceAllocationPolicyES7_NS3_19ProcessModifierImplINS2_21DefaultProxyFilterTagEEEE35_nn_sf_sync_GetWriterLockAccessorExENS0_3OutINS0_13SharedPointerINS6_13ILockAccessorEEEvEEi
 00000000:0000007100059350       _ZN2nn2sf4cmif6client6detail13CmifProxyImplINS_2am7service18ICommonStateGetterENS2_19CmifDomainProxyKindINS0_4hipc6client38Hipc2ClientSessionManagedProxyKindBaseINSA_18Hipc2ProxyKindBaseILNS9_6detail11MessageTypeE6EEEEEEENS0_30MemoryResourceAllocationPolicyES7_NS3_19ProcessModifierImplINS2_21DefaultProxyFilterTagEEEE30_nn_sf_sync_GetCradleFwVersionENS0_3OutIjvEESO_SO_SO_
 00000000:0000007100059370       _ZN2nn2sf4cmif6client6detail13CmifProxyImplINS_2am7service18ICommonStateGetterENS2_19CmifDomainProxyKindINS0_4hipc6client38Hipc2ClientSessionManagedProxyKindBaseINSA_18Hipc2ProxyKindBaseILNS9_6detail11MessageTypeE6EEEEEEENS0_30MemoryResourceAllocationPolicyES7_NS3_19ProcessModifierImplINS2_21DefaultProxyFilterTagEEEE27_nn_sf_sync_IsVrModeEnabledENS0_3OutIbvEE
 00000000:0000007100059390       _ZN2nn2sf4cmif6client6detail13CmifProxyImplINS_2am7service18ICommonStateGetterENS2_19CmifDomainProxyKindINS0_4hipc6client38Hipc2ClientSessionManagedProxyKindBaseINSA_18Hipc2ProxyKindBaseILNS9_6detail11MessageTypeE6EEEEEEENS0_30MemoryResourceAllocationPolicyES7_NS3_19ProcessModifierImplINS2_21DefaultProxyFilterTagEEEE28_nn_sf_sync_SetVrModeEnabledEb
 00000000:00000071000593C0       _ZN2nn2sf4cmif6client6detail13CmifProxyImplINS_2am7service18ICommonStateGetterENS2_19CmifDomainProxyKindINS0_4hipc6client38Hipc2ClientSessionManagedProxyKindBaseINSA_18Hipc2ProxyKindBaseILNS9_6detail11MessageTypeE6EEEEEEENS0_30MemoryResourceAllocationPolicyES7_NS3_19ProcessModifierImplINS2_21DefaultProxyFilterTagEEEE36_nn_sf_sync_SetLcdBacklighOffEnabledEb
 00000000:00000071000593F0       _ZN2nn2sf4cmif6client6detail13CmifProxyImplINS_2am7service18ICommonStateGetterENS2_19CmifDomainProxyKindINS0_4hipc6client38Hipc2ClientSessionManagedProxyKindBaseINSA_18Hipc2ProxyKindBaseILNS9_6detail11MessageTypeE6EEEEEEENS0_30MemoryResourceAllocationPolicyES7_NS3_19ProcessModifierImplINS2_21DefaultProxyFilterTagEEEE25_nn_sf_sync_BeginVrModeExEv
 00000000:0000007100059410       _ZN2nn2sf4cmif6client6detail13CmifProxyImplINS_2am7service18ICommonStateGetterENS2_19CmifDomainProxyKindINS0_4hipc6client38Hipc2ClientSessionManagedProxyKindBaseINSA_18Hipc2ProxyKindBaseILNS9_6detail11MessageTypeE6EEEEEEENS0_30MemoryResourceAllocationPolicyES7_NS3_19ProcessModifierImplINS2_21DefaultProxyFilterTagEEEE23_nn_sf_sync_EndVrModeExEv
 00000000:0000007100059430       _ZN2nn2sf4cmif6client6detail13CmifProxyImplINS_2am7service18ICommonStateGetterENS2_19CmifDomainProxyKindINS0_4hipc6client38Hipc2ClientSessionManagedProxyKindBaseINSA_18Hipc2ProxyKindBaseILNS9_6detail11MessageTypeE6EEEEEEENS0_30MemoryResourceAllocationPolicyES7_NS3_19ProcessModifierImplINS2_21DefaultProxyFilterTagEEEE47_nn_sf_sync_IsInControllerFirmwareUpdateSectionENS0_3OutIbvEE
 00000000:0000007100059450       _ZN2nn2sf4cmif6client6detail13CmifProxyImplINS_2am7service18ICommonStateGetterENS2_19CmifDomainProxyKindINS0_4hipc6client38Hipc2ClientSessionManagedProxyKindBaseINSA_18Hipc2ProxyKindBaseILNS9_6detail11MessageTypeE6EEEEEEENS0_30MemoryResourceAllocationPolicyES7_NS3_19ProcessModifierImplINS2_21DefaultProxyFilterTagEEEE39_nn_sf_sync_GetDefaultDisplayResolutionENS0_3OutIivEESO_
 00000000:0000007100059470       _ZN2nn2sf4cmif6client6detail13CmifProxyImplINS_2am7service18ICommonStateGetterENS2_19CmifDomainProxyKindINS0_4hipc6client38Hipc2ClientSessionManagedProxyKindBaseINSA_18Hipc2ProxyKindBaseILNS9_6detail11MessageTypeE6EEEEEEENS0_30MemoryResourceAllocationPolicyES7_NS3_19ProcessModifierImplINS2_21DefaultProxyFilterTagEEEE50_nn_sf_sync_GetDefaultDisplayResolutionChangeEventENS0_3OutINS0_12NativeHandleEvEE
 00000000:0000007100059490       _ZN2nn2sf4cmif6client6detail13CmifProxyImplINS_2am7service18ICommonStateGetterENS2_19CmifDomainProxyKindINS0_4hipc6client38Hipc2ClientSessionManagedProxyKindBaseINSA_18Hipc2ProxyKindBaseILNS9_6detail11MessageTypeE6EEEEEEENS0_30MemoryResourceAllocationPolicyES7_NS3_19ProcessModifierImplINS2_21DefaultProxyFilterTagEEEE38_nn_sf_sync_GetHdcpAuthenticationStateENS0_3OutIivEE
 00000000:00000071000594B0       _ZN2nn2sf4cmif6client6detail13CmifProxyImplINS_2am7service18ICommonStateGetterENS2_19CmifDomainProxyKindINS0_4hipc6client38Hipc2ClientSessionManagedProxyKindBaseINSA_18Hipc2ProxyKindBaseILNS9_6detail11MessageTypeE6EEEEEEENS0_30MemoryResourceAllocationPolicyES7_NS3_19ProcessModifierImplINS2_21DefaultProxyFilterTagEEEE49_nn_sf_sync_GetHdcpAuthenticationStateChangeEventENS0_3OutINS0_12NativeHandleEvEE
 00000000:00000071000594D0       _ZN2nn2sf4cmif6client6detail13CmifProxyImplINS_2am7service18ICommonStateGetterENS2_19CmifDomainProxyKindINS0_4hipc6client38Hipc2ClientSessionManagedProxyKindBaseINSA_18Hipc2ProxyKindBaseILNS9_6detail11MessageTypeE6EEEEEEENS0_30MemoryResourceAllocationPolicyES7_NS3_19ProcessModifierImplINS2_21DefaultProxyFilterTagEEEE39_nn_sf_sync_SetTvPowerStateMatchingModeEi
 00000000:0000007100059500       _ZN2nn2sf4cmif6client6detail13CmifProxyImplINS_2am7service18ICommonStateGetterENS2_19CmifDomainProxyKindINS0_4hipc6client38Hipc2ClientSessionManagedProxyKindBaseINSA_18Hipc2ProxyKindBaseILNS9_6detail11MessageTypeE6EEEEEEENS0_30MemoryResourceAllocationPolicyES7_NS3_19ProcessModifierImplINS2_21DefaultProxyFilterTagEEEE47_nn_sf_sync_GetApplicationIdByContentActionNameENS0_3OutImvEERKNS0_7InArrayIcEE
 00000000:0000007100059530       _ZN2nn2sf4cmif6client6detail13CmifProxyImplINS_2am7service18ICommonStateGetterENS2_19CmifDomainProxyKindINS0_4hipc6client38Hipc2ClientSessionManagedProxyKindBaseINSA_18Hipc2ProxyKindBaseILNS9_6detail11MessageTypeE6EEEEEEENS0_30MemoryResourceAllocationPolicyES7_NS3_19ProcessModifierImplINS2_21DefaultProxyFilterTagEEEE27_nn_sf_sync_SetCpuBoostModeEi
 00000000:0000007100059560       _ZN2nn2sf4cmif6client6detail13CmifProxyImplINS_2am7service18ICommonStateGetterENS2_19CmifDomainProxyKindINS0_4hipc6client38Hipc2ClientSessionManagedProxyKindBaseINSA_18Hipc2ProxyKindBaseILNS9_6detail11MessageTypeE6EEEEEEENS0_30MemoryResourceAllocationPolicyES7_NS3_19ProcessModifierImplINS2_21DefaultProxyFilterTagEEEE48_nn_sf_sync_PerformSystemButtonPressingIfInFocusENS6_16SystemButtonTypeE
 00000000:0000007100059590       _ZN2nn2sf4cmif6client6detail13CmifProxyImplINS_2am7service18ICommonStateGetterENS2_19CmifDomainProxyKindINS0_4hipc6client38Hipc2ClientSessionManagedProxyKindBaseINSA_18Hipc2ProxyKindBaseILNS9_6detail11MessageTypeE6EEEEEEENS0_30MemoryResourceAllocationPolicyES7_NS3_19ProcessModifierImplINS2_21DefaultProxyFilterTagEEEE58_nn_sf_sync_SetPerformanceConfigurationChangedNotificationEb
 00000000:00000071000595C0       _ZN2nn2sf4cmif6client6detail13CmifProxyImplINS_2am7service18ICommonStateGetterENS2_19CmifDomainProxyKindINS0_4hipc6client38Hipc2ClientSessionManagedProxyKindBaseINSA_18Hipc2ProxyKindBaseILNS9_6detail11MessageTypeE6EEEEEEENS0_30MemoryResourceAllocationPolicyES7_NS3_19ProcessModifierImplINS2_21DefaultProxyFilterTagEEEE46_nn_sf_sync_GetCurrentPerformanceConfigurationENS0_3OutIjvEE
 00000000:00000071000595E0       _ZN2nn2sf4cmif6client6detail13CmifProxyImplINS_2am7service18ICommonStateGetterENS2_19CmifDomainProxyKindINS0_4hipc6client38Hipc2ClientSessionManagedProxyKindBaseINSA_18Hipc2ProxyKindBaseILNS9_6detail11MessageTypeE6EEEEEEENS0_30MemoryResourceAllocationPolicyES7_NS3_19ProcessModifierImplINS2_21DefaultProxyFilterTagEEEE38_nn_sf_sync_GetOperationModeSystemInfoENS0_3OutIjvEE
 00000000:0000007100059600       _ZN2nn2sf4cmif6client6detail13CmifProxyImplINS_2am7service18ICommonStateGetterENS2_19CmifDomainProxyKindINS0_4hipc6client38Hipc2ClientSessionManagedProxyKindBaseINSA_18Hipc2ProxyKindBaseILNS9_6detail11MessageTypeE6EEEEEEENS0_30MemoryResourceAllocationPolicyES7_NS3_19ProcessModifierImplINS2_21DefaultProxyFilterTagEEEE17GetCmifBaseObjectEv
 00000000:0000007100059610       _ZThn32_N2nn2sf4cmif6client6detail13CmifProxyImplINS_2am7service18ICommonStateGetterENS2_19CmifDomainProxyKindINS0_4hipc6client38Hipc2ClientSessionManagedProxyKindBaseINSA_18Hipc2ProxyKindBaseILNS9_6detail11MessageTypeE6EEEEEEENS0_30MemoryResourceAllocationPolicyES7_NS3_19ProcessModifierImplINS2_21DefaultProxyFilterTagEEEE17GetCmifBaseObjectEv
 00000000:0000007100059620       _ZN2nn2sf4cmif6client34CmifDomainProxyClientCoreProcessorINS0_4hipc6client38Hipc2ClientSessionManagedProxyKindBaseINS5_18Hipc2ProxyKindBaseILNS4_6detail11MessageTypeE6EEEEENS1_6detail14CoreMethodInfoINSt3__15tupleIJNSC_18OutRawArgumentInfoILm8ELm4ELl0EEEEEELm0ELm8ELb0EEESI_E7ProcessEPNS2_23CmifDomainClientMessageISB_E15ProxyBaseObjectENS2_24OutRawClientArgumentTypeILm8ELm4EEEj
 00000000:0000007100059770       _ZN2nn2sf4cmif6client6detail36GetClientProcessorImplWithObjectBaseINS2_19CmifDomainProxyKindINS0_4hipc6client38Hipc2ClientSessionManagedProxyKindBaseINS7_18Hipc2ProxyKindBaseILNS6_6detail11MessageTypeE6EEEEEEENS3_19ProcessModifierImplINS2_21DefaultProxyFilterTagEEEE14ObjectAssignerINS0_30MemoryResourceAllocationPolicyENS_14MemoryResourceEE14AllocateObjectINS_2am7service13ILockAccessorEEEvi
 00000000:0000007100059820       _ZN2nn2sf6detail38ObjectImplFactoryWithStatefulAllocatorINS0_4cmif6client6detail9CmifProxyINS_2am7service13ILockAccessorENS4_19CmifDomainProxyKindINS0_4hipc6client38Hipc2ClientSessionManagedProxyKindBaseINSC_18Hipc2ProxyKindBaseILNSB_6detail11MessageTypeE6EEEEEEENS0_30MemoryResourceAllocationPolicyENS5_19ProcessModifierImplINS4_21DefaultProxyFilterTagEEEvEESK_E6Object12AddReferenceEv
 00000000:0000007100059830       _ZN2nn2sf6detail38ObjectImplFactoryWithStatefulAllocatorINS0_4cmif6client6detail9CmifProxyINS_2am7service13ILockAccessorENS4_19CmifDomainProxyKindINS0_4hipc6client38Hipc2ClientSessionManagedProxyKindBaseINSC_18Hipc2ProxyKindBaseILNSB_6detail11MessageTypeE6EEEEEEENS0_30MemoryResourceAllocationPolicyENS5_19ProcessModifierImplINS4_21DefaultProxyFilterTagEEEvEESK_E6Object7ReleaseEv
 00000000:0000007100059890       _ZN2nn2sf4cmif6client6detail13CmifProxyImplINS_2am7service13ILockAccessorENS2_19CmifDomainProxyKindINS0_4hipc6client38Hipc2ClientSessionManagedProxyKindBaseINSA_18Hipc2ProxyKindBaseILNS9_6detail11MessageTypeE6EEEEEEENS0_30MemoryResourceAllocationPolicyES7_NS3_19ProcessModifierImplINS2_21DefaultProxyFilterTagEEEE12GetProxyInfoEv
 00000000:00000071000598A0       _ZN2nn2sf4cmif6client6detail13CmifProxyImplINS_2am7service13ILockAccessorENS2_19CmifDomainProxyKindINS0_4hipc6client38Hipc2ClientSessionManagedProxyKindBaseINSA_18Hipc2ProxyKindBaseILNS9_6detail11MessageTypeE6EEEEEEENS0_30MemoryResourceAllocationPolicyES7_NS3_19ProcessModifierImplINS2_21DefaultProxyFilterTagEEEE19_nn_sf_sync_TryLockENS0_3OutIbvEENSN_INS0_12NativeHandleEvEEb
 00000000:00000071000598D0       _ZN2nn2sf4cmif6client6detail13CmifProxyImplINS_2am7service13ILockAccessorENS2_19CmifDomainProxyKindINS0_4hipc6client38Hipc2ClientSessionManagedProxyKindBaseINSA_18Hipc2ProxyKindBaseILNS9_6detail11MessageTypeE6EEEEEEENS0_30MemoryResourceAllocationPolicyES7_NS3_19ProcessModifierImplINS2_21DefaultProxyFilterTagEEEE18_nn_sf_sync_UnlockEv
 00000000:00000071000598F0       _ZN2nn2sf4cmif6client6detail13CmifProxyImplINS_2am7service13ILockAccessorENS2_19CmifDomainProxyKindINS0_4hipc6client38Hipc2ClientSessionManagedProxyKindBaseINSA_18Hipc2ProxyKindBaseILNS9_6detail11MessageTypeE6EEEEEEENS0_30MemoryResourceAllocationPolicyES7_NS3_19ProcessModifierImplINS2_21DefaultProxyFilterTagEEEE20_nn_sf_sync_GetEventENS0_3OutINS0_12NativeHandleEvEE
 00000000:0000007100059910       _ZN2nn2sf4cmif6client6detail13CmifProxyImplINS_2am7service13ILockAccessorENS2_19CmifDomainProxyKindINS0_4hipc6client38Hipc2ClientSessionManagedProxyKindBaseINSA_18Hipc2ProxyKindBaseILNS9_6detail11MessageTypeE6EEEEEEENS0_30MemoryResourceAllocationPolicyES7_NS3_19ProcessModifierImplINS2_21DefaultProxyFilterTagEEEE17GetCmifBaseObjectEv
 00000000:0000007100059920       _ZThn32_N2nn2sf4cmif6client6detail13CmifProxyImplINS_2am7service13ILockAccessorENS2_19CmifDomainProxyKindINS0_4hipc6client38Hipc2ClientSessionManagedProxyKindBaseINSA_18Hipc2ProxyKindBaseILNS9_6detail11MessageTypeE6EEEEEEENS0_30MemoryResourceAllocationPolicyES7_NS3_19ProcessModifierImplINS2_21DefaultProxyFilterTagEEEE17GetCmifBaseObjectEv
 00000000:0000007100059930       _ZN2nn2sf4cmif6client34CmifDomainProxyClientCoreProcessorINS0_4hipc6client38Hipc2ClientSessionManagedProxyKindBaseINS5_18Hipc2ProxyKindBaseILNS4_6detail11MessageTypeE6EEEEENS1_6detail14CoreMethodInfoINSt3__15tupleIJNSC_18OutRawArgumentInfoILm1ELm1ELl0EEENSC_21OutHandleArgumentInfoILi0ELi1EEENSC_17InRawArgumentInfoILm1ELm1ELl0EEEEEELm1ELm1ELb0EEESM_E7ProcessEPNS2_23CmifDomainClientMessageISB_E15ProxyBaseObjectENS2_24OutRawClientArgumentTypeILm1ELm1EEENS2_27OutHandleClientArgumentTypeENS2_23InRawClientArgumentTypeILm1ELm1EvEEj
 00000000:0000007100059AC0       _ZN2nn2sf4cmif6client34CmifDomainProxyClientCoreProcessorINS0_4hipc6client38Hipc2ClientSessionManagedProxyKindBaseINS5_18Hipc2ProxyKindBaseILNS4_6detail11MessageTypeE6EEEEENS1_6detail14CoreMethodInfoINSt3__15tupleIJNSC_18OutRawArgumentInfoILm4ELm4ELl0EEENSG_ILm4ELm4ELl4EEENSG_ILm4ELm4ELl8EEENSG_ILm4ELm4ELl12EEEEEELm0ELm16ELb0EEESL_E7ProcessEPNS2_23CmifDomainClientMessageISB_E15ProxyBaseObjectENS2_24OutRawClientArgumentTypeILm4ELm4EEEST_ST_ST_j
 00000000:0000007100059C40       _ZN2nn2sf4cmif6client34CmifDomainProxyClientCoreProcessorINS0_4hipc6client38Hipc2ClientSessionManagedProxyKindBaseINS5_18Hipc2ProxyKindBaseILNS4_6detail11MessageTypeE6EEEEENS1_6detail14CoreMethodInfoINSt3__15tupleIJNSC_18OutRawArgumentInfoILm8ELm8ELl0EEENSC_18BufferArgumentInfoILi0ELi5ELm0EEEEEELm0ELm8ELb0EEESK_E7ProcessEPNS2_23CmifDomainClientMessageISB_E15ProxyBaseObjectENS2_24OutRawClientArgumentTypeILm8ELm8EEENS2_24BufferClientArgumentTypeEj
 00000000:0000007100059E50       _ZN2nn2sf4cmif6client6detail36GetClientProcessorImplWithObjectBaseINS2_19CmifDomainProxyKindINS0_4hipc6client38Hipc2ClientSessionManagedProxyKindBaseINS7_18Hipc2ProxyKindBaseILNS6_6detail11MessageTypeE6EEEEEEENS3_19ProcessModifierImplINS2_21DefaultProxyFilterTagEEEE14ObjectAssignerINS0_30MemoryResourceAllocationPolicyENS_14MemoryResourceEE14AllocateObjectINS_2am7service15ISelfControllerEEEvi
 00000000:0000007100059F00       _ZN2nn2sf6detail38ObjectImplFactoryWithStatefulAllocatorINS0_4cmif6client6detail9CmifProxyINS_2am7service15ISelfControllerENS4_19CmifDomainProxyKindINS0_4hipc6client38Hipc2ClientSessionManagedProxyKindBaseINSC_18Hipc2ProxyKindBaseILNSB_6detail11MessageTypeE6EEEEEEENS0_30MemoryResourceAllocationPolicyENS5_19ProcessModifierImplINS4_21DefaultProxyFilterTagEEEvEESK_E6Object12AddReferenceEv
 00000000:0000007100059F10       _ZN2nn2sf6detail38ObjectImplFactoryWithStatefulAllocatorINS0_4cmif6client6detail9CmifProxyINS_2am7service15ISelfControllerENS4_19CmifDomainProxyKindINS0_4hipc6client38Hipc2ClientSessionManagedProxyKindBaseINSC_18Hipc2ProxyKindBaseILNSB_6detail11MessageTypeE6EEEEEEENS0_30MemoryResourceAllocationPolicyENS5_19ProcessModifierImplINS4_21DefaultProxyFilterTagEEEvEESK_E6Object7ReleaseEv
 00000000:0000007100059F70       _ZN2nn2sf4cmif6client6detail13CmifProxyImplINS_2am7service15ISelfControllerENS2_19CmifDomainProxyKindINS0_4hipc6client38Hipc2ClientSessionManagedProxyKindBaseINSA_18Hipc2ProxyKindBaseILNS9_6detail11MessageTypeE6EEEEEEENS0_30MemoryResourceAllocationPolicyES7_NS3_19ProcessModifierImplINS2_21DefaultProxyFilterTagEEEE12GetProxyInfoEv
 00000000:0000007100059F80       _ZN2nn2sf4cmif6client6detail13CmifProxyImplINS_2am7service15ISelfControllerENS2_19CmifDomainProxyKindINS0_4hipc6client38Hipc2ClientSessionManagedProxyKindBaseINSA_18Hipc2ProxyKindBaseILNS9_6detail11MessageTypeE6EEEEEEENS0_30MemoryResourceAllocationPolicyES7_NS3_19ProcessModifierImplINS2_21DefaultProxyFilterTagEEEE16_nn_sf_sync_ExitEv
 00000000:0000007100059FA0       _ZN2nn2sf4cmif6client6detail13CmifProxyImplINS_2am7service15ISelfControllerENS2_19CmifDomainProxyKindINS0_4hipc6client38Hipc2ClientSessionManagedProxyKindBaseINSA_18Hipc2ProxyKindBaseILNS9_6detail11MessageTypeE6EEEEEEENS0_30MemoryResourceAllocationPolicyES7_NS3_19ProcessModifierImplINS2_21DefaultProxyFilterTagEEEE20_nn_sf_sync_LockExitEv
 00000000:0000007100059FC0       _ZN2nn2sf4cmif6client6detail13CmifProxyImplINS_2am7service15ISelfControllerENS2_19CmifDomainProxyKindINS0_4hipc6client38Hipc2ClientSessionManagedProxyKindBaseINSA_18Hipc2ProxyKindBaseILNS9_6detail11MessageTypeE6EEEEEEENS0_30MemoryResourceAllocationPolicyES7_NS3_19ProcessModifierImplINS2_21DefaultProxyFilterTagEEEE22_nn_sf_sync_UnlockExitEv
 00000000:0000007100059FE0       _ZN2nn2sf4cmif6client6detail13CmifProxyImplINS_2am7service15ISelfControllerENS2_19CmifDomainProxyKindINS0_4hipc6client38Hipc2ClientSessionManagedProxyKindBaseINSA_18Hipc2ProxyKindBaseILNS9_6detail11MessageTypeE6EEEEEEENS0_30MemoryResourceAllocationPolicyES7_NS3_19ProcessModifierImplINS2_21DefaultProxyFilterTagEEEE29_nn_sf_sync_EnterFatalSectionEv
 00000000:000000710005A000       _ZN2nn2sf4cmif6client6detail13CmifProxyImplINS_2am7service15ISelfControllerENS2_19CmifDomainProxyKindINS0_4hipc6client38Hipc2ClientSessionManagedProxyKindBaseINSA_18Hipc2ProxyKindBaseILNS9_6detail11MessageTypeE6EEEEEEENS0_30MemoryResourceAllocationPolicyES7_NS3_19ProcessModifierImplINS2_21DefaultProxyFilterTagEEEE29_nn_sf_sync_LeaveFatalSectionEv
 00000000:000000710005A020       _ZN2nn2sf4cmif6client6detail13CmifProxyImplINS_2am7service15ISelfControllerENS2_19CmifDomainProxyKindINS0_4hipc6client38Hipc2ClientSessionManagedProxyKindBaseINSA_18Hipc2ProxyKindBaseILNS9_6detail11MessageTypeE6EEEEEEENS0_30MemoryResourceAllocationPolicyES7_NS3_19ProcessModifierImplINS2_21DefaultProxyFilterTagEEEE43_nn_sf_sync_GetLibraryAppletLaunchableEventENS0_3OutINS0_12NativeHandleEvEE
 00000000:000000710005A040       _ZN2nn2sf4cmif6client6detail13CmifProxyImplINS_2am7service15ISelfControllerENS2_19CmifDomainProxyKindINS0_4hipc6client38Hipc2ClientSessionManagedProxyKindBaseINSA_18Hipc2ProxyKindBaseILNS9_6detail11MessageTypeE6EEEEEEENS0_30MemoryResourceAllocationPolicyES7_NS3_19ProcessModifierImplINS2_21DefaultProxyFilterTagEEEE35_nn_sf_sync_SetScreenShotPermissionEi
 00000000:000000710005A070       _ZN2nn2sf4cmif6client6detail13CmifProxyImplINS_2am7service15ISelfControllerENS2_19CmifDomainProxyKindINS0_4hipc6client38Hipc2ClientSessionManagedProxyKindBaseINSA_18Hipc2ProxyKindBaseILNS9_6detail11MessageTypeE6EEEEEEENS0_30MemoryResourceAllocationPolicyES7_NS3_19ProcessModifierImplINS2_21DefaultProxyFilterTagEEEE47_nn_sf_sync_SetOperationModeChangedNotificationEb
 00000000:000000710005A0A0       _ZN2nn2sf4cmif6client6detail13CmifProxyImplINS_2am7service15ISelfControllerENS2_19CmifDomainProxyKindINS0_4hipc6client38Hipc2ClientSessionManagedProxyKindBaseINSA_18Hipc2ProxyKindBaseILNS9_6detail11MessageTypeE6EEEEEEENS0_30MemoryResourceAllocationPolicyES7_NS3_19ProcessModifierImplINS2_21DefaultProxyFilterTagEEEE49_nn_sf_sync_SetPerformanceModeChangedNotificationEb
 00000000:000000710005A0D0       _ZN2nn2sf4cmif6client6detail13CmifProxyImplINS_2am7service15ISelfControllerENS2_19CmifDomainProxyKindINS0_4hipc6client38Hipc2ClientSessionManagedProxyKindBaseINSA_18Hipc2ProxyKindBaseILNS9_6detail11MessageTypeE6EEEEEEENS0_30MemoryResourceAllocationPolicyES7_NS3_19ProcessModifierImplINS2_21DefaultProxyFilterTagEEEE32_nn_sf_sync_SetFocusHandlingModeEbbb
 00000000:000000710005A100       _ZN2nn2sf4cmif6client6detail13CmifProxyImplINS_2am7service15ISelfControllerENS2_19CmifDomainProxyKindINS0_4hipc6client38Hipc2ClientSessionManagedProxyKindBaseINSA_18Hipc2ProxyKindBaseILNS9_6detail11MessageTypeE6EEEEEEENS0_30MemoryResourceAllocationPolicyES7_NS3_19ProcessModifierImplINS2_21DefaultProxyFilterTagEEEE36_nn_sf_sync_SetRestartMessageEnabledEb
 00000000:000000710005A130       _ZN2nn2sf4cmif6client6detail13CmifProxyImplINS_2am7service15ISelfControllerENS2_19CmifDomainProxyKindINS0_4hipc6client38Hipc2ClientSessionManagedProxyKindBaseINSA_18Hipc2ProxyKindBaseILNS9_6detail11MessageTypeE6EEEEEEENS0_30MemoryResourceAllocationPolicyES7_NS3_19ProcessModifierImplINS2_21DefaultProxyFilterTagEEEE43_nn_sf_sync_SetScreenShotAppletIdentityInfoERKNS6_18AppletIdentityInfoE
 00000000:000000710005A150       _ZN2nn2sf4cmif6client6detail13CmifProxyImplINS_2am7service15ISelfControllerENS2_19CmifDomainProxyKindINS0_4hipc6client38Hipc2ClientSessionManagedProxyKindBaseINSA_18Hipc2ProxyKindBaseILNS9_6detail11MessageTypeE6EEEEEEENS0_30MemoryResourceAllocationPolicyES7_NS3_19ProcessModifierImplINS2_21DefaultProxyFilterTagEEEE42_nn_sf_sync_SetOutOfFocusSuspendingEnabledEb
 00000000:000000710005A180       _ZN2nn2sf4cmif6client6detail13CmifProxyImplINS_2am7service15ISelfControllerENS2_19CmifDomainProxyKindINS0_4hipc6client38Hipc2ClientSessionManagedProxyKindBaseINSA_18Hipc2ProxyKindBaseILNS9_6detail11MessageTypeE6EEEEEEENS0_30MemoryResourceAllocationPolicyES7_NS3_19ProcessModifierImplINS2_21DefaultProxyFilterTagEEEE46_nn_sf_sync_SetControllerFirmwareUpdateSectionEb
 00000000:000000710005A1B0       _ZN2nn2sf4cmif6client6detail13CmifProxyImplINS_2am7service15ISelfControllerENS2_19CmifDomainProxyKindINS0_4hipc6client38Hipc2ClientSessionManagedProxyKindBaseINSA_18Hipc2ProxyKindBaseILNS9_6detail11MessageTypeE6EEEEEEENS0_30MemoryResourceAllocationPolicyES7_NS3_19ProcessModifierImplINS2_21DefaultProxyFilterTagEEEE55_nn_sf_sync_SetRequiresCaptureButtonShortPressedMessageEb
 00000000:000000710005A1E0       _ZN2nn2sf4cmif6client6detail13CmifProxyImplINS_2am7service15ISelfControllerENS2_19CmifDomainProxyKindINS0_4hipc6client38Hipc2ClientSessionManagedProxyKindBaseINSA_18Hipc2ProxyKindBaseILNS9_6detail11MessageTypeE6EEEEEEENS0_30MemoryResourceAllocationPolicyES7_NS3_19ProcessModifierImplINS2_21DefaultProxyFilterTagEEEE36_nn_sf_sync_SetAlbumImageOrientationEi
 00000000:000000710005A210       _ZN2nn2sf4cmif6client6detail13CmifProxyImplINS_2am7service15ISelfControllerENS2_19CmifDomainProxyKindINS0_4hipc6client38Hipc2ClientSessionManagedProxyKindBaseINSA_18Hipc2ProxyKindBaseILNS9_6detail11MessageTypeE6EEEEEEENS0_30MemoryResourceAllocationPolicyES7_NS3_19ProcessModifierImplINS2_21DefaultProxyFilterTagEEEE38_nn_sf_sync_SetDesirableKeyboardLayoutEj
 00000000:000000710005A240       _ZN2nn2sf4cmif6client6detail13CmifProxyImplINS_2am7service15ISelfControllerENS2_19CmifDomainProxyKindINS0_4hipc6client38Hipc2ClientSessionManagedProxyKindBaseINSA_18Hipc2ProxyKindBaseILNS9_6detail11MessageTypeE6EEEEEEENS0_30MemoryResourceAllocationPolicyES7_NS3_19ProcessModifierImplINS2_21DefaultProxyFilterTagEEEE37_nn_sf_sync_CreateManagedDisplayLayerENS0_3OutImvEE
 00000000:000000710005A260       _ZN2nn2sf4cmif6client6detail13CmifProxyImplINS_2am7service15ISelfControllerENS2_19CmifDomainProxyKindINS0_4hipc6client38Hipc2ClientSessionManagedProxyKindBaseINSA_18Hipc2ProxyKindBaseILNS9_6detail11MessageTypeE6EEEEEEENS0_30MemoryResourceAllocationPolicyES7_NS3_19ProcessModifierImplINS2_21DefaultProxyFilterTagEEEE40_nn_sf_sync_IsSystemBufferSharingEnabledEv
 00000000:000000710005A280       _ZN2nn2sf4cmif6client6detail13CmifProxyImplINS_2am7service15ISelfControllerENS2_19CmifDomainProxyKindINS0_4hipc6client38Hipc2ClientSessionManagedProxyKindBaseINSA_18Hipc2ProxyKindBaseILNS9_6detail11MessageTypeE6EEEEEEENS0_30MemoryResourceAllocationPolicyES7_NS3_19ProcessModifierImplINS2_21DefaultProxyFilterTagEEEE38_nn_sf_sync_GetSystemSharedLayerHandleENS0_3OutINS_2vi7fbshare18SharedBufferHandleEvEENSN_INSP_17SharedLayerHandleEvEE
 00000000:000000710005A2A0       _ZN2nn2sf4cmif6client6detail13CmifProxyImplINS_2am7service15ISelfControllerENS2_19CmifDomainProxyKindINS0_4hipc6client38Hipc2ClientSessionManagedProxyKindBaseINSA_18Hipc2ProxyKindBaseILNS9_6detail11MessageTypeE6EEEEEEENS0_30MemoryResourceAllocationPolicyES7_NS3_19ProcessModifierImplINS2_21DefaultProxyFilterTagEEEE39_nn_sf_sync_GetSystemSharedBufferHandleENS0_3OutINS_2vi7fbshare18SharedBufferHandleEvEE
 00000000:000000710005A2C0       _ZN2nn2sf4cmif6client6detail13CmifProxyImplINS_2am7service15ISelfControllerENS2_19CmifDomainProxyKindINS0_4hipc6client38Hipc2ClientSessionManagedProxyKindBaseINSA_18Hipc2ProxyKindBaseILNS9_6detail11MessageTypeE6EEEEEEENS0_30MemoryResourceAllocationPolicyES7_NS3_19ProcessModifierImplINS2_21DefaultProxyFilterTagEEEE38_nn_sf_sync_SetHandlesRequestToDisplayEb
 00000000:000000710005A2F0       _ZN2nn2sf4cmif6client6detail13CmifProxyImplINS_2am7service15ISelfControllerENS2_19CmifDomainProxyKindINS0_4hipc6client38Hipc2ClientSessionManagedProxyKindBaseINSA_18Hipc2ProxyKindBaseILNS9_6detail11MessageTypeE6EEEEEEENS0_30MemoryResourceAllocationPolicyES7_NS3_19ProcessModifierImplINS2_21DefaultProxyFilterTagEEEE28_nn_sf_sync_ApproveToDisplayEv
 00000000:000000710005A310       _ZN2nn2sf4cmif6client6detail13CmifProxyImplINS_2am7service15ISelfControllerENS2_19CmifDomainProxyKindINS0_4hipc6client38Hipc2ClientSessionManagedProxyKindBaseINSA_18Hipc2ProxyKindBaseILNS9_6detail11MessageTypeE6EEEEEEENS0_30MemoryResourceAllocationPolicyES7_NS3_19ProcessModifierImplINS2_21DefaultProxyFilterTagEEEE47_nn_sf_sync_OverrideAutoSleepTimeAndDimmingTimeEiiii
 00000000:000000710005A340       _ZN2nn2sf4cmif6client6detail13CmifProxyImplINS_2am7service15ISelfControllerENS2_19CmifDomainProxyKindINS0_4hipc6client38Hipc2ClientSessionManagedProxyKindBaseINSA_18Hipc2ProxyKindBaseILNS9_6detail11MessageTypeE6EEEEEEENS0_30MemoryResourceAllocationPolicyES7_NS3_19ProcessModifierImplINS2_21DefaultProxyFilterTagEEEE33_nn_sf_sync_SetMediaPlaybackStateEb
 00000000:000000710005A370       _ZN2nn2sf4cmif6client6detail13CmifProxyImplINS_2am7service15ISelfControllerENS2_19CmifDomainProxyKindINS0_4hipc6client38Hipc2ClientSessionManagedProxyKindBaseINSA_18Hipc2ProxyKindBaseILNS9_6detail11MessageTypeE6EEEEEEENS0_30MemoryResourceAllocationPolicyES7_NS3_19ProcessModifierImplINS2_21DefaultProxyFilterTagEEEE41_nn_sf_sync_SetIdleTimeDetectionExtensionEj
 00000000:000000710005A3A0       _ZN2nn2sf4cmif6client6detail13CmifProxyImplINS_2am7service15ISelfControllerENS2_19CmifDomainProxyKindINS0_4hipc6client38Hipc2ClientSessionManagedProxyKindBaseINSA_18Hipc2ProxyKindBaseILNS9_6detail11MessageTypeE6EEEEEEENS0_30MemoryResourceAllocationPolicyES7_NS3_19ProcessModifierImplINS2_21DefaultProxyFilterTagEEEE41_nn_sf_sync_GetIdleTimeDetectionExtensionENS0_3OutIjvEE
 00000000:000000710005A3C0       _ZN2nn2sf4cmif6client6detail13CmifProxyImplINS_2am7service15ISelfControllerENS2_19CmifDomainProxyKindINS0_4hipc6client38Hipc2ClientSessionManagedProxyKindBaseINSA_18Hipc2ProxyKindBaseILNS9_6detail11MessageTypeE6EEEEEEENS0_30MemoryResourceAllocationPolicyES7_NS3_19ProcessModifierImplINS2_21DefaultProxyFilterTagEEEE38_nn_sf_sync_SetInputDetectionSourceSetEj
 00000000:000000710005A3F0       _ZN2nn2sf4cmif6client6detail13CmifProxyImplINS_2am7service15ISelfControllerENS2_19CmifDomainProxyKindINS0_4hipc6client38Hipc2ClientSessionManagedProxyKindBaseINSA_18Hipc2ProxyKindBaseILNS9_6detail11MessageTypeE6EEEEEEENS0_30MemoryResourceAllocationPolicyES7_NS3_19ProcessModifierImplINS2_21DefaultProxyFilterTagEEEE30_nn_sf_sync_ReportUserIsActiveEv
 00000000:000000710005A410       _ZN2nn2sf4cmif6client6detail13CmifProxyImplINS_2am7service15ISelfControllerENS2_19CmifDomainProxyKindINS0_4hipc6client38Hipc2ClientSessionManagedProxyKindBaseINSA_18Hipc2ProxyKindBaseILNS9_6detail11MessageTypeE6EEEEEEENS0_30MemoryResourceAllocationPolicyES7_NS3_19ProcessModifierImplINS2_21DefaultProxyFilterTagEEEE33_nn_sf_sync_GetCurrentIlluminanceENS0_3OutIfvEE
 00000000:000000710005A430       _ZN2nn2sf4cmif6client6detail13CmifProxyImplINS_2am7service15ISelfControllerENS2_19CmifDomainProxyKindINS0_4hipc6client38Hipc2ClientSessionManagedProxyKindBaseINSA_18Hipc2ProxyKindBaseILNS9_6detail11MessageTypeE6EEEEEEENS0_30MemoryResourceAllocationPolicyES7_NS3_19ProcessModifierImplINS2_21DefaultProxyFilterTagEEEE34_nn_sf_sync_IsIlluminanceAvailableENS0_3OutIbvEE
 00000000:000000710005A450       _ZN2nn2sf4cmif6client6detail13CmifProxyImplINS_2am7service15ISelfControllerENS2_19CmifDomainProxyKindINS0_4hipc6client38Hipc2ClientSessionManagedProxyKindBaseINSA_18Hipc2ProxyKindBaseILNS9_6detail11MessageTypeE6EEEEEEENS0_30MemoryResourceAllocationPolicyES7_NS3_19ProcessModifierImplINS2_21DefaultProxyFilterTagEEEE32_nn_sf_sync_SetAutoSleepDisabledEb
 00000000:000000710005A480       _ZN2nn2sf4cmif6client6detail13CmifProxyImplINS_2am7service15ISelfControllerENS2_19CmifDomainProxyKindINS0_4hipc6client38Hipc2ClientSessionManagedProxyKindBaseINSA_18Hipc2ProxyKindBaseILNS9_6detail11MessageTypeE6EEEEEEENS0_30MemoryResourceAllocationPolicyES7_NS3_19ProcessModifierImplINS2_21DefaultProxyFilterTagEEEE31_nn_sf_sync_IsAutoSleepDisabledENS0_3OutIbvEE
 00000000:000000710005A4A0       _ZN2nn2sf4cmif6client6detail13CmifProxyImplINS_2am7service15ISelfControllerENS2_19CmifDomainProxyKindINS0_4hipc6client38Hipc2ClientSessionManagedProxyKindBaseINSA_18Hipc2ProxyKindBaseILNS9_6detail11MessageTypeE6EEEEEEENS0_30MemoryResourceAllocationPolicyES7_NS3_19ProcessModifierImplINS2_21DefaultProxyFilterTagEEEE33_nn_sf_sync_ReportMultimediaErrorEjRKNS0_8InBufferE
 00000000:000000710005A4D0       _ZN2nn2sf4cmif6client6detail13CmifProxyImplINS_2am7service15ISelfControllerENS2_19CmifDomainProxyKindINS0_4hipc6client38Hipc2ClientSessionManagedProxyKindBaseINSA_18Hipc2ProxyKindBaseILNS9_6detail11MessageTypeE6EEEEEEENS0_30MemoryResourceAllocationPolicyES7_NS3_19ProcessModifierImplINS2_21DefaultProxyFilterTagEEEE35_nn_sf_sync_GetCurrentIlluminanceExENS0_3OutIfvEENSN_IbvEE
 00000000:000000710005A4F0       _ZN2nn2sf4cmif6client6detail13CmifProxyImplINS_2am7service15ISelfControllerENS2_19CmifDomainProxyKindINS0_4hipc6client38Hipc2ClientSessionManagedProxyKindBaseINSA_18Hipc2ProxyKindBaseILNS9_6detail11MessageTypeE6EEEEEEENS0_30MemoryResourceAllocationPolicyES7_NS3_19ProcessModifierImplINS2_21DefaultProxyFilterTagEEEE35_nn_sf_sync_SetWirelessPriorityModeEi
 00000000:000000710005A520       _ZN2nn2sf4cmif6client6detail13CmifProxyImplINS_2am7service15ISelfControllerENS2_19CmifDomainProxyKindINS0_4hipc6client38Hipc2ClientSessionManagedProxyKindBaseINSA_18Hipc2ProxyKindBaseILNS9_6detail11MessageTypeE6EEEEEEENS0_30MemoryResourceAllocationPolicyES7_NS3_19ProcessModifierImplINS2_21DefaultProxyFilterTagEEEE44_nn_sf_sync_GetAccumulatedSuspendedTickValueENS0_3OutIlvEE
 00000000:000000710005A540       _ZN2nn2sf4cmif6client6detail13CmifProxyImplINS_2am7service15ISelfControllerENS2_19CmifDomainProxyKindINS0_4hipc6client38Hipc2ClientSessionManagedProxyKindBaseINSA_18Hipc2ProxyKindBaseILNS9_6detail11MessageTypeE6EEEEEEENS0_30MemoryResourceAllocationPolicyES7_NS3_19ProcessModifierImplINS2_21DefaultProxyFilterTagEEEE51_nn_sf_sync_GetAccumulatedSuspendedTickChangedEventENS0_3OutINS0_12NativeHandleEvEE
 00000000:000000710005A560       _ZN2nn2sf4cmif6client6detail13CmifProxyImplINS_2am7service15ISelfControllerENS2_19CmifDomainProxyKindINS0_4hipc6client38Hipc2ClientSessionManagedProxyKindBaseINSA_18Hipc2ProxyKindBaseILNS9_6detail11MessageTypeE6EEEEEEENS0_30MemoryResourceAllocationPolicyES7_NS3_19ProcessModifierImplINS2_21DefaultProxyFilterTagEEEE49_nn_sf_sync_SetAlbumImageTakenNotificationEnabledEb
 00000000:000000710005A590       _ZN2nn2sf4cmif6client6detail13CmifProxyImplINS_2am7service15ISelfControllerENS2_19CmifDomainProxyKindINS0_4hipc6client38Hipc2ClientSessionManagedProxyKindBaseINSA_18Hipc2ProxyKindBaseILNS9_6detail11MessageTypeE6EEEEEEENS0_30MemoryResourceAllocationPolicyES7_NS3_19ProcessModifierImplINS2_21DefaultProxyFilterTagEEEE39_nn_sf_sync_SetApplicationAlbumUserDataERKNS0_8InBufferE
 00000000:000000710005A5C0       _ZN2nn2sf4cmif6client6detail13CmifProxyImplINS_2am7service15ISelfControllerENS2_19CmifDomainProxyKindINS0_4hipc6client38Hipc2ClientSessionManagedProxyKindBaseINSA_18Hipc2ProxyKindBaseILNS9_6detail11MessageTypeE6EEEEEEENS0_30MemoryResourceAllocationPolicyES7_NS3_19ProcessModifierImplINS2_21DefaultProxyFilterTagEEEE34_nn_sf_sync_GetDebugStorageChannelENS0_3OutINS0_13SharedPointerINS6_15IStorageChannelEEEvEE
 00000000:000000710005A660       _ZN2nn2sf4cmif6client6detail13CmifProxyImplINS_2am7service15ISelfControllerENS2_19CmifDomainProxyKindINS0_4hipc6client38Hipc2ClientSessionManagedProxyKindBaseINSA_18Hipc2ProxyKindBaseILNS9_6detail11MessageTypeE6EEEEEEENS0_30MemoryResourceAllocationPolicyES7_NS3_19ProcessModifierImplINS2_21DefaultProxyFilterTagEEEE17GetCmifBaseObjectEv
 00000000:000000710005A670       _ZThn32_N2nn2sf4cmif6client6detail13CmifProxyImplINS_2am7service15ISelfControllerENS2_19CmifDomainProxyKindINS0_4hipc6client38Hipc2ClientSessionManagedProxyKindBaseINSA_18Hipc2ProxyKindBaseILNS9_6detail11MessageTypeE6EEEEEEENS0_30MemoryResourceAllocationPolicyES7_NS3_19ProcessModifierImplINS2_21DefaultProxyFilterTagEEEE17GetCmifBaseObjectEv
 00000000:000000710005A680       _ZN2nn2sf4cmif6client34CmifDomainProxyClientCoreProcessorINS0_4hipc6client38Hipc2ClientSessionManagedProxyKindBaseINS5_18Hipc2ProxyKindBaseILNS4_6detail11MessageTypeE6EEEEENS1_6detail14CoreMethodInfoINSt3__15tupleIJNSC_17InRawArgumentInfoILm1ELm1ELl0EEENSG_ILm1ELm1ELl1EEENSG_ILm1ELm1ELl2EEEEEELm3ELm0ELb0EEESK_E7ProcessEPNS2_23CmifDomainClientMessageISB_E15ProxyBaseObjectENS2_23InRawClientArgumentTypeILm1ELm1EvEESS_SS_j
 00000000:000000710005A7E0       _ZN2nn2sf4cmif6client34CmifDomainProxyClientCoreProcessorINS0_4hipc6client38Hipc2ClientSessionManagedProxyKindBaseINS5_18Hipc2ProxyKindBaseILNS4_6detail11MessageTypeE6EEEEENS1_6detail14CoreMethodInfoINSt3__15tupleIJNSC_18OutRawArgumentInfoILm8ELm8ELl0EEENSG_ILm8ELm8ELl8EEEEEELm0ELm16ELb0EEESJ_E7ProcessEPNS2_23CmifDomainClientMessageISB_E15ProxyBaseObjectENS2_24OutRawClientArgumentTypeILm8ELm8EEESR_j
 00000000:000000710005A940       _ZN2nn2sf4cmif6client34CmifDomainProxyClientCoreProcessorINS0_4hipc6client38Hipc2ClientSessionManagedProxyKindBaseINS5_18Hipc2ProxyKindBaseILNS4_6detail11MessageTypeE6EEEEENS1_6detail14CoreMethodInfoINSt3__15tupleIJNSC_17InRawArgumentInfoILm4ELm4ELl0EEENSG_ILm4ELm4ELl4EEENSG_ILm4ELm4ELl8EEENSG_ILm4ELm4ELl12EEEEEELm16ELm0ELb0EEESL_E7ProcessEPNS2_23CmifDomainClientMessageISB_E15ProxyBaseObjectENS2_23InRawClientArgumentTypeILm4ELm4EvEEST_ST_ST_j
 00000000:000000710005AAA0       _ZN2nn2sf4cmif6client34CmifDomainProxyClientCoreProcessorINS0_4hipc6client38Hipc2ClientSessionManagedProxyKindBaseINS5_18Hipc2ProxyKindBaseILNS4_6detail11MessageTypeE6EEEEENS1_6detail14CoreMethodInfoINSt3__15tupleIJNSC_17InRawArgumentInfoILm4ELm4ELl0EEENSC_18BufferArgumentInfoILi0ELi5ELm0EEEEEELm4ELm0ELb0EEESK_E7ProcessEPNS2_23CmifDomainClientMessageISB_E15ProxyBaseObjectENS2_23InRawClientArgumentTypeILm4ELm4EvEENS2_24BufferClientArgumentTypeEj
 00000000:000000710005ACB0       _ZN2nn2sf4cmif6client34CmifDomainProxyClientCoreProcessorINS0_4hipc6client38Hipc2ClientSessionManagedProxyKindBaseINS5_18Hipc2ProxyKindBaseILNS4_6detail11MessageTypeE6EEEEENS1_6detail14CoreMethodInfoINSt3__15tupleIJNSC_18OutRawArgumentInfoILm4ELm4ELl4EEENSG_ILm1ELm1ELl0EEEEEELm0ELm8ELb0EEESJ_E7ProcessEPNS2_23CmifDomainClientMessageISB_E15ProxyBaseObjectENS2_24OutRawClientArgumentTypeILm4ELm4EEENSQ_ILm1ELm1EEEj
 00000000:000000710005AE10       _ZN2nn2sf4cmif6client34CmifDomainProxyClientCoreProcessorINS0_4hipc6client38Hipc2ClientSessionManagedProxyKindBaseINS5_18Hipc2ProxyKindBaseILNS4_6detail11MessageTypeE6EEEEENS1_6detail14CoreMethodInfoINSt3__15tupleIJNSC_18BufferArgumentInfoILi0ELi33ELm0EEEEEELm0ELm0ELb0EEESI_E7ProcessEPNS2_23CmifDomainClientMessageISB_E15ProxyBaseObjectENS2_24BufferClientArgumentTypeEj
 00000000:000000710005AFF0       _ZN2nn2sf4cmif6client6detail36GetClientProcessorImplWithObjectBaseINS2_19CmifDomainProxyKindINS0_4hipc6client38Hipc2ClientSessionManagedProxyKindBaseINS7_18Hipc2ProxyKindBaseILNS6_6detail11MessageTypeE6EEEEEEENS3_19ProcessModifierImplINS2_21DefaultProxyFilterTagEEEE14ObjectAssignerINS0_30MemoryResourceAllocationPolicyENS_14MemoryResourceEE14AllocateObjectINS_2am7service15IStorageChannelEEEvi
 00000000:000000710005B0A0       _ZN2nn2sf6detail38ObjectImplFactoryWithStatefulAllocatorINS0_4cmif6client6detail9CmifProxyINS_2am7service15IStorageChannelENS4_19CmifDomainProxyKindINS0_4hipc6client38Hipc2ClientSessionManagedProxyKindBaseINSC_18Hipc2ProxyKindBaseILNSB_6detail11MessageTypeE6EEEEEEENS0_30MemoryResourceAllocationPolicyENS5_19ProcessModifierImplINS4_21DefaultProxyFilterTagEEEvEESK_E6Object12AddReferenceEv
 00000000:000000710005B0B0       _ZN2nn2sf6detail38ObjectImplFactoryWithStatefulAllocatorINS0_4cmif6client6detail9CmifProxyINS_2am7service15IStorageChannelENS4_19CmifDomainProxyKindINS0_4hipc6client38Hipc2ClientSessionManagedProxyKindBaseINSC_18Hipc2ProxyKindBaseILNSB_6detail11MessageTypeE6EEEEEEENS0_30MemoryResourceAllocationPolicyENS5_19ProcessModifierImplINS4_21DefaultProxyFilterTagEEEvEESK_E6Object7ReleaseEv
 00000000:000000710005B110       _ZN2nn2sf4cmif6client6detail13CmifProxyImplINS_2am7service15IStorageChannelENS2_19CmifDomainProxyKindINS0_4hipc6client38Hipc2ClientSessionManagedProxyKindBaseINSA_18Hipc2ProxyKindBaseILNS9_6detail11MessageTypeE6EEEEEEENS0_30MemoryResourceAllocationPolicyES7_NS3_19ProcessModifierImplINS2_21DefaultProxyFilterTagEEEE12GetProxyInfoEv
 00000000:000000710005B120       _ZN2nn2sf4cmif6client6detail13CmifProxyImplINS_2am7service15IStorageChannelENS2_19CmifDomainProxyKindINS0_4hipc6client38Hipc2ClientSessionManagedProxyKindBaseINSA_18Hipc2ProxyKindBaseILNS9_6detail11MessageTypeE6EEEEEEENS0_30MemoryResourceAllocationPolicyES7_NS3_19ProcessModifierImplINS2_21DefaultProxyFilterTagEEEE16_nn_sf_sync_PushENS0_13SharedPointerINS6_8IStorageEEE
 00000000:000000710005B170       _ZN2nn2sf4cmif6client6detail13CmifProxyImplINS_2am7service15IStorageChannelENS2_19CmifDomainProxyKindINS0_4hipc6client38Hipc2ClientSessionManagedProxyKindBaseINSA_18Hipc2ProxyKindBaseILNS9_6detail11MessageTypeE6EEEEEEENS0_30MemoryResourceAllocationPolicyES7_NS3_19ProcessModifierImplINS2_21DefaultProxyFilterTagEEEE17_nn_sf_sync_UnpopENS0_13SharedPointerINS6_8IStorageEEE
 00000000:000000710005B1C0       _ZN2nn2sf4cmif6client6detail13CmifProxyImplINS_2am7service15IStorageChannelENS2_19CmifDomainProxyKindINS0_4hipc6client38Hipc2ClientSessionManagedProxyKindBaseINSA_18Hipc2ProxyKindBaseILNS9_6detail11MessageTypeE6EEEEEEENS0_30MemoryResourceAllocationPolicyES7_NS3_19ProcessModifierImplINS2_21DefaultProxyFilterTagEEEE15_nn_sf_sync_PopENS0_3OutINS0_13SharedPointerINS6_8IStorageEEEvEE
 00000000:000000710005B260       _ZN2nn2sf4cmif6client6detail13CmifProxyImplINS_2am7service15IStorageChannelENS2_19CmifDomainProxyKindINS0_4hipc6client38Hipc2ClientSessionManagedProxyKindBaseINSA_18Hipc2ProxyKindBaseILNS9_6detail11MessageTypeE6EEEEEEENS0_30MemoryResourceAllocationPolicyES7_NS3_19ProcessModifierImplINS2_21DefaultProxyFilterTagEEEE29_nn_sf_sync_GetPopEventHandleENS0_3OutINS0_12NativeHandleEvEE
 00000000:000000710005B280       _ZN2nn2sf4cmif6client6detail13CmifProxyImplINS_2am7service15IStorageChannelENS2_19CmifDomainProxyKindINS0_4hipc6client38Hipc2ClientSessionManagedProxyKindBaseINSA_18Hipc2ProxyKindBaseILNS9_6detail11MessageTypeE6EEEEEEENS0_30MemoryResourceAllocationPolicyES7_NS3_19ProcessModifierImplINS2_21DefaultProxyFilterTagEEEE17_nn_sf_sync_ClearEv
 00000000:000000710005B2A0       _ZN2nn2sf4cmif6client6detail13CmifProxyImplINS_2am7service15IStorageChannelENS2_19CmifDomainProxyKindINS0_4hipc6client38Hipc2ClientSessionManagedProxyKindBaseINSA_18Hipc2ProxyKindBaseILNS9_6detail11MessageTypeE6EEEEEEENS0_30MemoryResourceAllocationPolicyES7_NS3_19ProcessModifierImplINS2_21DefaultProxyFilterTagEEEE17GetCmifBaseObjectEv
 00000000:000000710005B2B0       _ZThn32_N2nn2sf4cmif6client6detail13CmifProxyImplINS_2am7service15IStorageChannelENS2_19CmifDomainProxyKindINS0_4hipc6client38Hipc2ClientSessionManagedProxyKindBaseINSA_18Hipc2ProxyKindBaseILNS9_6detail11MessageTypeE6EEEEEEENS0_30MemoryResourceAllocationPolicyES7_NS3_19ProcessModifierImplINS2_21DefaultProxyFilterTagEEEE17GetCmifBaseObjectEv
 00000000:000000710005B2C0       _ZN2nn2sf4cmif6client6detail36GetClientProcessorImplWithObjectBaseINS2_19CmifDomainProxyKindINS0_4hipc6client38Hipc2ClientSessionManagedProxyKindBaseINS7_18Hipc2ProxyKindBaseILNS6_6detail11MessageTypeE6EEEEEEENS3_19ProcessModifierImplINS2_21DefaultProxyFilterTagEEEE14ObjectAssignerINS0_30MemoryResourceAllocationPolicyENS_14MemoryResourceEE14AllocateObjectINS_2am7service8IStorageEEEvi
 00000000:000000710005B370       _ZN2nn2sf6detail38ObjectImplFactoryWithStatefulAllocatorINS0_4cmif6client6detail9CmifProxyINS_2am7service8IStorageENS4_19CmifDomainProxyKindINS0_4hipc6client38Hipc2ClientSessionManagedProxyKindBaseINSC_18Hipc2ProxyKindBaseILNSB_6detail11MessageTypeE6EEEEEEENS0_30MemoryResourceAllocationPolicyENS5_19ProcessModifierImplINS4_21DefaultProxyFilterTagEEEvEESK_E6Object12AddReferenceEv
 00000000:000000710005B380       _ZN2nn2sf6detail38ObjectImplFactoryWithStatefulAllocatorINS0_4cmif6client6detail9CmifProxyINS_2am7service8IStorageENS4_19CmifDomainProxyKindINS0_4hipc6client38Hipc2ClientSessionManagedProxyKindBaseINSC_18Hipc2ProxyKindBaseILNSB_6detail11MessageTypeE6EEEEEEENS0_30MemoryResourceAllocationPolicyENS5_19ProcessModifierImplINS4_21DefaultProxyFilterTagEEEvEESK_E6Object7ReleaseEv
 00000000:000000710005B3E0       _ZN2nn2sf4cmif6client6detail13CmifProxyImplINS_2am7service8IStorageENS2_19CmifDomainProxyKindINS0_4hipc6client38Hipc2ClientSessionManagedProxyKindBaseINSA_18Hipc2ProxyKindBaseILNS9_6detail11MessageTypeE6EEEEEEENS0_30MemoryResourceAllocationPolicyES7_NS3_19ProcessModifierImplINS2_21DefaultProxyFilterTagEEEE12GetProxyInfoEv
 00000000:000000710005B3F0       _ZN2nn2sf4cmif6client6detail13CmifProxyImplINS_2am7service8IStorageENS2_19CmifDomainProxyKindINS0_4hipc6client38Hipc2ClientSessionManagedProxyKindBaseINSA_18Hipc2ProxyKindBaseILNS9_6detail11MessageTypeE6EEEEEEENS0_30MemoryResourceAllocationPolicyES7_NS3_19ProcessModifierImplINS2_21DefaultProxyFilterTagEEEE16_nn_sf_sync_OpenENS0_3OutINS0_13SharedPointerINS6_16IStorageAccessorEEEvEE
 00000000:000000710005B490       _ZN2nn2sf4cmif6client6detail13CmifProxyImplINS_2am7service8IStorageENS2_19CmifDomainProxyKindINS0_4hipc6client38Hipc2ClientSessionManagedProxyKindBaseINSA_18Hipc2ProxyKindBaseILNS9_6detail11MessageTypeE6EEEEEEENS0_30MemoryResourceAllocationPolicyES7_NS3_19ProcessModifierImplINS2_21DefaultProxyFilterTagEEEE31_nn_sf_sync_OpenTransferStorageENS0_3OutINS0_13SharedPointerINS6_24ITransferStorageAccessorEEEvEE
 00000000:000000710005B530       _ZN2nn2sf4cmif6client6detail13CmifProxyImplINS_2am7service8IStorageENS2_19CmifDomainProxyKindINS0_4hipc6client38Hipc2ClientSessionManagedProxyKindBaseINSA_18Hipc2ProxyKindBaseILNS9_6detail11MessageTypeE6EEEEEEENS0_30MemoryResourceAllocationPolicyES7_NS3_19ProcessModifierImplINS2_21DefaultProxyFilterTagEEEE28_nn_sf_sync_GetAndInvalidateENS0_3OutINS0_13SharedPointerIS7_EEvEE
 00000000:000000710005B550       _ZN2nn2sf4cmif6client6detail13CmifProxyImplINS_2am7service8IStorageENS2_19CmifDomainProxyKindINS0_4hipc6client38Hipc2ClientSessionManagedProxyKindBaseINSA_18Hipc2ProxyKindBaseILNS9_6detail11MessageTypeE6EEEEEEENS0_30MemoryResourceAllocationPolicyES7_NS3_19ProcessModifierImplINS2_21DefaultProxyFilterTagEEEE17GetCmifBaseObjectEv
 00000000:000000710005B560       _ZThn32_N2nn2sf4cmif6client6detail13CmifProxyImplINS_2am7service8IStorageENS2_19CmifDomainProxyKindINS0_4hipc6client38Hipc2ClientSessionManagedProxyKindBaseINSA_18Hipc2ProxyKindBaseILNS9_6detail11MessageTypeE6EEEEEEENS0_30MemoryResourceAllocationPolicyES7_NS3_19ProcessModifierImplINS2_21DefaultProxyFilterTagEEEE17GetCmifBaseObjectEv
 00000000:000000710005B570       _ZN2nn2sf4cmif6client6detail36GetClientProcessorImplWithObjectBaseINS2_19CmifDomainProxyKindINS0_4hipc6client38Hipc2ClientSessionManagedProxyKindBaseINS7_18Hipc2ProxyKindBaseILNS6_6detail11MessageTypeE6EEEEEEENS3_19ProcessModifierImplINS2_21DefaultProxyFilterTagEEEE14ObjectAssignerINS0_30MemoryResourceAllocationPolicyENS_14MemoryResourceEE14AllocateObjectINS_2am7service16IStorageAccessorEEEvi
 00000000:000000710005B620       _ZN2nn2sf6detail38ObjectImplFactoryWithStatefulAllocatorINS0_4cmif6client6detail9CmifProxyINS_2am7service16IStorageAccessorENS4_19CmifDomainProxyKindINS0_4hipc6client38Hipc2ClientSessionManagedProxyKindBaseINSC_18Hipc2ProxyKindBaseILNSB_6detail11MessageTypeE6EEEEEEENS0_30MemoryResourceAllocationPolicyENS5_19ProcessModifierImplINS4_21DefaultProxyFilterTagEEEvEESK_E6Object12AddReferenceEv
 00000000:000000710005B630       _ZN2nn2sf6detail38ObjectImplFactoryWithStatefulAllocatorINS0_4cmif6client6detail9CmifProxyINS_2am7service16IStorageAccessorENS4_19CmifDomainProxyKindINS0_4hipc6client38Hipc2ClientSessionManagedProxyKindBaseINSC_18Hipc2ProxyKindBaseILNSB_6detail11MessageTypeE6EEEEEEENS0_30MemoryResourceAllocationPolicyENS5_19ProcessModifierImplINS4_21DefaultProxyFilterTagEEEvEESK_E6Object7ReleaseEv
 00000000:000000710005B690       _ZN2nn2sf4cmif6client6detail13CmifProxyImplINS_2am7service16IStorageAccessorENS2_19CmifDomainProxyKindINS0_4hipc6client38Hipc2ClientSessionManagedProxyKindBaseINSA_18Hipc2ProxyKindBaseILNS9_6detail11MessageTypeE6EEEEEEENS0_30MemoryResourceAllocationPolicyES7_NS3_19ProcessModifierImplINS2_21DefaultProxyFilterTagEEEE12GetProxyInfoEv
 00000000:000000710005B6A0       _ZN2nn2sf4cmif6client6detail13CmifProxyImplINS_2am7service16IStorageAccessorENS2_19CmifDomainProxyKindINS0_4hipc6client38Hipc2ClientSessionManagedProxyKindBaseINSA_18Hipc2ProxyKindBaseILNS9_6detail11MessageTypeE6EEEEEEENS0_30MemoryResourceAllocationPolicyES7_NS3_19ProcessModifierImplINS2_21DefaultProxyFilterTagEEEE19_nn_sf_sync_GetSizeENS0_3OutIlvEE
 00000000:000000710005B6C0       _ZN2nn2sf4cmif6client6detail13CmifProxyImplINS_2am7service16IStorageAccessorENS2_19CmifDomainProxyKindINS0_4hipc6client38Hipc2ClientSessionManagedProxyKindBaseINSA_18Hipc2ProxyKindBaseILNS9_6detail11MessageTypeE6EEEEEEENS0_30MemoryResourceAllocationPolicyES7_NS3_19ProcessModifierImplINS2_21DefaultProxyFilterTagEEEE17_nn_sf_sync_WriteElRKNS0_8InBufferE
 00000000:000000710005B6F0       _ZN2nn2sf4cmif6client6detail13CmifProxyImplINS_2am7service16IStorageAccessorENS2_19CmifDomainProxyKindINS0_4hipc6client38Hipc2ClientSessionManagedProxyKindBaseINSA_18Hipc2ProxyKindBaseILNS9_6detail11MessageTypeE6EEEEEEENS0_30MemoryResourceAllocationPolicyES7_NS3_19ProcessModifierImplINS2_21DefaultProxyFilterTagEEEE16_nn_sf_sync_ReadElRKNS0_9OutBufferE
 00000000:000000710005B720       _ZN2nn2sf4cmif6client6detail13CmifProxyImplINS_2am7service16IStorageAccessorENS2_19CmifDomainProxyKindINS0_4hipc6client38Hipc2ClientSessionManagedProxyKindBaseINSA_18Hipc2ProxyKindBaseILNS9_6detail11MessageTypeE6EEEEEEENS0_30MemoryResourceAllocationPolicyES7_NS3_19ProcessModifierImplINS2_21DefaultProxyFilterTagEEEE17GetCmifBaseObjectEv
 00000000:000000710005B730       _ZThn32_N2nn2sf4cmif6client6detail13CmifProxyImplINS_2am7service16IStorageAccessorENS2_19CmifDomainProxyKindINS0_4hipc6client38Hipc2ClientSessionManagedProxyKindBaseINSA_18Hipc2ProxyKindBaseILNS9_6detail11MessageTypeE6EEEEEEENS0_30MemoryResourceAllocationPolicyES7_NS3_19ProcessModifierImplINS2_21DefaultProxyFilterTagEEEE17GetCmifBaseObjectEv
 00000000:000000710005B740       _ZN2nn2sf4cmif6client34CmifDomainProxyClientCoreProcessorINS0_4hipc6client38Hipc2ClientSessionManagedProxyKindBaseINS5_18Hipc2ProxyKindBaseILNS4_6detail11MessageTypeE6EEEEENS1_6detail14CoreMethodInfoINSt3__15tupleIJNSC_17InRawArgumentInfoILm8ELm8ELl0EEENSC_18BufferArgumentInfoILi0ELi33ELm0EEEEEELm8ELm0ELb0EEESK_E7ProcessEPNS2_23CmifDomainClientMessageISB_E15ProxyBaseObjectENS2_23InRawClientArgumentTypeILm8ELm8EvEENS2_24BufferClientArgumentTypeEj
 00000000:000000710005B930       _ZN2nn2sf4cmif6client34CmifDomainProxyClientCoreProcessorINS0_4hipc6client38Hipc2ClientSessionManagedProxyKindBaseINS5_18Hipc2ProxyKindBaseILNS4_6detail11MessageTypeE6EEEEENS1_6detail14CoreMethodInfoINSt3__15tupleIJNSC_17InRawArgumentInfoILm8ELm8ELl0EEENSC_18BufferArgumentInfoILi0ELi34ELm0EEEEEELm8ELm0ELb0EEESK_E7ProcessEPNS2_23CmifDomainClientMessageISB_E15ProxyBaseObjectENS2_23InRawClientArgumentTypeILm8ELm8EvEENS2_24BufferClientArgumentTypeEj
 00000000:000000710005BB20       _ZN2nn2sf4cmif6client6detail36GetClientProcessorImplWithObjectBaseINS2_19CmifDomainProxyKindINS0_4hipc6client38Hipc2ClientSessionManagedProxyKindBaseINS7_18Hipc2ProxyKindBaseILNS6_6detail11MessageTypeE6EEEEEEENS3_19ProcessModifierImplINS2_21DefaultProxyFilterTagEEEE14ObjectAssignerINS0_30MemoryResourceAllocationPolicyENS_14MemoryResourceEE14AllocateObjectINS_2am7service24ITransferStorageAccessorEEEvi
 00000000:000000710005BBD0       _ZN2nn2sf6detail38ObjectImplFactoryWithStatefulAllocatorINS0_4cmif6client6detail9CmifProxyINS_2am7service24ITransferStorageAccessorENS4_19CmifDomainProxyKindINS0_4hipc6client38Hipc2ClientSessionManagedProxyKindBaseINSC_18Hipc2ProxyKindBaseILNSB_6detail11MessageTypeE6EEEEEEENS0_30MemoryResourceAllocationPolicyENS5_19ProcessModifierImplINS4_21DefaultProxyFilterTagEEEvEESK_E6Object12AddReferenceEv
 00000000:000000710005BBE0       _ZN2nn2sf6detail38ObjectImplFactoryWithStatefulAllocatorINS0_4cmif6client6detail9CmifProxyINS_2am7service24ITransferStorageAccessorENS4_19CmifDomainProxyKindINS0_4hipc6client38Hipc2ClientSessionManagedProxyKindBaseINSC_18Hipc2ProxyKindBaseILNSB_6detail11MessageTypeE6EEEEEEENS0_30MemoryResourceAllocationPolicyENS5_19ProcessModifierImplINS4_21DefaultProxyFilterTagEEEvEESK_E6Object7ReleaseEv
 00000000:000000710005BC40       _ZN2nn2sf4cmif6client6detail13CmifProxyImplINS_2am7service24ITransferStorageAccessorENS2_19CmifDomainProxyKindINS0_4hipc6client38Hipc2ClientSessionManagedProxyKindBaseINSA_18Hipc2ProxyKindBaseILNS9_6detail11MessageTypeE6EEEEEEENS0_30MemoryResourceAllocationPolicyES7_NS3_19ProcessModifierImplINS2_21DefaultProxyFilterTagEEEE12GetProxyInfoEv
 00000000:000000710005BC50       _ZN2nn2sf4cmif6client6detail13CmifProxyImplINS_2am7service24ITransferStorageAccessorENS2_19CmifDomainProxyKindINS0_4hipc6client38Hipc2ClientSessionManagedProxyKindBaseINSA_18Hipc2ProxyKindBaseILNS9_6detail11MessageTypeE6EEEEEEENS0_30MemoryResourceAllocationPolicyES7_NS3_19ProcessModifierImplINS2_21DefaultProxyFilterTagEEEE19_nn_sf_sync_GetSizeENS0_3OutIlvEE
 00000000:000000710005BC70       _ZN2nn2sf4cmif6client6detail13CmifProxyImplINS_2am7service24ITransferStorageAccessorENS2_19CmifDomainProxyKindINS0_4hipc6client38Hipc2ClientSessionManagedProxyKindBaseINSA_18Hipc2ProxyKindBaseILNS9_6detail11MessageTypeE6EEEEEEENS0_30MemoryResourceAllocationPolicyES7_NS3_19ProcessModifierImplINS2_21DefaultProxyFilterTagEEEE21_nn_sf_sync_GetHandleENS0_3OutINS0_12NativeHandleEvEENSN_ImvEE
 00000000:000000710005BC90       _ZN2nn2sf4cmif6client6detail13CmifProxyImplINS_2am7service24ITransferStorageAccessorENS2_19CmifDomainProxyKindINS0_4hipc6client38Hipc2ClientSessionManagedProxyKindBaseINSA_18Hipc2ProxyKindBaseILNS9_6detail11MessageTypeE6EEEEEEENS0_30MemoryResourceAllocationPolicyES7_NS3_19ProcessModifierImplINS2_21DefaultProxyFilterTagEEEE17GetCmifBaseObjectEv
 00000000:000000710005BCA0       _ZThn32_N2nn2sf4cmif6client6detail13CmifProxyImplINS_2am7service24ITransferStorageAccessorENS2_19CmifDomainProxyKindINS0_4hipc6client38Hipc2ClientSessionManagedProxyKindBaseINSA_18Hipc2ProxyKindBaseILNS9_6detail11MessageTypeE6EEEEEEENS0_30MemoryResourceAllocationPolicyES7_NS3_19ProcessModifierImplINS2_21DefaultProxyFilterTagEEEE17GetCmifBaseObjectEv
 00000000:000000710005BCB0       _ZN2nn2sf4cmif6client34CmifDomainProxyClientCoreProcessorINS0_4hipc6client38Hipc2ClientSessionManagedProxyKindBaseINS5_18Hipc2ProxyKindBaseILNS4_6detail11MessageTypeE6EEEEENS1_6detail14CoreMethodInfoINSt3__15tupleIJNSC_21OutHandleArgumentInfoILi0ELi1EEENSC_18OutRawArgumentInfoILm8ELm8ELl0EEEEEELm0ELm8ELb0EEESK_E7ProcessEPNS2_23CmifDomainClientMessageISB_E15ProxyBaseObjectENS2_27OutHandleClientArgumentTypeENS2_24OutRawClientArgumentTypeILm8ELm8EEEj
 00000000:000000710005BE30       _ZN2nn2sf4cmif6client6detail36GetClientProcessorImplWithObjectBaseINS2_19CmifDomainProxyKindINS0_4hipc6client38Hipc2ClientSessionManagedProxyKindBaseINS7_18Hipc2ProxyKindBaseILNS6_6detail11MessageTypeE6EEEEEEENS3_19ProcessModifierImplINS2_21DefaultProxyFilterTagEEEE14ObjectAssignerINS0_30MemoryResourceAllocationPolicyENS_14MemoryResourceEE14AllocateObjectINS_2am7service17IWindowControllerEEEvi
 00000000:000000710005BEE0       _ZN2nn2sf6detail38ObjectImplFactoryWithStatefulAllocatorINS0_4cmif6client6detail9CmifProxyINS_2am7service17IWindowControllerENS4_19CmifDomainProxyKindINS0_4hipc6client38Hipc2ClientSessionManagedProxyKindBaseINSC_18Hipc2ProxyKindBaseILNSB_6detail11MessageTypeE6EEEEEEENS0_30MemoryResourceAllocationPolicyENS5_19ProcessModifierImplINS4_21DefaultProxyFilterTagEEEvEESK_E6Object12AddReferenceEv
 00000000:000000710005BEF0       _ZN2nn2sf6detail38ObjectImplFactoryWithStatefulAllocatorINS0_4cmif6client6detail9CmifProxyINS_2am7service17IWindowControllerENS4_19CmifDomainProxyKindINS0_4hipc6client38Hipc2ClientSessionManagedProxyKindBaseINSC_18Hipc2ProxyKindBaseILNSB_6detail11MessageTypeE6EEEEEEENS0_30MemoryResourceAllocationPolicyENS5_19ProcessModifierImplINS4_21DefaultProxyFilterTagEEEvEESK_E6Object7ReleaseEv
 00000000:000000710005BF50       _ZN2nn2sf4cmif6client6detail13CmifProxyImplINS_2am7service17IWindowControllerENS2_19CmifDomainProxyKindINS0_4hipc6client38Hipc2ClientSessionManagedProxyKindBaseINSA_18Hipc2ProxyKindBaseILNS9_6detail11MessageTypeE6EEEEEEENS0_30MemoryResourceAllocationPolicyES7_NS3_19ProcessModifierImplINS2_21DefaultProxyFilterTagEEEE12GetProxyInfoEv
 00000000:000000710005BF60       _ZN2nn2sf4cmif6client6detail13CmifProxyImplINS_2am7service17IWindowControllerENS2_19CmifDomainProxyKindINS0_4hipc6client38Hipc2ClientSessionManagedProxyKindBaseINSA_18Hipc2ProxyKindBaseILNS9_6detail11MessageTypeE6EEEEEEENS0_30MemoryResourceAllocationPolicyES7_NS3_19ProcessModifierImplINS2_21DefaultProxyFilterTagEEEE24_nn_sf_sync_CreateWindowENS0_3OutINS0_13SharedPointerINS6_7IWindowEEEvEENS6_20WindowCreationOptionE
 00000000:000000710005C010       _ZN2nn2sf4cmif6client6detail13CmifProxyImplINS_2am7service17IWindowControllerENS2_19CmifDomainProxyKindINS0_4hipc6client38Hipc2ClientSessionManagedProxyKindBaseINSA_18Hipc2ProxyKindBaseILNS9_6detail11MessageTypeE6EEEEEEENS0_30MemoryResourceAllocationPolicyES7_NS3_19ProcessModifierImplINS2_21DefaultProxyFilterTagEEEE35_nn_sf_sync_GetAppletResourceUserIdENS0_3OutINS_6applet20AppletResourceUserIdEvEE
 00000000:000000710005C030       _ZN2nn2sf4cmif6client6detail13CmifProxyImplINS_2am7service17IWindowControllerENS2_19CmifDomainProxyKindINS0_4hipc6client38Hipc2ClientSessionManagedProxyKindBaseINSA_18Hipc2ProxyKindBaseILNS9_6detail11MessageTypeE6EEEEEEENS0_30MemoryResourceAllocationPolicyES7_NS3_19ProcessModifierImplINS2_21DefaultProxyFilterTagEEEE49_nn_sf_sync_GetAppletResourceUserIdOfCallerAppletENS0_3OutINS_6applet20AppletResourceUserIdEvEE
 00000000:000000710005C050       _ZN2nn2sf4cmif6client6detail13CmifProxyImplINS_2am7service17IWindowControllerENS2_19CmifDomainProxyKindINS0_4hipc6client38Hipc2ClientSessionManagedProxyKindBaseINSA_18Hipc2ProxyKindBaseILNS9_6detail11MessageTypeE6EEEEEEENS0_30MemoryResourceAllocationPolicyES7_NS3_19ProcessModifierImplINS2_21DefaultProxyFilterTagEEEE35_nn_sf_sync_AcquireForegroundRightsEv
 00000000:000000710005C070       _ZN2nn2sf4cmif6client6detail13CmifProxyImplINS_2am7service17IWindowControllerENS2_19CmifDomainProxyKindINS0_4hipc6client38Hipc2ClientSessionManagedProxyKindBaseINSA_18Hipc2ProxyKindBaseILNS9_6detail11MessageTypeE6EEEEEEENS0_30MemoryResourceAllocationPolicyES7_NS3_19ProcessModifierImplINS2_21DefaultProxyFilterTagEEEE35_nn_sf_sync_ReleaseForegroundRightsEv
 00000000:000000710005C090       _ZN2nn2sf4cmif6client6detail13CmifProxyImplINS_2am7service17IWindowControllerENS2_19CmifDomainProxyKindINS0_4hipc6client38Hipc2ClientSessionManagedProxyKindBaseINSA_18Hipc2ProxyKindBaseILNS9_6detail11MessageTypeE6EEEEEEENS0_30MemoryResourceAllocationPolicyES7_NS3_19ProcessModifierImplINS2_21DefaultProxyFilterTagEEEE40_nn_sf_sync_RejectToChangeIntoBackgroundEv
 00000000:000000710005C0B0       _ZN2nn2sf4cmif6client6detail13CmifProxyImplINS_2am7service17IWindowControllerENS2_19CmifDomainProxyKindINS0_4hipc6client38Hipc2ClientSessionManagedProxyKindBaseINSA_18Hipc2ProxyKindBaseILNS9_6detail11MessageTypeE6EEEEEEENS0_30MemoryResourceAllocationPolicyES7_NS3_19ProcessModifierImplINS2_21DefaultProxyFilterTagEEEE37_nn_sf_sync_SetAppletWindowVisibilityEb
 00000000:000000710005C0E0       _ZN2nn2sf4cmif6client6detail13CmifProxyImplINS_2am7service17IWindowControllerENS2_19CmifDomainProxyKindINS0_4hipc6client38Hipc2ClientSessionManagedProxyKindBaseINSA_18Hipc2ProxyKindBaseILNS9_6detail11MessageTypeE6EEEEEEENS0_30MemoryResourceAllocationPolicyES7_NS3_19ProcessModifierImplINS2_21DefaultProxyFilterTagEEEE33_nn_sf_sync_SetAppletGpuTimeSliceEl
 00000000:000000710005C100       _ZN2nn2sf4cmif6client6detail13CmifProxyImplINS_2am7service17IWindowControllerENS2_19CmifDomainProxyKindINS0_4hipc6client38Hipc2ClientSessionManagedProxyKindBaseINSA_18Hipc2ProxyKindBaseILNS9_6detail11MessageTypeE6EEEEEEENS0_30MemoryResourceAllocationPolicyES7_NS3_19ProcessModifierImplINS2_21DefaultProxyFilterTagEEEE17GetCmifBaseObjectEv
 00000000:000000710005C110       _ZThn32_N2nn2sf4cmif6client6detail13CmifProxyImplINS_2am7service17IWindowControllerENS2_19CmifDomainProxyKindINS0_4hipc6client38Hipc2ClientSessionManagedProxyKindBaseINSA_18Hipc2ProxyKindBaseILNS9_6detail11MessageTypeE6EEEEEEENS0_30MemoryResourceAllocationPolicyES7_NS3_19ProcessModifierImplINS2_21DefaultProxyFilterTagEEEE17GetCmifBaseObjectEv
 00000000:000000710005C120       _ZN2nn2sf4cmif6client6detail36GetClientProcessorImplWithObjectBaseINS2_19CmifDomainProxyKindINS0_4hipc6client38Hipc2ClientSessionManagedProxyKindBaseINS7_18Hipc2ProxyKindBaseILNS6_6detail11MessageTypeE6EEEEEEENS3_19ProcessModifierImplINS2_21DefaultProxyFilterTagEEEE14ObjectAssignerINS0_30MemoryResourceAllocationPolicyENS_14MemoryResourceEE14AllocateObjectINS_2am7service7IWindowEEEvi
 00000000:000000710005C1D0       _ZN2nn2sf6detail38ObjectImplFactoryWithStatefulAllocatorINS0_4cmif6client6detail9CmifProxyINS_2am7service7IWindowENS4_19CmifDomainProxyKindINS0_4hipc6client38Hipc2ClientSessionManagedProxyKindBaseINSC_18Hipc2ProxyKindBaseILNSB_6detail11MessageTypeE6EEEEEEENS0_30MemoryResourceAllocationPolicyENS5_19ProcessModifierImplINS4_21DefaultProxyFilterTagEEEvEESK_E6Object12AddReferenceEv
 00000000:000000710005C1E0       _ZN2nn2sf6detail38ObjectImplFactoryWithStatefulAllocatorINS0_4cmif6client6detail9CmifProxyINS_2am7service7IWindowENS4_19CmifDomainProxyKindINS0_4hipc6client38Hipc2ClientSessionManagedProxyKindBaseINSC_18Hipc2ProxyKindBaseILNSB_6detail11MessageTypeE6EEEEEEENS0_30MemoryResourceAllocationPolicyENS5_19ProcessModifierImplINS4_21DefaultProxyFilterTagEEEvEESK_E6Object7ReleaseEv
 00000000:000000710005C240       _ZN2nn2sf4cmif6client6detail13CmifProxyImplINS_2am7service7IWindowENS2_19CmifDomainProxyKindINS0_4hipc6client38Hipc2ClientSessionManagedProxyKindBaseINSA_18Hipc2ProxyKindBaseILNS9_6detail11MessageTypeE6EEEEEEENS0_30MemoryResourceAllocationPolicyES7_NS3_19ProcessModifierImplINS2_21DefaultProxyFilterTagEEEE12GetProxyInfoEv
 00000000:000000710005C250       _ZN2nn2sf4cmif6client6detail13CmifProxyImplINS_2am7service7IWindowENS2_19CmifDomainProxyKindINS0_4hipc6client38Hipc2ClientSessionManagedProxyKindBaseINSA_18Hipc2ProxyKindBaseILNS9_6detail11MessageTypeE6EEEEEEENS0_30MemoryResourceAllocationPolicyES7_NS3_19ProcessModifierImplINS2_21DefaultProxyFilterTagEEEE17GetCmifBaseObjectEv
 00000000:000000710005C260       _ZThn32_N2nn2sf4cmif6client6detail13CmifProxyImplINS_2am7service7IWindowENS2_19CmifDomainProxyKindINS0_4hipc6client38Hipc2ClientSessionManagedProxyKindBaseINSA_18Hipc2ProxyKindBaseILNS9_6detail11MessageTypeE6EEEEEEENS0_30MemoryResourceAllocationPolicyES7_NS3_19ProcessModifierImplINS2_21DefaultProxyFilterTagEEEE17GetCmifBaseObjectEv
 00000000:000000710005C270       _ZN2nn2sf4cmif6client6detail36GetClientProcessorImplWithObjectBaseINS2_19CmifDomainProxyKindINS0_4hipc6client38Hipc2ClientSessionManagedProxyKindBaseINS7_18Hipc2ProxyKindBaseILNS6_6detail11MessageTypeE6EEEEEEENS3_19ProcessModifierImplINS2_21DefaultProxyFilterTagEEEE14ObjectAssignerINS0_30MemoryResourceAllocationPolicyENS_14MemoryResourceEE14AllocateObjectINS_2am7service16IAudioControllerEEEvi
 00000000:000000710005C320       _ZN2nn2sf6detail38ObjectImplFactoryWithStatefulAllocatorINS0_4cmif6client6detail9CmifProxyINS_2am7service16IAudioControllerENS4_19CmifDomainProxyKindINS0_4hipc6client38Hipc2ClientSessionManagedProxyKindBaseINSC_18Hipc2ProxyKindBaseILNSB_6detail11MessageTypeE6EEEEEEENS0_30MemoryResourceAllocationPolicyENS5_19ProcessModifierImplINS4_21DefaultProxyFilterTagEEEvEESK_E6Object12AddReferenceEv
 00000000:000000710005C330       _ZN2nn2sf6detail38ObjectImplFactoryWithStatefulAllocatorINS0_4cmif6client6detail9CmifProxyINS_2am7service16IAudioControllerENS4_19CmifDomainProxyKindINS0_4hipc6client38Hipc2ClientSessionManagedProxyKindBaseINSC_18Hipc2ProxyKindBaseILNSB_6detail11MessageTypeE6EEEEEEENS0_30MemoryResourceAllocationPolicyENS5_19ProcessModifierImplINS4_21DefaultProxyFilterTagEEEvEESK_E6Object7ReleaseEv
 00000000:000000710005C390       _ZN2nn2sf4cmif6client6detail13CmifProxyImplINS_2am7service16IAudioControllerENS2_19CmifDomainProxyKindINS0_4hipc6client38Hipc2ClientSessionManagedProxyKindBaseINSA_18Hipc2ProxyKindBaseILNS9_6detail11MessageTypeE6EEEEEEENS0_30MemoryResourceAllocationPolicyES7_NS3_19ProcessModifierImplINS2_21DefaultProxyFilterTagEEEE12GetProxyInfoEv
 00000000:000000710005C3A0       _ZN2nn2sf4cmif6client6detail13CmifProxyImplINS_2am7service16IAudioControllerENS2_19CmifDomainProxyKindINS0_4hipc6client38Hipc2ClientSessionManagedProxyKindBaseINSA_18Hipc2ProxyKindBaseILNS9_6detail11MessageTypeE6EEEEEEENS0_30MemoryResourceAllocationPolicyES7_NS3_19ProcessModifierImplINS2_21DefaultProxyFilterTagEEEE35_nn_sf_sync_SetExpectedMasterVolumeEff
 00000000:000000710005C3D0       _ZN2nn2sf4cmif6client6detail13CmifProxyImplINS_2am7service16IAudioControllerENS2_19CmifDomainProxyKindINS0_4hipc6client38Hipc2ClientSessionManagedProxyKindBaseINSA_18Hipc2ProxyKindBaseILNS9_6detail11MessageTypeE6EEEEEEENS0_30MemoryResourceAllocationPolicyES7_NS3_19ProcessModifierImplINS2_21DefaultProxyFilterTagEEEE45_nn_sf_sync_GetMainAppletExpectedMasterVolumeENS0_3OutIfvEE
 00000000:000000710005C3F0       _ZN2nn2sf4cmif6client6detail13CmifProxyImplINS_2am7service16IAudioControllerENS2_19CmifDomainProxyKindINS0_4hipc6client38Hipc2ClientSessionManagedProxyKindBaseINSA_18Hipc2ProxyKindBaseILNS9_6detail11MessageTypeE6EEEEEEENS0_30MemoryResourceAllocationPolicyES7_NS3_19ProcessModifierImplINS2_21DefaultProxyFilterTagEEEE48_nn_sf_sync_GetLibraryAppletExpectedMasterVolumeENS0_3OutIfvEE
 00000000:000000710005C410       _ZN2nn2sf4cmif6client6detail13CmifProxyImplINS_2am7service16IAudioControllerENS2_19CmifDomainProxyKindINS0_4hipc6client38Hipc2ClientSessionManagedProxyKindBaseINSA_18Hipc2ProxyKindBaseILNS9_6detail11MessageTypeE6EEEEEEENS0_30MemoryResourceAllocationPolicyES7_NS3_19ProcessModifierImplINS2_21DefaultProxyFilterTagEEEE40_nn_sf_sync_ChangeMainAppletMasterVolumeEfl
 00000000:000000710005C440       _ZN2nn2sf4cmif6client6detail13CmifProxyImplINS_2am7service16IAudioControllerENS2_19CmifDomainProxyKindINS0_4hipc6client38Hipc2ClientSessionManagedProxyKindBaseINSA_18Hipc2ProxyKindBaseILNS9_6detail11MessageTypeE6EEEEEEENS0_30MemoryResourceAllocationPolicyES7_NS3_19ProcessModifierImplINS2_21DefaultProxyFilterTagEEEE36_nn_sf_sync_SetTransparentVolumeRateEf
 00000000:000000710005C470       _ZN2nn2sf4cmif6client6detail13CmifProxyImplINS_2am7service16IAudioControllerENS2_19CmifDomainProxyKindINS0_4hipc6client38Hipc2ClientSessionManagedProxyKindBaseINSA_18Hipc2ProxyKindBaseILNS9_6detail11MessageTypeE6EEEEEEENS0_30MemoryResourceAllocationPolicyES7_NS3_19ProcessModifierImplINS2_21DefaultProxyFilterTagEEEE17GetCmifBaseObjectEv
 00000000:000000710005C480       _ZThn32_N2nn2sf4cmif6client6detail13CmifProxyImplINS_2am7service16IAudioControllerENS2_19CmifDomainProxyKindINS0_4hipc6client38Hipc2ClientSessionManagedProxyKindBaseINSA_18Hipc2ProxyKindBaseILNS9_6detail11MessageTypeE6EEEEEEENS0_30MemoryResourceAllocationPolicyES7_NS3_19ProcessModifierImplINS2_21DefaultProxyFilterTagEEEE17GetCmifBaseObjectEv
 00000000:000000710005C490       _ZN2nn2sf4cmif6client34CmifDomainProxyClientCoreProcessorINS0_4hipc6client38Hipc2ClientSessionManagedProxyKindBaseINS5_18Hipc2ProxyKindBaseILNS4_6detail11MessageTypeE6EEEEENS1_6detail14CoreMethodInfoINSt3__15tupleIJNSC_17InRawArgumentInfoILm4ELm4ELl0EEENSG_ILm4ELm4ELl4EEEEEELm8ELm0ELb0EEESJ_E7ProcessEPNS2_23CmifDomainClientMessageISB_E15ProxyBaseObjectENS2_23InRawClientArgumentTypeILm4ELm4EvEESR_j
 00000000:000000710005C5E0       _ZN2nn2sf4cmif6client6detail36GetClientProcessorImplWithObjectBaseINS2_19CmifDomainProxyKindINS0_4hipc6client38Hipc2ClientSessionManagedProxyKindBaseINS7_18Hipc2ProxyKindBaseILNS6_6detail11MessageTypeE6EEEEEEENS3_19ProcessModifierImplINS2_21DefaultProxyFilterTagEEEE14ObjectAssignerINS0_30MemoryResourceAllocationPolicyENS_14MemoryResourceEE14AllocateObjectINS_2am7service18IDisplayControllerEEEvi
 00000000:000000710005C690       _ZN2nn2sf6detail38ObjectImplFactoryWithStatefulAllocatorINS0_4cmif6client6detail9CmifProxyINS_2am7service18IDisplayControllerENS4_19CmifDomainProxyKindINS0_4hipc6client38Hipc2ClientSessionManagedProxyKindBaseINSC_18Hipc2ProxyKindBaseILNSB_6detail11MessageTypeE6EEEEEEENS0_30MemoryResourceAllocationPolicyENS5_19ProcessModifierImplINS4_21DefaultProxyFilterTagEEEvEESK_E6Object12AddReferenceEv
 00000000:000000710005C6A0       _ZN2nn2sf6detail38ObjectImplFactoryWithStatefulAllocatorINS0_4cmif6client6detail9CmifProxyINS_2am7service18IDisplayControllerENS4_19CmifDomainProxyKindINS0_4hipc6client38Hipc2ClientSessionManagedProxyKindBaseINSC_18Hipc2ProxyKindBaseILNSB_6detail11MessageTypeE6EEEEEEENS0_30MemoryResourceAllocationPolicyENS5_19ProcessModifierImplINS4_21DefaultProxyFilterTagEEEvEESK_E6Object7ReleaseEv
 00000000:000000710005C700       _ZN2nn2sf4cmif6client6detail13CmifProxyImplINS_2am7service18IDisplayControllerENS2_19CmifDomainProxyKindINS0_4hipc6client38Hipc2ClientSessionManagedProxyKindBaseINSA_18Hipc2ProxyKindBaseILNS9_6detail11MessageTypeE6EEEEEEENS0_30MemoryResourceAllocationPolicyES7_NS3_19ProcessModifierImplINS2_21DefaultProxyFilterTagEEEE12GetProxyInfoEv
 00000000:000000710005C710       _ZN2nn2sf4cmif6client6detail13CmifProxyImplINS_2am7service18IDisplayControllerENS2_19CmifDomainProxyKindINS0_4hipc6client38Hipc2ClientSessionManagedProxyKindBaseINSA_18Hipc2ProxyKindBaseILNS9_6detail11MessageTypeE6EEEEEEENS0_30MemoryResourceAllocationPolicyES7_NS3_19ProcessModifierImplINS2_21DefaultProxyFilterTagEEEE41_nn_sf_sync_GetLastForegroundCaptureImageERKNS0_9OutBufferE
 00000000:000000710005C740       _ZN2nn2sf4cmif6client6detail13CmifProxyImplINS_2am7service18IDisplayControllerENS2_19CmifDomainProxyKindINS0_4hipc6client38Hipc2ClientSessionManagedProxyKindBaseINSA_18Hipc2ProxyKindBaseILNS9_6detail11MessageTypeE6EEEEEEENS0_30MemoryResourceAllocationPolicyES7_NS3_19ProcessModifierImplINS2_21DefaultProxyFilterTagEEEE44_nn_sf_sync_UpdateLastForegroundCaptureImageEv
 00000000:000000710005C760       _ZN2nn2sf4cmif6client6detail13CmifProxyImplINS_2am7service18IDisplayControllerENS2_19CmifDomainProxyKindINS0_4hipc6client38Hipc2ClientSessionManagedProxyKindBaseINSA_18Hipc2ProxyKindBaseILNS9_6detail11MessageTypeE6EEEEEEENS0_30MemoryResourceAllocationPolicyES7_NS3_19ProcessModifierImplINS2_21DefaultProxyFilterTagEEEE42_nn_sf_sync_GetLastApplicationCaptureImageERKNS0_9OutBufferE
 00000000:000000710005C790       _ZN2nn2sf4cmif6client6detail13CmifProxyImplINS_2am7service18IDisplayControllerENS2_19CmifDomainProxyKindINS0_4hipc6client38Hipc2ClientSessionManagedProxyKindBaseINSA_18Hipc2ProxyKindBaseILNS9_6detail11MessageTypeE6EEEEEEENS0_30MemoryResourceAllocationPolicyES7_NS3_19ProcessModifierImplINS2_21DefaultProxyFilterTagEEEE39_nn_sf_sync_GetCallerAppletCaptureImageERKNS0_9OutBufferE
 00000000:000000710005C7C0       _ZN2nn2sf4cmif6client6detail13CmifProxyImplINS_2am7service18IDisplayControllerENS2_19CmifDomainProxyKindINS0_4hipc6client38Hipc2ClientSessionManagedProxyKindBaseINSA_18Hipc2ProxyKindBaseILNS9_6detail11MessageTypeE6EEEEEEENS0_30MemoryResourceAllocationPolicyES7_NS3_19ProcessModifierImplINS2_21DefaultProxyFilterTagEEEE42_nn_sf_sync_UpdateCallerAppletCaptureImageEv
 00000000:000000710005C7E0       _ZN2nn2sf4cmif6client6detail13CmifProxyImplINS_2am7service18IDisplayControllerENS2_19CmifDomainProxyKindINS0_4hipc6client38Hipc2ClientSessionManagedProxyKindBaseINSA_18Hipc2ProxyKindBaseILNS9_6detail11MessageTypeE6EEEEEEENS0_30MemoryResourceAllocationPolicyES7_NS3_19ProcessModifierImplINS2_21DefaultProxyFilterTagEEEE43_nn_sf_sync_GetLastForegroundCaptureImageExENS0_3OutIbvEERKNS0_9OutBufferE
 00000000:000000710005C810       _ZN2nn2sf4cmif6client6detail13CmifProxyImplINS_2am7service18IDisplayControllerENS2_19CmifDomainProxyKindINS0_4hipc6client38Hipc2ClientSessionManagedProxyKindBaseINSA_18Hipc2ProxyKindBaseILNS9_6detail11MessageTypeE6EEEEEEENS0_30MemoryResourceAllocationPolicyES7_NS3_19ProcessModifierImplINS2_21DefaultProxyFilterTagEEEE44_nn_sf_sync_GetLastApplicationCaptureImageExENS0_3OutIbvEERKNS0_9OutBufferE
 00000000:000000710005C840       _ZN2nn2sf4cmif6client6detail13CmifProxyImplINS_2am7service18IDisplayControllerENS2_19CmifDomainProxyKindINS0_4hipc6client38Hipc2ClientSessionManagedProxyKindBaseINSA_18Hipc2ProxyKindBaseILNS9_6detail11MessageTypeE6EEEEEEENS0_30MemoryResourceAllocationPolicyES7_NS3_19ProcessModifierImplINS2_21DefaultProxyFilterTagEEEE41_nn_sf_sync_GetCallerAppletCaptureImageExENS0_3OutIbvEERKNS0_9OutBufferE
 00000000:000000710005C870       _ZN2nn2sf4cmif6client6detail13CmifProxyImplINS_2am7service18IDisplayControllerENS2_19CmifDomainProxyKindINS0_4hipc6client38Hipc2ClientSessionManagedProxyKindBaseINSA_18Hipc2ProxyKindBaseILNS9_6detail11MessageTypeE6EEEEEEENS0_30MemoryResourceAllocationPolicyES7_NS3_19ProcessModifierImplINS2_21DefaultProxyFilterTagEEEE36_nn_sf_sync_TakeScreenShotOfOwnLayerEib
 00000000:000000710005C8A0       _ZN2nn2sf4cmif6client6detail13CmifProxyImplINS_2am7service18IDisplayControllerENS2_19CmifDomainProxyKindINS0_4hipc6client38Hipc2ClientSessionManagedProxyKindBaseINSA_18Hipc2ProxyKindBaseILNS9_6detail11MessageTypeE6EEEEEEENS0_30MemoryResourceAllocationPolicyES7_NS3_19ProcessModifierImplINS2_21DefaultProxyFilterTagEEEE37_nn_sf_sync_CopyBetweenCaptureBuffersEii
 00000000:000000710005C8D0       _ZN2nn2sf4cmif6client6detail13CmifProxyImplINS_2am7service18IDisplayControllerENS2_19CmifDomainProxyKindINS0_4hipc6client38Hipc2ClientSessionManagedProxyKindBaseINSA_18Hipc2ProxyKindBaseILNS9_6detail11MessageTypeE6EEEEEEENS0_30MemoryResourceAllocationPolicyES7_NS3_19ProcessModifierImplINS2_21DefaultProxyFilterTagEEEE47_nn_sf_sync_AcquireLastApplicationCaptureBufferENS0_3OutINS0_12NativeHandleEvEE
 00000000:000000710005C8F0       _ZN2nn2sf4cmif6client6detail13CmifProxyImplINS_2am7service18IDisplayControllerENS2_19CmifDomainProxyKindINS0_4hipc6client38Hipc2ClientSessionManagedProxyKindBaseINSA_18Hipc2ProxyKindBaseILNS9_6detail11MessageTypeE6EEEEEEENS0_30MemoryResourceAllocationPolicyES7_NS3_19ProcessModifierImplINS2_21DefaultProxyFilterTagEEEE47_nn_sf_sync_ReleaseLastApplicationCaptureBufferEv
 00000000:000000710005C910       _ZN2nn2sf4cmif6client6detail13CmifProxyImplINS_2am7service18IDisplayControllerENS2_19CmifDomainProxyKindINS0_4hipc6client38Hipc2ClientSessionManagedProxyKindBaseINSA_18Hipc2ProxyKindBaseILNS9_6detail11MessageTypeE6EEEEEEENS0_30MemoryResourceAllocationPolicyES7_NS3_19ProcessModifierImplINS2_21DefaultProxyFilterTagEEEE46_nn_sf_sync_AcquireLastForegroundCaptureBufferENS0_3OutINS0_12NativeHandleEvEE
 00000000:000000710005C930       _ZN2nn2sf4cmif6client6detail13CmifProxyImplINS_2am7service18IDisplayControllerENS2_19CmifDomainProxyKindINS0_4hipc6client38Hipc2ClientSessionManagedProxyKindBaseINSA_18Hipc2ProxyKindBaseILNS9_6detail11MessageTypeE6EEEEEEENS0_30MemoryResourceAllocationPolicyES7_NS3_19ProcessModifierImplINS2_21DefaultProxyFilterTagEEEE46_nn_sf_sync_ReleaseLastForegroundCaptureBufferEv
 00000000:000000710005C950       _ZN2nn2sf4cmif6client6detail13CmifProxyImplINS_2am7service18IDisplayControllerENS2_19CmifDomainProxyKindINS0_4hipc6client38Hipc2ClientSessionManagedProxyKindBaseINSA_18Hipc2ProxyKindBaseILNS9_6detail11MessageTypeE6EEEEEEENS0_30MemoryResourceAllocationPolicyES7_NS3_19ProcessModifierImplINS2_21DefaultProxyFilterTagEEEE44_nn_sf_sync_AcquireCallerAppletCaptureBufferENS0_3OutINS0_12NativeHandleEvEE
 00000000:000000710005C970       _ZN2nn2sf4cmif6client6detail13CmifProxyImplINS_2am7service18IDisplayControllerENS2_19CmifDomainProxyKindINS0_4hipc6client38Hipc2ClientSessionManagedProxyKindBaseINSA_18Hipc2ProxyKindBaseILNS9_6detail11MessageTypeE6EEEEEEENS0_30MemoryResourceAllocationPolicyES7_NS3_19ProcessModifierImplINS2_21DefaultProxyFilterTagEEEE44_nn_sf_sync_ReleaseCallerAppletCaptureBufferEv
 00000000:000000710005C990       _ZN2nn2sf4cmif6client6detail13CmifProxyImplINS_2am7service18IDisplayControllerENS2_19CmifDomainProxyKindINS0_4hipc6client38Hipc2ClientSessionManagedProxyKindBaseINSA_18Hipc2ProxyKindBaseILNS9_6detail11MessageTypeE6EEEEEEENS0_30MemoryResourceAllocationPolicyES7_NS3_19ProcessModifierImplINS2_21DefaultProxyFilterTagEEEE49_nn_sf_sync_AcquireLastApplicationCaptureBufferExENS0_3OutIbvEENSN_INS0_12NativeHandleEvEE
 00000000:000000710005C9B0       _ZN2nn2sf4cmif6client6detail13CmifProxyImplINS_2am7service18IDisplayControllerENS2_19CmifDomainProxyKindINS0_4hipc6client38Hipc2ClientSessionManagedProxyKindBaseINSA_18Hipc2ProxyKindBaseILNS9_6detail11MessageTypeE6EEEEEEENS0_30MemoryResourceAllocationPolicyES7_NS3_19ProcessModifierImplINS2_21DefaultProxyFilterTagEEEE48_nn_sf_sync_AcquireLastForegroundCaptureBufferExENS0_3OutIbvEENSN_INS0_12NativeHandleEvEE
 00000000:000000710005C9D0       _ZN2nn2sf4cmif6client6detail13CmifProxyImplINS_2am7service18IDisplayControllerENS2_19CmifDomainProxyKindINS0_4hipc6client38Hipc2ClientSessionManagedProxyKindBaseINSA_18Hipc2ProxyKindBaseILNS9_6detail11MessageTypeE6EEEEEEENS0_30MemoryResourceAllocationPolicyES7_NS3_19ProcessModifierImplINS2_21DefaultProxyFilterTagEEEE46_nn_sf_sync_AcquireCallerAppletCaptureBufferExENS0_3OutIbvEENSN_INS0_12NativeHandleEvEE
 00000000:000000710005C9F0       _ZN2nn2sf4cmif6client6detail13CmifProxyImplINS_2am7service18IDisplayControllerENS2_19CmifDomainProxyKindINS0_4hipc6client38Hipc2ClientSessionManagedProxyKindBaseINSA_18Hipc2ProxyKindBaseILNS9_6detail11MessageTypeE6EEEEEEENS0_30MemoryResourceAllocationPolicyES7_NS3_19ProcessModifierImplINS2_21DefaultProxyFilterTagEEEE30_nn_sf_sync_ClearCaptureBufferEibj
 00000000:000000710005CA20       _ZN2nn2sf4cmif6client6detail13CmifProxyImplINS_2am7service18IDisplayControllerENS2_19CmifDomainProxyKindINS0_4hipc6client38Hipc2ClientSessionManagedProxyKindBaseINSA_18Hipc2ProxyKindBaseILNS9_6detail11MessageTypeE6EEEEEEENS0_30MemoryResourceAllocationPolicyES7_NS3_19ProcessModifierImplINS2_21DefaultProxyFilterTagEEEE39_nn_sf_sync_ClearAppletTransitionBufferEj
 00000000:000000710005CA50       _ZN2nn2sf4cmif6client6detail13CmifProxyImplINS_2am7service18IDisplayControllerENS2_19CmifDomainProxyKindINS0_4hipc6client38Hipc2ClientSessionManagedProxyKindBaseINSA_18Hipc2ProxyKindBaseILNS9_6detail11MessageTypeE6EEEEEEENS0_30MemoryResourceAllocationPolicyES7_NS3_19ProcessModifierImplINS2_21DefaultProxyFilterTagEEEE53_nn_sf_sync_AcquireLastApplicationCaptureSharedBufferENS0_3OutIbvEENSN_IivEE
 00000000:000000710005CA70       _ZN2nn2sf4cmif6client6detail13CmifProxyImplINS_2am7service18IDisplayControllerENS2_19CmifDomainProxyKindINS0_4hipc6client38Hipc2ClientSessionManagedProxyKindBaseINSA_18Hipc2ProxyKindBaseILNS9_6detail11MessageTypeE6EEEEEEENS0_30MemoryResourceAllocationPolicyES7_NS3_19ProcessModifierImplINS2_21DefaultProxyFilterTagEEEE53_nn_sf_sync_ReleaseLastApplicationCaptureSharedBufferEv
 00000000:000000710005CA90       _ZN2nn2sf4cmif6client6detail13CmifProxyImplINS_2am7service18IDisplayControllerENS2_19CmifDomainProxyKindINS0_4hipc6client38Hipc2ClientSessionManagedProxyKindBaseINSA_18Hipc2ProxyKindBaseILNS9_6detail11MessageTypeE6EEEEEEENS0_30MemoryResourceAllocationPolicyES7_NS3_19ProcessModifierImplINS2_21DefaultProxyFilterTagEEEE52_nn_sf_sync_AcquireLastForegroundCaptureSharedBufferENS0_3OutIbvEENSN_IivEE
 00000000:000000710005CAB0       _ZN2nn2sf4cmif6client6detail13CmifProxyImplINS_2am7service18IDisplayControllerENS2_19CmifDomainProxyKindINS0_4hipc6client38Hipc2ClientSessionManagedProxyKindBaseINSA_18Hipc2ProxyKindBaseILNS9_6detail11MessageTypeE6EEEEEEENS0_30MemoryResourceAllocationPolicyES7_NS3_19ProcessModifierImplINS2_21DefaultProxyFilterTagEEEE52_nn_sf_sync_ReleaseLastForegroundCaptureSharedBufferEv
 00000000:000000710005CAD0       _ZN2nn2sf4cmif6client6detail13CmifProxyImplINS_2am7service18IDisplayControllerENS2_19CmifDomainProxyKindINS0_4hipc6client38Hipc2ClientSessionManagedProxyKindBaseINSA_18Hipc2ProxyKindBaseILNS9_6detail11MessageTypeE6EEEEEEENS0_30MemoryResourceAllocationPolicyES7_NS3_19ProcessModifierImplINS2_21DefaultProxyFilterTagEEEE50_nn_sf_sync_AcquireCallerAppletCaptureSharedBufferENS0_3OutIbvEENSN_IivEE
 00000000:000000710005CAF0       _ZN2nn2sf4cmif6client6detail13CmifProxyImplINS_2am7service18IDisplayControllerENS2_19CmifDomainProxyKindINS0_4hipc6client38Hipc2ClientSessionManagedProxyKindBaseINSA_18Hipc2ProxyKindBaseILNS9_6detail11MessageTypeE6EEEEEEENS0_30MemoryResourceAllocationPolicyES7_NS3_19ProcessModifierImplINS2_21DefaultProxyFilterTagEEEE50_nn_sf_sync_ReleaseCallerAppletCaptureSharedBufferEv
 00000000:000000710005CB10       _ZN2nn2sf4cmif6client6detail13CmifProxyImplINS_2am7service18IDisplayControllerENS2_19CmifDomainProxyKindINS0_4hipc6client38Hipc2ClientSessionManagedProxyKindBaseINSA_18Hipc2ProxyKindBaseILNS9_6detail11MessageTypeE6EEEEEEENS0_30MemoryResourceAllocationPolicyES7_NS3_19ProcessModifierImplINS2_21DefaultProxyFilterTagEEEE38_nn_sf_sync_TakeScreenShotOfOwnLayerExEibb
 00000000:000000710005CB40       _ZN2nn2sf4cmif6client6detail13CmifProxyImplINS_2am7service18IDisplayControllerENS2_19CmifDomainProxyKindINS0_4hipc6client38Hipc2ClientSessionManagedProxyKindBaseINSA_18Hipc2ProxyKindBaseILNS9_6detail11MessageTypeE6EEEEEEENS0_30MemoryResourceAllocationPolicyES7_NS3_19ProcessModifierImplINS2_21DefaultProxyFilterTagEEEE17GetCmifBaseObjectEv
 00000000:000000710005CB50       _ZThn32_N2nn2sf4cmif6client6detail13CmifProxyImplINS_2am7service18IDisplayControllerENS2_19CmifDomainProxyKindINS0_4hipc6client38Hipc2ClientSessionManagedProxyKindBaseINSA_18Hipc2ProxyKindBaseILNS9_6detail11MessageTypeE6EEEEEEENS0_30MemoryResourceAllocationPolicyES7_NS3_19ProcessModifierImplINS2_21DefaultProxyFilterTagEEEE17GetCmifBaseObjectEv
 00000000:000000710005CB60       _ZN2nn2sf4cmif6client34CmifDomainProxyClientCoreProcessorINS0_4hipc6client38Hipc2ClientSessionManagedProxyKindBaseINS5_18Hipc2ProxyKindBaseILNS4_6detail11MessageTypeE6EEEEENS1_6detail14CoreMethodInfoINSt3__15tupleIJNSC_18OutRawArgumentInfoILm1ELm1ELl0EEENSC_18BufferArgumentInfoILi0ELi6ELm0EEEEEELm0ELm1ELb0EEESK_E7ProcessEPNS2_23CmifDomainClientMessageISB_E15ProxyBaseObjectENS2_24OutRawClientArgumentTypeILm1ELm1EEENS2_24BufferClientArgumentTypeEj
 00000000:000000710005CD80       _ZN2nn2sf4cmif6client34CmifDomainProxyClientCoreProcessorINS0_4hipc6client38Hipc2ClientSessionManagedProxyKindBaseINS5_18Hipc2ProxyKindBaseILNS4_6detail11MessageTypeE6EEEEENS1_6detail14CoreMethodInfoINSt3__15tupleIJNSC_17InRawArgumentInfoILm4ELm4ELl4EEENSG_ILm1ELm1ELl0EEEEEELm8ELm0ELb0EEESJ_E7ProcessEPNS2_23CmifDomainClientMessageISB_E15ProxyBaseObjectENS2_23InRawClientArgumentTypeILm4ELm4EvEENSQ_ILm1ELm1EvEEj
 00000000:000000710005CED0       _ZN2nn2sf4cmif6client34CmifDomainProxyClientCoreProcessorINS0_4hipc6client38Hipc2ClientSessionManagedProxyKindBaseINS5_18Hipc2ProxyKindBaseILNS4_6detail11MessageTypeE6EEEEENS1_6detail14CoreMethodInfoINSt3__15tupleIJNSC_18OutRawArgumentInfoILm1ELm1ELl0EEENSC_21OutHandleArgumentInfoILi0ELi1EEEEEELm0ELm1ELb0EEESK_E7ProcessEPNS2_23CmifDomainClientMessageISB_E15ProxyBaseObjectENS2_24OutRawClientArgumentTypeILm1ELm1EEENS2_27OutHandleClientArgumentTypeEj
 00000000:000000710005D050       _ZN2nn2sf4cmif6client34CmifDomainProxyClientCoreProcessorINS0_4hipc6client38Hipc2ClientSessionManagedProxyKindBaseINS5_18Hipc2ProxyKindBaseILNS4_6detail11MessageTypeE6EEEEENS1_6detail14CoreMethodInfoINSt3__15tupleIJNSC_17InRawArgumentInfoILm4ELm4ELl4EEENSG_ILm1ELm1ELl0EEENSG_ILm4ELm4ELl8EEEEEELm12ELm0ELb0EEESK_E7ProcessEPNS2_23CmifDomainClientMessageISB_E15ProxyBaseObjectENS2_23InRawClientArgumentTypeILm4ELm4EvEENSR_ILm1ELm1EvEESS_j
 00000000:000000710005D1B0       _ZN2nn2sf4cmif6client34CmifDomainProxyClientCoreProcessorINS0_4hipc6client38Hipc2ClientSessionManagedProxyKindBaseINS5_18Hipc2ProxyKindBaseILNS4_6detail11MessageTypeE6EEEEENS1_6detail14CoreMethodInfoINSt3__15tupleIJNSC_18OutRawArgumentInfoILm1ELm1ELl0EEENSG_ILm4ELm4ELl4EEEEEELm0ELm8ELb0EEESJ_E7ProcessEPNS2_23CmifDomainClientMessageISB_E15ProxyBaseObjectENS2_24OutRawClientArgumentTypeILm1ELm1EEENSQ_ILm4ELm4EEEj
 00000000:000000710005D310       _ZN2nn2sf4cmif6client34CmifDomainProxyClientCoreProcessorINS0_4hipc6client38Hipc2ClientSessionManagedProxyKindBaseINS5_18Hipc2ProxyKindBaseILNS4_6detail11MessageTypeE6EEEEENS1_6detail14CoreMethodInfoINSt3__15tupleIJNSC_17InRawArgumentInfoILm4ELm4ELl4EEENSG_ILm1ELm1ELl0EEENSG_ILm1ELm1ELl1EEEEEELm8ELm0ELb0EEESK_E7ProcessEPNS2_23CmifDomainClientMessageISB_E15ProxyBaseObjectENS2_23InRawClientArgumentTypeILm4ELm4EvEENSR_ILm1ELm1EvEEST_j
 00000000:000000710005D470       _ZN2nn2sf4cmif6client6detail36GetClientProcessorImplWithObjectBaseINS2_19CmifDomainProxyKindINS0_4hipc6client38Hipc2ClientSessionManagedProxyKindBaseINS7_18Hipc2ProxyKindBaseILNS6_6detail11MessageTypeE6EEEEEEENS3_19ProcessModifierImplINS2_21DefaultProxyFilterTagEEEE14ObjectAssignerINS0_30MemoryResourceAllocationPolicyENS_14MemoryResourceEE14AllocateObjectINS_2am7service15IDebugFunctionsEEEvi
 00000000:000000710005D520       _ZN2nn2sf6detail38ObjectImplFactoryWithStatefulAllocatorINS0_4cmif6client6detail9CmifProxyINS_2am7service15IDebugFunctionsENS4_19CmifDomainProxyKindINS0_4hipc6client38Hipc2ClientSessionManagedProxyKindBaseINSC_18Hipc2ProxyKindBaseILNSB_6detail11MessageTypeE6EEEEEEENS0_30MemoryResourceAllocationPolicyENS5_19ProcessModifierImplINS4_21DefaultProxyFilterTagEEEvEESK_E6Object12AddReferenceEv
 00000000:000000710005D530       _ZN2nn2sf6detail38ObjectImplFactoryWithStatefulAllocatorINS0_4cmif6client6detail9CmifProxyINS_2am7service15IDebugFunctionsENS4_19CmifDomainProxyKindINS0_4hipc6client38Hipc2ClientSessionManagedProxyKindBaseINSC_18Hipc2ProxyKindBaseILNSB_6detail11MessageTypeE6EEEEEEENS0_30MemoryResourceAllocationPolicyENS5_19ProcessModifierImplINS4_21DefaultProxyFilterTagEEEvEESK_E6Object7ReleaseEv
 00000000:000000710005D590       _ZN2nn2sf4cmif6client6detail13CmifProxyImplINS_2am7service15IDebugFunctionsENS2_19CmifDomainProxyKindINS0_4hipc6client38Hipc2ClientSessionManagedProxyKindBaseINSA_18Hipc2ProxyKindBaseILNS9_6detail11MessageTypeE6EEEEEEENS0_30MemoryResourceAllocationPolicyES7_NS3_19ProcessModifierImplINS2_21DefaultProxyFilterTagEEEE12GetProxyInfoEv
 00000000:000000710005D5A0       _ZN2nn2sf4cmif6client6detail13CmifProxyImplINS_2am7service15IDebugFunctionsENS2_19CmifDomainProxyKindINS0_4hipc6client38Hipc2ClientSessionManagedProxyKindBaseINSA_18Hipc2ProxyKindBaseILNS9_6detail11MessageTypeE6EEEEEEENS0_30MemoryResourceAllocationPolicyES7_NS3_19ProcessModifierImplINS2_21DefaultProxyFilterTagEEEE43_nn_sf_sync_NotifyMessageToHomeMenuForDebugENS5_13AppletMessageE
 00000000:000000710005D5D0       _ZN2nn2sf4cmif6client6detail13CmifProxyImplINS_2am7service15IDebugFunctionsENS2_19CmifDomainProxyKindINS0_4hipc6client38Hipc2ClientSessionManagedProxyKindBaseINSA_18Hipc2ProxyKindBaseILNS9_6detail11MessageTypeE6EEEEEEENS0_30MemoryResourceAllocationPolicyES7_NS3_19ProcessModifierImplINS2_21DefaultProxyFilterTagEEEE31_nn_sf_sync_OpenMainApplicationENS0_3OutINS0_13SharedPointerINS6_20IApplicationAccessorEEEvEE
 00000000:000000710005D670       _ZN2nn2sf4cmif6client6detail13CmifProxyImplINS_2am7service15IDebugFunctionsENS2_19CmifDomainProxyKindINS0_4hipc6client38Hipc2ClientSessionManagedProxyKindBaseINSA_18Hipc2ProxyKindBaseILNS9_6detail11MessageTypeE6EEEEEEENS0_30MemoryResourceAllocationPolicyES7_NS3_19ProcessModifierImplINS2_21DefaultProxyFilterTagEEEE39_nn_sf_sync_PerformSystemButtonPressingENS6_16SystemButtonTypeE
 00000000:000000710005D6A0       _ZN2nn2sf4cmif6client6detail13CmifProxyImplINS_2am7service15IDebugFunctionsENS2_19CmifDomainProxyKindINS0_4hipc6client38Hipc2ClientSessionManagedProxyKindBaseINSA_18Hipc2ProxyKindBaseILNS9_6detail11MessageTypeE6EEEEEEENS0_30MemoryResourceAllocationPolicyES7_NS3_19ProcessModifierImplINS2_21DefaultProxyFilterTagEEEE37_nn_sf_sync_InvalidateTransitionLayerEv
 00000000:000000710005D6C0       _ZN2nn2sf4cmif6client6detail13CmifProxyImplINS_2am7service15IDebugFunctionsENS2_19CmifDomainProxyKindINS0_4hipc6client38Hipc2ClientSessionManagedProxyKindBaseINSA_18Hipc2ProxyKindBaseILNS9_6detail11MessageTypeE6EEEEEEENS0_30MemoryResourceAllocationPolicyES7_NS3_19ProcessModifierImplINS2_21DefaultProxyFilterTagEEEE63_nn_sf_sync_RequestLaunchApplicationWithUserAndArgumentForDebugENS_3ncm13ApplicationIdERKNS0_7InArrayINS_7account3UidEEEbRKNS0_8InBufferE
 00000000:000000710005D700       _ZN2nn2sf4cmif6client6detail13CmifProxyImplINS_2am7service15IDebugFunctionsENS2_19CmifDomainProxyKindINS0_4hipc6client38Hipc2ClientSessionManagedProxyKindBaseINSA_18Hipc2ProxyKindBaseILNS9_6detail11MessageTypeE6EEEEEEENS0_30MemoryResourceAllocationPolicyES7_NS3_19ProcessModifierImplINS2_21DefaultProxyFilterTagEEEE38_nn_sf_sync_GetAppletResourceUsageInfoENS0_3OutINS6_23AppletResourceUsageInfoEvEE
 00000000:000000710005D720       _ZN2nn2sf4cmif6client6detail13CmifProxyImplINS_2am7service15IDebugFunctionsENS2_19CmifDomainProxyKindINS0_4hipc6client38Hipc2ClientSessionManagedProxyKindBaseINSA_18Hipc2ProxyKindBaseILNS9_6detail11MessageTypeE6EEEEEEENS0_30MemoryResourceAllocationPolicyES7_NS3_19ProcessModifierImplINS2_21DefaultProxyFilterTagEEEE36_nn_sf_sync_SetCpuBoostModeForAppletEi
 00000000:000000710005D750       _ZN2nn2sf4cmif6client6detail13CmifProxyImplINS_2am7service15IDebugFunctionsENS2_19CmifDomainProxyKindINS0_4hipc6client38Hipc2ClientSessionManagedProxyKindBaseINSA_18Hipc2ProxyKindBaseILNS9_6detail11MessageTypeE6EEEEEEENS0_30MemoryResourceAllocationPolicyES7_NS3_19ProcessModifierImplINS2_21DefaultProxyFilterTagEEEE17GetCmifBaseObjectEv
 00000000:000000710005D760       _ZThn32_N2nn2sf4cmif6client6detail13CmifProxyImplINS_2am7service15IDebugFunctionsENS2_19CmifDomainProxyKindINS0_4hipc6client38Hipc2ClientSessionManagedProxyKindBaseINSA_18Hipc2ProxyKindBaseILNS9_6detail11MessageTypeE6EEEEEEENS0_30MemoryResourceAllocationPolicyES7_NS3_19ProcessModifierImplINS2_21DefaultProxyFilterTagEEEE17GetCmifBaseObjectEv
 00000000:000000710005D770       _ZN2nn2sf4cmif6client6detail36GetClientProcessorImplWithObjectBaseINS2_19CmifDomainProxyKindINS0_4hipc6client38Hipc2ClientSessionManagedProxyKindBaseINS7_18Hipc2ProxyKindBaseILNS6_6detail11MessageTypeE6EEEEEEENS3_19ProcessModifierImplINS2_21DefaultProxyFilterTagEEEE14ObjectAssignerINS0_30MemoryResourceAllocationPolicyENS_14MemoryResourceEE14AllocateObjectINS_2am7service20IApplicationAccessorEEEvi
 00000000:000000710005D820       _ZN2nn2sf6detail38ObjectImplFactoryWithStatefulAllocatorINS0_4cmif6client6detail9CmifProxyINS_2am7service20IApplicationAccessorENS4_19CmifDomainProxyKindINS0_4hipc6client38Hipc2ClientSessionManagedProxyKindBaseINSC_18Hipc2ProxyKindBaseILNSB_6detail11MessageTypeE6EEEEEEENS0_30MemoryResourceAllocationPolicyENS5_19ProcessModifierImplINS4_21DefaultProxyFilterTagEEEvEESK_E6Object12AddReferenceEv
 00000000:000000710005D830       _ZN2nn2sf6detail38ObjectImplFactoryWithStatefulAllocatorINS0_4cmif6client6detail9CmifProxyINS_2am7service20IApplicationAccessorENS4_19CmifDomainProxyKindINS0_4hipc6client38Hipc2ClientSessionManagedProxyKindBaseINSC_18Hipc2ProxyKindBaseILNSB_6detail11MessageTypeE6EEEEEEENS0_30MemoryResourceAllocationPolicyENS5_19ProcessModifierImplINS4_21DefaultProxyFilterTagEEEvEESK_E6Object7ReleaseEv
 00000000:000000710005D890       _ZN2nn2sf4cmif6client6detail13CmifProxyImplINS_2am7service15IAppletAccessorENS2_19CmifDomainProxyKindINS0_4hipc6client38Hipc2ClientSessionManagedProxyKindBaseINSA_18Hipc2ProxyKindBaseILNS9_6detail11MessageTypeE6EEEEEEENS0_30MemoryResourceAllocationPolicyENS6_20IApplicationAccessorENS3_19ProcessModifierImplINS2_21DefaultProxyFilterTagEEEE12GetProxyInfoEv
 00000000:000000710005D8A0       _ZN2nn2sf4cmif6client6detail13CmifProxyImplINS_2am7service15IAppletAccessorENS2_19CmifDomainProxyKindINS0_4hipc6client38Hipc2ClientSessionManagedProxyKindBaseINSA_18Hipc2ProxyKindBaseILNS9_6detail11MessageTypeE6EEEEEEENS0_30MemoryResourceAllocationPolicyENS6_20IApplicationAccessorENS3_19ProcessModifierImplINS2_21DefaultProxyFilterTagEEEE38_nn_sf_sync_GetIntegratedAppletPointerENS0_3OutINSt3__110shared_ptrINS6_16IntegratedAppletEEEvEE
 00000000:000000710005D8C0       _ZN2nn2sf4cmif6client6detail13CmifProxyImplINS_2am7service15IAppletAccessorENS2_19CmifDomainProxyKindINS0_4hipc6client38Hipc2ClientSessionManagedProxyKindBaseINSA_18Hipc2ProxyKindBaseILNS9_6detail11MessageTypeE6EEEEEEENS0_30MemoryResourceAllocationPolicyENS6_20IApplicationAccessorENS3_19ProcessModifierImplINS2_21DefaultProxyFilterTagEEEE38_nn_sf_sync_GetAppletStateChangedEventENS0_3OutINS0_12NativeHandleEvEE
 00000000:000000710005D8E0       _ZN2nn2sf4cmif6client6detail13CmifProxyImplINS_2am7service15IAppletAccessorENS2_19CmifDomainProxyKindINS0_4hipc6client38Hipc2ClientSessionManagedProxyKindBaseINSA_18Hipc2ProxyKindBaseILNS9_6detail11MessageTypeE6EEEEEEENS0_30MemoryResourceAllocationPolicyENS6_20IApplicationAccessorENS3_19ProcessModifierImplINS2_21DefaultProxyFilterTagEEEE23_nn_sf_sync_IsCompletedENS0_3OutIbvEE
 00000000:000000710005D900       _ZN2nn2sf4cmif6client6detail13CmifProxyImplINS_2am7service15IAppletAccessorENS2_19CmifDomainProxyKindINS0_4hipc6client38Hipc2ClientSessionManagedProxyKindBaseINSA_18Hipc2ProxyKindBaseILNS9_6detail11MessageTypeE6EEEEEEENS0_30MemoryResourceAllocationPolicyENS6_20IApplicationAccessorENS3_19ProcessModifierImplINS2_21DefaultProxyFilterTagEEEE17_nn_sf_sync_StartEv
 00000000:000000710005D920       _ZN2nn2sf4cmif6client6detail13CmifProxyImplINS_2am7service15IAppletAccessorENS2_19CmifDomainProxyKindINS0_4hipc6client38Hipc2ClientSessionManagedProxyKindBaseINSA_18Hipc2ProxyKindBaseILNS9_6detail11MessageTypeE6EEEEEEENS0_30MemoryResourceAllocationPolicyENS6_20IApplicationAccessorENS3_19ProcessModifierImplINS2_21DefaultProxyFilterTagEEEE23_nn_sf_sync_RequestExitEv
 00000000:000000710005D940       _ZN2nn2sf4cmif6client6detail13CmifProxyImplINS_2am7service15IAppletAccessorENS2_19CmifDomainProxyKindINS0_4hipc6client38Hipc2ClientSessionManagedProxyKindBaseINSA_18Hipc2ProxyKindBaseILNS9_6detail11MessageTypeE6EEEEEEENS0_30MemoryResourceAllocationPolicyENS6_20IApplicationAccessorENS3_19ProcessModifierImplINS2_21DefaultProxyFilterTagEEEE21_nn_sf_sync_TerminateEv
 00000000:000000710005D960       _ZN2nn2sf4cmif6client6detail13CmifProxyImplINS_2am7service15IAppletAccessorENS2_19CmifDomainProxyKindINS0_4hipc6client38Hipc2ClientSessionManagedProxyKindBaseINSA_18Hipc2ProxyKindBaseILNS9_6detail11MessageTypeE6EEEEEEENS0_30MemoryResourceAllocationPolicyENS6_20IApplicationAccessorENS3_19ProcessModifierImplINS2_21DefaultProxyFilterTagEEEE21_nn_sf_sync_GetResultEv
 00000000:000000710005D980       _ZN2nn2sf4cmif6client6detail13CmifProxyImplINS_2am7service20IApplicationAccessorENS2_19CmifDomainProxyKindINS0_4hipc6client38Hipc2ClientSessionManagedProxyKindBaseINSA_18Hipc2ProxyKindBaseILNS9_6detail11MessageTypeE6EEEEEEENS0_30MemoryResourceAllocationPolicyES7_NS3_19ProcessModifierImplINS2_21DefaultProxyFilterTagEEEE48_nn_sf_sync_RequestForApplicationToGetForegroundEv
 00000000:000000710005D9A0       _ZN2nn2sf4cmif6client6detail13CmifProxyImplINS_2am7service20IApplicationAccessorENS2_19CmifDomainProxyKindINS0_4hipc6client38Hipc2ClientSessionManagedProxyKindBaseINSA_18Hipc2ProxyKindBaseILNS9_6detail11MessageTypeE6EEEEEEENS0_30MemoryResourceAllocationPolicyES7_NS3_19ProcessModifierImplINS2_21DefaultProxyFilterTagEEEE38_nn_sf_sync_TerminateAllLibraryAppletsEv
 00000000:000000710005D9C0       _ZN2nn2sf4cmif6client6detail13CmifProxyImplINS_2am7service20IApplicationAccessorENS2_19CmifDomainProxyKindINS0_4hipc6client38Hipc2ClientSessionManagedProxyKindBaseINSA_18Hipc2ProxyKindBaseILNS9_6detail11MessageTypeE6EEEEEEENS0_30MemoryResourceAllocationPolicyES7_NS3_19ProcessModifierImplINS2_21DefaultProxyFilterTagEEEE36_nn_sf_sync_AreAnyLibraryAppletsLeftENS0_3OutIbvEE
 00000000:000000710005D9E0       _ZN2nn2sf4cmif6client6detail13CmifProxyImplINS_2am7service20IApplicationAccessorENS2_19CmifDomainProxyKindINS0_4hipc6client38Hipc2ClientSessionManagedProxyKindBaseINSA_18Hipc2ProxyKindBaseILNS9_6detail11MessageTypeE6EEEEEEENS0_30MemoryResourceAllocationPolicyES7_NS3_19ProcessModifierImplINS2_21DefaultProxyFilterTagEEEE35_nn_sf_sync_GetCurrentLibraryAppletENS0_3OutINS0_13SharedPointerINS6_15IAppletAccessorEEEvEE
 00000000:000000710005DA80       _ZN2nn2sf4cmif6client6detail13CmifProxyImplINS_2am7service20IApplicationAccessorENS2_19CmifDomainProxyKindINS0_4hipc6client38Hipc2ClientSessionManagedProxyKindBaseINSA_18Hipc2ProxyKindBaseILNS9_6detail11MessageTypeE6EEEEEEENS0_30MemoryResourceAllocationPolicyES7_NS3_19ProcessModifierImplINS2_21DefaultProxyFilterTagEEEE28_nn_sf_sync_GetApplicationIdENS0_3OutINS_3ncm13ApplicationIdEvEE
 00000000:000000710005DAA0       _ZN2nn2sf4cmif6client6detail13CmifProxyImplINS_2am7service20IApplicationAccessorENS2_19CmifDomainProxyKindINS0_4hipc6client38Hipc2ClientSessionManagedProxyKindBaseINSA_18Hipc2ProxyKindBaseILNS9_6detail11MessageTypeE6EEEEEEENS0_30MemoryResourceAllocationPolicyES7_NS3_19ProcessModifierImplINS2_21DefaultProxyFilterTagEEEE31_nn_sf_sync_PushLaunchParameterEjNS0_13SharedPointerINS6_8IStorageEEE
 00000000:000000710005DAF0       _ZN2nn2sf4cmif6client6detail13CmifProxyImplINS_2am7service20IApplicationAccessorENS2_19CmifDomainProxyKindINS0_4hipc6client38Hipc2ClientSessionManagedProxyKindBaseINSA_18Hipc2ProxyKindBaseILNS9_6detail11MessageTypeE6EEEEEEENS0_30MemoryResourceAllocationPolicyES7_NS3_19ProcessModifierImplINS2_21DefaultProxyFilterTagEEEE41_nn_sf_sync_GetApplicationControlPropertyERKNS0_9OutBufferE
 00000000:000000710005DB20       _ZN2nn2sf4cmif6client6detail13CmifProxyImplINS_2am7service20IApplicationAccessorENS2_19CmifDomainProxyKindINS0_4hipc6client38Hipc2ClientSessionManagedProxyKindBaseINSA_18Hipc2ProxyKindBaseILNS9_6detail11MessageTypeE6EEEEEEENS0_30MemoryResourceAllocationPolicyES7_NS3_19ProcessModifierImplINS2_21DefaultProxyFilterTagEEEE40_nn_sf_sync_GetApplicationLaunchPropertyERKNS0_9OutBufferE
 00000000:000000710005DB50       _ZN2nn2sf4cmif6client6detail13CmifProxyImplINS_2am7service20IApplicationAccessorENS2_19CmifDomainProxyKindINS0_4hipc6client38Hipc2ClientSessionManagedProxyKindBaseINSA_18Hipc2ProxyKindBaseILNS9_6detail11MessageTypeE6EEEEEEENS0_30MemoryResourceAllocationPolicyES7_NS3_19ProcessModifierImplINS2_21DefaultProxyFilterTagEEEE43_nn_sf_sync_GetApplicationLaunchRequestInfoENS0_3OutINS_6applet28ApplicationLaunchRequestInfoEvEE
 00000000:000000710005DB70       _ZN2nn2sf4cmif6client6detail13CmifProxyImplINS_2am7service20IApplicationAccessorENS2_19CmifDomainProxyKindINS0_4hipc6client38Hipc2ClientSessionManagedProxyKindBaseINSA_18Hipc2ProxyKindBaseILNS9_6detail11MessageTypeE6EEEEEEENS0_30MemoryResourceAllocationPolicyES7_NS3_19ProcessModifierImplINS2_21DefaultProxyFilterTagEEEE20_nn_sf_sync_SetUsersEbRKNS0_7InArrayINS_7account3UidEEE
 00000000:000000710005DBA0       _ZN2nn2sf4cmif6client6detail13CmifProxyImplINS_2am7service20IApplicationAccessorENS2_19CmifDomainProxyKindINS0_4hipc6client38Hipc2ClientSessionManagedProxyKindBaseINSA_18Hipc2ProxyKindBaseILNS9_6detail11MessageTypeE6EEEEEEENS0_30MemoryResourceAllocationPolicyES7_NS3_19ProcessModifierImplINS2_21DefaultProxyFilterTagEEEE43_nn_sf_sync_CheckRightsEnvironmentAvailableENS0_3OutIbvEE
 00000000:000000710005DBC0       _ZN2nn2sf4cmif6client6detail13CmifProxyImplINS_2am7service20IApplicationAccessorENS2_19CmifDomainProxyKindINS0_4hipc6client38Hipc2ClientSessionManagedProxyKindBaseINSA_18Hipc2ProxyKindBaseILNS9_6detail11MessageTypeE6EEEEEEENS0_30MemoryResourceAllocationPolicyES7_NS3_19ProcessModifierImplINS2_21DefaultProxyFilterTagEEEE40_nn_sf_sync_GetNsRightsEnvironmentHandleENS0_3OutImvEE
 00000000:000000710005DBE0       _ZN2nn2sf4cmif6client6detail13CmifProxyImplINS_2am7service20IApplicationAccessorENS2_19CmifDomainProxyKindINS0_4hipc6client38Hipc2ClientSessionManagedProxyKindBaseINSA_18Hipc2ProxyKindBaseILNS9_6detail11MessageTypeE6EEEEEEENS0_30MemoryResourceAllocationPolicyES7_NS3_19ProcessModifierImplINS2_21DefaultProxyFilterTagEEEE28_nn_sf_sync_GetDesirableUidsENS0_3OutIivEERKNS0_8OutArrayINS_7account3UidEEE
 00000000:000000710005DC10       _ZN2nn2sf4cmif6client6detail13CmifProxyImplINS_2am7service20IApplicationAccessorENS2_19CmifDomainProxyKindINS0_4hipc6client38Hipc2ClientSessionManagedProxyKindBaseINSA_18Hipc2ProxyKindBaseILNS9_6detail11MessageTypeE6EEEEEEENS0_30MemoryResourceAllocationPolicyES7_NS3_19ProcessModifierImplINS2_21DefaultProxyFilterTagEEEE40_nn_sf_sync_ReportApplicationExitTimeoutEv
 00000000:000000710005DC30       _ZN2nn2sf4cmif6client6detail13CmifProxyImplINS_2am7service20IApplicationAccessorENS2_19CmifDomainProxyKindINS0_4hipc6client38Hipc2ClientSessionManagedProxyKindBaseINSA_18Hipc2ProxyKindBaseILNS9_6detail11MessageTypeE6EEEEEEENS0_30MemoryResourceAllocationPolicyES7_NS3_19ProcessModifierImplINS2_21DefaultProxyFilterTagEEEE35_nn_sf_sync_SetApplicationAttributeERKNS5_20ApplicationAttributeE
 00000000:000000710005DC60       _ZN2nn2sf4cmif6client6detail13CmifProxyImplINS_2am7service20IApplicationAccessorENS2_19CmifDomainProxyKindINS0_4hipc6client38Hipc2ClientSessionManagedProxyKindBaseINSA_18Hipc2ProxyKindBaseILNS9_6detail11MessageTypeE6EEEEEEENS0_30MemoryResourceAllocationPolicyES7_NS3_19ProcessModifierImplINS2_21DefaultProxyFilterTagEEEE39_nn_sf_sync_HasSaveDataAccessPermissionENS0_3OutIbvEENS_3ncm13ApplicationIdE
 00000000:000000710005DC80       _ZN2nn2sf4cmif6client6detail13CmifProxyImplINS_2am7service15IAppletAccessorENS2_19CmifDomainProxyKindINS0_4hipc6client38Hipc2ClientSessionManagedProxyKindBaseINSA_18Hipc2ProxyKindBaseILNS9_6detail11MessageTypeE6EEEEEEENS0_30MemoryResourceAllocationPolicyENS6_20IApplicationAccessorENS3_19ProcessModifierImplINS2_21DefaultProxyFilterTagEEEE17GetCmifBaseObjectEv
 00000000:000000710005DC90       _ZThn32_N2nn2sf4cmif6client6detail13CmifProxyImplINS_2am7service15IAppletAccessorENS2_19CmifDomainProxyKindINS0_4hipc6client38Hipc2ClientSessionManagedProxyKindBaseINSA_18Hipc2ProxyKindBaseILNS9_6detail11MessageTypeE6EEEEEEENS0_30MemoryResourceAllocationPolicyENS6_20IApplicationAccessorENS3_19ProcessModifierImplINS2_21DefaultProxyFilterTagEEEE17GetCmifBaseObjectEv
 00000000:000000710005DCA0       _ZN2nn2sf4cmif6client6detail36GetClientProcessorImplWithObjectBaseINS2_19CmifDomainProxyKindINS0_4hipc6client38Hipc2ClientSessionManagedProxyKindBaseINS7_18Hipc2ProxyKindBaseILNS6_6detail11MessageTypeE6EEEEEEENS3_19ProcessModifierImplINS2_21DefaultProxyFilterTagEEEE14ObjectAssignerINS0_30MemoryResourceAllocationPolicyENS_14MemoryResourceEE14AllocateObjectINS_2am7service15IAppletAccessorEEEvi
 00000000:000000710005DD50       _ZN2nn2sf6detail38ObjectImplFactoryWithStatefulAllocatorINS0_4cmif6client6detail9CmifProxyINS_2am7service15IAppletAccessorENS4_19CmifDomainProxyKindINS0_4hipc6client38Hipc2ClientSessionManagedProxyKindBaseINSC_18Hipc2ProxyKindBaseILNSB_6detail11MessageTypeE6EEEEEEENS0_30MemoryResourceAllocationPolicyENS5_19ProcessModifierImplINS4_21DefaultProxyFilterTagEEEvEESK_E6Object12AddReferenceEv
 00000000:000000710005DD60       _ZN2nn2sf6detail38ObjectImplFactoryWithStatefulAllocatorINS0_4cmif6client6detail9CmifProxyINS_2am7service15IAppletAccessorENS4_19CmifDomainProxyKindINS0_4hipc6client38Hipc2ClientSessionManagedProxyKindBaseINSC_18Hipc2ProxyKindBaseILNSB_6detail11MessageTypeE6EEEEEEENS0_30MemoryResourceAllocationPolicyENS5_19ProcessModifierImplINS4_21DefaultProxyFilterTagEEEvEESK_E6Object7ReleaseEv
 00000000:000000710005DDC0       _ZN2nn2sf4cmif6client6detail13CmifProxyImplINS_2am7service15IAppletAccessorENS2_19CmifDomainProxyKindINS0_4hipc6client38Hipc2ClientSessionManagedProxyKindBaseINSA_18Hipc2ProxyKindBaseILNS9_6detail11MessageTypeE6EEEEEEENS0_30MemoryResourceAllocationPolicyES7_NS3_19ProcessModifierImplINS2_21DefaultProxyFilterTagEEEE12GetProxyInfoEv
 00000000:000000710005DDD0       _ZN2nn2sf4cmif6client6detail13CmifProxyImplINS_2am7service15IAppletAccessorENS2_19CmifDomainProxyKindINS0_4hipc6client38Hipc2ClientSessionManagedProxyKindBaseINSA_18Hipc2ProxyKindBaseILNS9_6detail11MessageTypeE6EEEEEEENS0_30MemoryResourceAllocationPolicyES7_NS3_19ProcessModifierImplINS2_21DefaultProxyFilterTagEEEE38_nn_sf_sync_GetIntegratedAppletPointerENS0_3OutINSt3__110shared_ptrINS6_16IntegratedAppletEEEvEE
 00000000:000000710005DDF0       _ZN2nn2sf4cmif6client6detail13CmifProxyImplINS_2am7service15IAppletAccessorENS2_19CmifDomainProxyKindINS0_4hipc6client38Hipc2ClientSessionManagedProxyKindBaseINSA_18Hipc2ProxyKindBaseILNS9_6detail11MessageTypeE6EEEEEEENS0_30MemoryResourceAllocationPolicyES7_NS3_19ProcessModifierImplINS2_21DefaultProxyFilterTagEEEE38_nn_sf_sync_GetAppletStateChangedEventENS0_3OutINS0_12NativeHandleEvEE
 00000000:000000710005DE10       _ZN2nn2sf4cmif6client6detail13CmifProxyImplINS_2am7service15IAppletAccessorENS2_19CmifDomainProxyKindINS0_4hipc6client38Hipc2ClientSessionManagedProxyKindBaseINSA_18Hipc2ProxyKindBaseILNS9_6detail11MessageTypeE6EEEEEEENS0_30MemoryResourceAllocationPolicyES7_NS3_19ProcessModifierImplINS2_21DefaultProxyFilterTagEEEE23_nn_sf_sync_IsCompletedENS0_3OutIbvEE
 00000000:000000710005DE30       _ZN2nn2sf4cmif6client6detail13CmifProxyImplINS_2am7service15IAppletAccessorENS2_19CmifDomainProxyKindINS0_4hipc6client38Hipc2ClientSessionManagedProxyKindBaseINSA_18Hipc2ProxyKindBaseILNS9_6detail11MessageTypeE6EEEEEEENS0_30MemoryResourceAllocationPolicyES7_NS3_19ProcessModifierImplINS2_21DefaultProxyFilterTagEEEE17_nn_sf_sync_StartEv
 00000000:000000710005DE50       _ZN2nn2sf4cmif6client6detail13CmifProxyImplINS_2am7service15IAppletAccessorENS2_19CmifDomainProxyKindINS0_4hipc6client38Hipc2ClientSessionManagedProxyKindBaseINSA_18Hipc2ProxyKindBaseILNS9_6detail11MessageTypeE6EEEEEEENS0_30MemoryResourceAllocationPolicyES7_NS3_19ProcessModifierImplINS2_21DefaultProxyFilterTagEEEE23_nn_sf_sync_RequestExitEv
 00000000:000000710005DE70       _ZN2nn2sf4cmif6client6detail13CmifProxyImplINS_2am7service15IAppletAccessorENS2_19CmifDomainProxyKindINS0_4hipc6client38Hipc2ClientSessionManagedProxyKindBaseINSA_18Hipc2ProxyKindBaseILNS9_6detail11MessageTypeE6EEEEEEENS0_30MemoryResourceAllocationPolicyES7_NS3_19ProcessModifierImplINS2_21DefaultProxyFilterTagEEEE21_nn_sf_sync_TerminateEv
 00000000:000000710005DE90       _ZN2nn2sf4cmif6client6detail13CmifProxyImplINS_2am7service15IAppletAccessorENS2_19CmifDomainProxyKindINS0_4hipc6client38Hipc2ClientSessionManagedProxyKindBaseINSA_18Hipc2ProxyKindBaseILNS9_6detail11MessageTypeE6EEEEEEENS0_30MemoryResourceAllocationPolicyES7_NS3_19ProcessModifierImplINS2_21DefaultProxyFilterTagEEEE21_nn_sf_sync_GetResultEv
 00000000:000000710005DEB0       _ZN2nn2sf4cmif6client6detail13CmifProxyImplINS_2am7service15IAppletAccessorENS2_19CmifDomainProxyKindINS0_4hipc6client38Hipc2ClientSessionManagedProxyKindBaseINSA_18Hipc2ProxyKindBaseILNS9_6detail11MessageTypeE6EEEEEEENS0_30MemoryResourceAllocationPolicyES7_NS3_19ProcessModifierImplINS2_21DefaultProxyFilterTagEEEE17GetCmifBaseObjectEv
 00000000:000000710005DEC0       _ZThn32_N2nn2sf4cmif6client6detail13CmifProxyImplINS_2am7service15IAppletAccessorENS2_19CmifDomainProxyKindINS0_4hipc6client38Hipc2ClientSessionManagedProxyKindBaseINSA_18Hipc2ProxyKindBaseILNS9_6detail11MessageTypeE6EEEEEEENS0_30MemoryResourceAllocationPolicyES7_NS3_19ProcessModifierImplINS2_21DefaultProxyFilterTagEEEE17GetCmifBaseObjectEv
 00000000:000000710005DED0       _ZN2nn2sf4cmif6client34CmifDomainProxyClientCoreProcessorINS0_4hipc6client38Hipc2ClientSessionManagedProxyKindBaseINS5_18Hipc2ProxyKindBaseILNS4_6detail11MessageTypeE6EEEEENS1_6detail14CoreMethodInfoINSt3__15tupleIJNSC_17InRawArgumentInfoILm4ELm4ELl0EEENSC_20InObjectArgumentInfoILi0ELi0EEEEEELm4ELm0ELb0EEESK_E7ProcessEPNS2_23CmifDomainClientMessageISB_E15ProxyBaseObjectENS2_23InRawClientArgumentTypeILm4ELm4EvEENS2_26InObjectClientArgumentTypeEj
 00000000:000000710005E040       _ZN2nn2sf4cmif6client34CmifDomainProxyClientCoreProcessorINS0_4hipc6client38Hipc2ClientSessionManagedProxyKindBaseINS5_18Hipc2ProxyKindBaseILNS4_6detail11MessageTypeE6EEEEENS1_6detail14CoreMethodInfoINSt3__15tupleIJNSC_17InRawArgumentInfoILm1ELm1ELl0EEENSC_18BufferArgumentInfoILi0ELi5ELm0EEEEEELm1ELm0ELb0EEESK_E7ProcessEPNS2_23CmifDomainClientMessageISB_E15ProxyBaseObjectENS2_23InRawClientArgumentTypeILm1ELm1EvEENS2_24BufferClientArgumentTypeEj
 00000000:000000710005E250       _ZN2nn2sf4cmif6client34CmifDomainProxyClientCoreProcessorINS0_4hipc6client38Hipc2ClientSessionManagedProxyKindBaseINS5_18Hipc2ProxyKindBaseILNS4_6detail11MessageTypeE6EEEEENS1_6detail14CoreMethodInfoINSt3__15tupleIJNSC_18BufferArgumentInfoILi0ELi21ELm32EEEEEELm0ELm0ELb0EEESI_E7ProcessEPNS2_23CmifDomainClientMessageISB_E15ProxyBaseObjectENS2_24BufferClientArgumentTypeEj
 00000000:000000710005E450       _ZN2nn2sf4cmif6client34CmifDomainProxyClientCoreProcessorINS0_4hipc6client38Hipc2ClientSessionManagedProxyKindBaseINS5_18Hipc2ProxyKindBaseILNS4_6detail11MessageTypeE6EEEEENS1_6detail14CoreMethodInfoINSt3__15tupleIJNSC_17InRawArgumentInfoILm8ELm8ELl8EEENSC_18BufferArgumentInfoILi0ELi5ELm0EEENSG_ILm1ELm1ELl0EEENSI_ILi1ELi5ELm0EEEEEELm16ELm0ELb0EEESM_E7ProcessEPNS2_23CmifDomainClientMessageISB_E15ProxyBaseObjectENS2_23InRawClientArgumentTypeILm8ELm8EvEENS2_24BufferClientArgumentTypeENST_ILm1ELm1EvEESV_j
 00000000:000000710005E680       _ZN2nn2sf4cmif6client34CmifDomainProxyClientCoreProcessorINS0_4hipc6client38Hipc2ClientSessionManagedProxyKindBaseINS5_18Hipc2ProxyKindBaseILNS4_6detail11MessageTypeE6EEEEENS1_6detail14CoreMethodInfoINSt3__15tupleIJNSC_18OutRawArgumentInfoILm32ELm4ELl0EEEEEELm0ELm32ELb0EEESI_E7ProcessEPNS2_23CmifDomainClientMessageISB_E15ProxyBaseObjectENS2_24OutRawClientArgumentTypeILm32ELm4EEEj
 00000000:000000710005E7E0       _ZN2nn2sf4cmif6client6detail36GetClientProcessorImplWithObjectBaseINS2_19CmifDomainProxyKindINS0_4hipc6client38Hipc2ClientSessionManagedProxyKindBaseINS7_18Hipc2ProxyKindBaseILNS6_6detail11MessageTypeE6EEEEEEENS3_19ProcessModifierImplINS2_21DefaultProxyFilterTagEEEE14ObjectAssignerINS0_30MemoryResourceAllocationPolicyENS_14MemoryResourceEE14AllocateObjectINS_2am7service25IProcessWindingControllerEEEvi
 00000000:000000710005E890       _ZN2nn2sf6detail38ObjectImplFactoryWithStatefulAllocatorINS0_4cmif6client6detail9CmifProxyINS_2am7service25IProcessWindingControllerENS4_19CmifDomainProxyKindINS0_4hipc6client38Hipc2ClientSessionManagedProxyKindBaseINSC_18Hipc2ProxyKindBaseILNSB_6detail11MessageTypeE6EEEEEEENS0_30MemoryResourceAllocationPolicyENS5_19ProcessModifierImplINS4_21DefaultProxyFilterTagEEEvEESK_E6Object12AddReferenceEv
 00000000:000000710005E8A0       _ZN2nn2sf6detail38ObjectImplFactoryWithStatefulAllocatorINS0_4cmif6client6detail9CmifProxyINS_2am7service25IProcessWindingControllerENS4_19CmifDomainProxyKindINS0_4hipc6client38Hipc2ClientSessionManagedProxyKindBaseINSC_18Hipc2ProxyKindBaseILNSB_6detail11MessageTypeE6EEEEEEENS0_30MemoryResourceAllocationPolicyENS5_19ProcessModifierImplINS4_21DefaultProxyFilterTagEEEvEESK_E6Object7ReleaseEv
 00000000:000000710005E900       _ZN2nn2sf4cmif6client6detail13CmifProxyImplINS_2am7service25IProcessWindingControllerENS2_19CmifDomainProxyKindINS0_4hipc6client38Hipc2ClientSessionManagedProxyKindBaseINSA_18Hipc2ProxyKindBaseILNS9_6detail11MessageTypeE6EEEEEEENS0_30MemoryResourceAllocationPolicyES7_NS3_19ProcessModifierImplINS2_21DefaultProxyFilterTagEEEE12GetProxyInfoEv
 00000000:000000710005E910       _ZN2nn2sf4cmif6client6detail13CmifProxyImplINS_2am7service25IProcessWindingControllerENS2_19CmifDomainProxyKindINS0_4hipc6client38Hipc2ClientSessionManagedProxyKindBaseINSA_18Hipc2ProxyKindBaseILNS9_6detail11MessageTypeE6EEEEEEENS0_30MemoryResourceAllocationPolicyES7_NS3_19ProcessModifierImplINS2_21DefaultProxyFilterTagEEEE27_nn_sf_sync_GetLaunchReasonENS0_3OutINS6_25AppletProcessLaunchReasonEvEE
 00000000:000000710005E930       _ZN2nn2sf4cmif6client6detail13CmifProxyImplINS_2am7service25IProcessWindingControllerENS2_19CmifDomainProxyKindINS0_4hipc6client38Hipc2ClientSessionManagedProxyKindBaseINSA_18Hipc2ProxyKindBaseILNS9_6detail11MessageTypeE6EEEEEEENS0_30MemoryResourceAllocationPolicyES7_NS3_19ProcessModifierImplINS2_21DefaultProxyFilterTagEEEE36_nn_sf_sync_OpenCallingLibraryAppletENS0_3OutINS0_13SharedPointerINS6_22ILibraryAppletAccessorEEEvEE
 00000000:000000710005E9D0       _ZN2nn2sf4cmif6client6detail13CmifProxyImplINS_2am7service25IProcessWindingControllerENS2_19CmifDomainProxyKindINS0_4hipc6client38Hipc2ClientSessionManagedProxyKindBaseINSA_18Hipc2ProxyKindBaseILNS9_6detail11MessageTypeE6EEEEEEENS0_30MemoryResourceAllocationPolicyES7_NS3_19ProcessModifierImplINS2_21DefaultProxyFilterTagEEEE23_nn_sf_sync_PushContextENS0_13SharedPointerINS6_8IStorageEEE
 00000000:000000710005EA20       _ZN2nn2sf4cmif6client6detail13CmifProxyImplINS_2am7service25IProcessWindingControllerENS2_19CmifDomainProxyKindINS0_4hipc6client38Hipc2ClientSessionManagedProxyKindBaseINSA_18Hipc2ProxyKindBaseILNS9_6detail11MessageTypeE6EEEEEEENS0_30MemoryResourceAllocationPolicyES7_NS3_19ProcessModifierImplINS2_21DefaultProxyFilterTagEEEE22_nn_sf_sync_PopContextENS0_3OutINS0_13SharedPointerINS6_8IStorageEEEvEE
 00000000:000000710005EAC0       _ZN2nn2sf4cmif6client6detail13CmifProxyImplINS_2am7service25IProcessWindingControllerENS2_19CmifDomainProxyKindINS0_4hipc6client38Hipc2ClientSessionManagedProxyKindBaseINSA_18Hipc2ProxyKindBaseILNS9_6detail11MessageTypeE6EEEEEEENS0_30MemoryResourceAllocationPolicyES7_NS3_19ProcessModifierImplINS2_21DefaultProxyFilterTagEEEE36_nn_sf_sync_CancelWindingReservationEv
 00000000:000000710005EAE0       _ZN2nn2sf4cmif6client6detail13CmifProxyImplINS_2am7service25IProcessWindingControllerENS2_19CmifDomainProxyKindINS0_4hipc6client38Hipc2ClientSessionManagedProxyKindBaseINSA_18Hipc2ProxyKindBaseILNS9_6detail11MessageTypeE6EEEEEEENS0_30MemoryResourceAllocationPolicyES7_NS3_19ProcessModifierImplINS2_21DefaultProxyFilterTagEEEE29_nn_sf_sync_WindAndDoReservedEv
 00000000:000000710005EB00       _ZN2nn2sf4cmif6client6detail13CmifProxyImplINS_2am7service25IProcessWindingControllerENS2_19CmifDomainProxyKindINS0_4hipc6client38Hipc2ClientSessionManagedProxyKindBaseINSA_18Hipc2ProxyKindBaseILNS9_6detail11MessageTypeE6EEEEEEENS0_30MemoryResourceAllocationPolicyES7_NS3_19ProcessModifierImplINS2_21DefaultProxyFilterTagEEEE46_nn_sf_sync_ReserveToStartAndWaitAndUnwindThisENS0_13SharedPointerINS6_22ILibraryAppletAccessorEEE
 00000000:000000710005EB50       _ZN2nn2sf4cmif6client6detail13CmifProxyImplINS_2am7service25IProcessWindingControllerENS2_19CmifDomainProxyKindINS0_4hipc6client38Hipc2ClientSessionManagedProxyKindBaseINSA_18Hipc2ProxyKindBaseILNS9_6detail11MessageTypeE6EEEEEEENS0_30MemoryResourceAllocationPolicyES7_NS3_19ProcessModifierImplINS2_21DefaultProxyFilterTagEEEE33_nn_sf_sync_ReserveToStartAndWaitENS0_13SharedPointerINS6_22ILibraryAppletAccessorEEE
 00000000:000000710005EBA0       _ZN2nn2sf4cmif6client6detail13CmifProxyImplINS_2am7service25IProcessWindingControllerENS2_19CmifDomainProxyKindINS0_4hipc6client38Hipc2ClientSessionManagedProxyKindBaseINSA_18Hipc2ProxyKindBaseILNS9_6detail11MessageTypeE6EEEEEEENS0_30MemoryResourceAllocationPolicyES7_NS3_19ProcessModifierImplINS2_21DefaultProxyFilterTagEEEE17GetCmifBaseObjectEv
 00000000:000000710005EBB0       _ZThn32_N2nn2sf4cmif6client6detail13CmifProxyImplINS_2am7service25IProcessWindingControllerENS2_19CmifDomainProxyKindINS0_4hipc6client38Hipc2ClientSessionManagedProxyKindBaseINSA_18Hipc2ProxyKindBaseILNS9_6detail11MessageTypeE6EEEEEEENS0_30MemoryResourceAllocationPolicyES7_NS3_19ProcessModifierImplINS2_21DefaultProxyFilterTagEEEE17GetCmifBaseObjectEv
 00000000:000000710005EBC0       _ZN2nn2sf4cmif6client34CmifDomainProxyClientCoreProcessorINS0_4hipc6client38Hipc2ClientSessionManagedProxyKindBaseINS5_18Hipc2ProxyKindBaseILNS4_6detail11MessageTypeE6EEEEENS1_6detail14CoreMethodInfoINSt3__15tupleIJNSC_18OutRawArgumentInfoILm4ELm1ELl0EEEEEELm0ELm4ELb0EEESI_E7ProcessEPNS2_23CmifDomainClientMessageISB_E15ProxyBaseObjectENS2_24OutRawClientArgumentTypeILm4ELm1EEEj
 00000000:000000710005ED10       _ZN2nn2sf4cmif6client6detail36GetClientProcessorImplWithObjectBaseINS2_19CmifDomainProxyKindINS0_4hipc6client38Hipc2ClientSessionManagedProxyKindBaseINS7_18Hipc2ProxyKindBaseILNS6_6detail11MessageTypeE6EEEEEEENS3_19ProcessModifierImplINS2_21DefaultProxyFilterTagEEEE14ObjectAssignerINS0_30MemoryResourceAllocationPolicyENS_14MemoryResourceEE14AllocateObjectINS_2am7service22ILibraryAppletAccessorEEEvi
 00000000:000000710005EDC0       _ZN2nn2sf6detail38ObjectImplFactoryWithStatefulAllocatorINS0_4cmif6client6detail9CmifProxyINS_2am7service22ILibraryAppletAccessorENS4_19CmifDomainProxyKindINS0_4hipc6client38Hipc2ClientSessionManagedProxyKindBaseINSC_18Hipc2ProxyKindBaseILNSB_6detail11MessageTypeE6EEEEEEENS0_30MemoryResourceAllocationPolicyENS5_19ProcessModifierImplINS4_21DefaultProxyFilterTagEEEvEESK_E6Object12AddReferenceEv
 00000000:000000710005EDD0       _ZN2nn2sf6detail38ObjectImplFactoryWithStatefulAllocatorINS0_4cmif6client6detail9CmifProxyINS_2am7service22ILibraryAppletAccessorENS4_19CmifDomainProxyKindINS0_4hipc6client38Hipc2ClientSessionManagedProxyKindBaseINSC_18Hipc2ProxyKindBaseILNSB_6detail11MessageTypeE6EEEEEEENS0_30MemoryResourceAllocationPolicyENS5_19ProcessModifierImplINS4_21DefaultProxyFilterTagEEEvEESK_E6Object7ReleaseEv
 00000000:000000710005EE30       _ZN2nn2sf4cmif6client6detail13CmifProxyImplINS_2am7service15IAppletAccessorENS2_19CmifDomainProxyKindINS0_4hipc6client38Hipc2ClientSessionManagedProxyKindBaseINSA_18Hipc2ProxyKindBaseILNS9_6detail11MessageTypeE6EEEEEEENS0_30MemoryResourceAllocationPolicyENS6_22ILibraryAppletAccessorENS3_19ProcessModifierImplINS2_21DefaultProxyFilterTagEEEE12GetProxyInfoEv
 00000000:000000710005EE40       _ZN2nn2sf4cmif6client6detail13CmifProxyImplINS_2am7service15IAppletAccessorENS2_19CmifDomainProxyKindINS0_4hipc6client38Hipc2ClientSessionManagedProxyKindBaseINSA_18Hipc2ProxyKindBaseILNS9_6detail11MessageTypeE6EEEEEEENS0_30MemoryResourceAllocationPolicyENS6_22ILibraryAppletAccessorENS3_19ProcessModifierImplINS2_21DefaultProxyFilterTagEEEE38_nn_sf_sync_GetIntegratedAppletPointerENS0_3OutINSt3__110shared_ptrINS6_16IntegratedAppletEEEvEE
 00000000:000000710005EE60       _ZN2nn2sf4cmif6client6detail13CmifProxyImplINS_2am7service15IAppletAccessorENS2_19CmifDomainProxyKindINS0_4hipc6client38Hipc2ClientSessionManagedProxyKindBaseINSA_18Hipc2ProxyKindBaseILNS9_6detail11MessageTypeE6EEEEEEENS0_30MemoryResourceAllocationPolicyENS6_22ILibraryAppletAccessorENS3_19ProcessModifierImplINS2_21DefaultProxyFilterTagEEEE38_nn_sf_sync_GetAppletStateChangedEventENS0_3OutINS0_12NativeHandleEvEE
 00000000:000000710005EE80       _ZN2nn2sf4cmif6client6detail13CmifProxyImplINS_2am7service15IAppletAccessorENS2_19CmifDomainProxyKindINS0_4hipc6client38Hipc2ClientSessionManagedProxyKindBaseINSA_18Hipc2ProxyKindBaseILNS9_6detail11MessageTypeE6EEEEEEENS0_30MemoryResourceAllocationPolicyENS6_22ILibraryAppletAccessorENS3_19ProcessModifierImplINS2_21DefaultProxyFilterTagEEEE23_nn_sf_sync_IsCompletedENS0_3OutIbvEE
 00000000:000000710005EEA0       _ZN2nn2sf4cmif6client6detail13CmifProxyImplINS_2am7service15IAppletAccessorENS2_19CmifDomainProxyKindINS0_4hipc6client38Hipc2ClientSessionManagedProxyKindBaseINSA_18Hipc2ProxyKindBaseILNS9_6detail11MessageTypeE6EEEEEEENS0_30MemoryResourceAllocationPolicyENS6_22ILibraryAppletAccessorENS3_19ProcessModifierImplINS2_21DefaultProxyFilterTagEEEE17_nn_sf_sync_StartEv
 00000000:000000710005EEC0       _ZN2nn2sf4cmif6client6detail13CmifProxyImplINS_2am7service15IAppletAccessorENS2_19CmifDomainProxyKindINS0_4hipc6client38Hipc2ClientSessionManagedProxyKindBaseINSA_18Hipc2ProxyKindBaseILNS9_6detail11MessageTypeE6EEEEEEENS0_30MemoryResourceAllocationPolicyENS6_22ILibraryAppletAccessorENS3_19ProcessModifierImplINS2_21DefaultProxyFilterTagEEEE23_nn_sf_sync_RequestExitEv
 00000000:000000710005EEE0       _ZN2nn2sf4cmif6client6detail13CmifProxyImplINS_2am7service15IAppletAccessorENS2_19CmifDomainProxyKindINS0_4hipc6client38Hipc2ClientSessionManagedProxyKindBaseINSA_18Hipc2ProxyKindBaseILNS9_6detail11MessageTypeE6EEEEEEENS0_30MemoryResourceAllocationPolicyENS6_22ILibraryAppletAccessorENS3_19ProcessModifierImplINS2_21DefaultProxyFilterTagEEEE21_nn_sf_sync_TerminateEv
 00000000:000000710005EF00       _ZN2nn2sf4cmif6client6detail13CmifProxyImplINS_2am7service15IAppletAccessorENS2_19CmifDomainProxyKindINS0_4hipc6client38Hipc2ClientSessionManagedProxyKindBaseINSA_18Hipc2ProxyKindBaseILNS9_6detail11MessageTypeE6EEEEEEENS0_30MemoryResourceAllocationPolicyENS6_22ILibraryAppletAccessorENS3_19ProcessModifierImplINS2_21DefaultProxyFilterTagEEEE21_nn_sf_sync_GetResultEv
 00000000:000000710005EF20       _ZN2nn2sf4cmif6client6detail13CmifProxyImplINS_2am7service22ILibraryAppletAccessorENS2_19CmifDomainProxyKindINS0_4hipc6client38Hipc2ClientSessionManagedProxyKindBaseINSA_18Hipc2ProxyKindBaseILNS9_6detail11MessageTypeE6EEEEEEENS0_30MemoryResourceAllocationPolicyES7_NS3_19ProcessModifierImplINS2_21DefaultProxyFilterTagEEEE53_nn_sf_sync_SetOutOfFocusApplicationSuspendingEnabledEb
 00000000:000000710005EF50       _ZN2nn2sf4cmif6client6detail13CmifProxyImplINS_2am7service22ILibraryAppletAccessorENS2_19CmifDomainProxyKindINS0_4hipc6client38Hipc2ClientSessionManagedProxyKindBaseINSA_18Hipc2ProxyKindBaseILNS9_6detail11MessageTypeE6EEEEEEENS0_30MemoryResourceAllocationPolicyES7_NS3_19ProcessModifierImplINS2_21DefaultProxyFilterTagEEEE22_nn_sf_sync_PushInDataENS0_13SharedPointerINS6_8IStorageEEE
 00000000:000000710005EFA0       _ZN2nn2sf4cmif6client6detail13CmifProxyImplINS_2am7service22ILibraryAppletAccessorENS2_19CmifDomainProxyKindINS0_4hipc6client38Hipc2ClientSessionManagedProxyKindBaseINSA_18Hipc2ProxyKindBaseILNS9_6detail11MessageTypeE6EEEEEEENS0_30MemoryResourceAllocationPolicyES7_NS3_19ProcessModifierImplINS2_21DefaultProxyFilterTagEEEE22_nn_sf_sync_PopOutDataENS0_3OutINS0_13SharedPointerINS6_8IStorageEEEvEE
 00000000:000000710005F040       _ZN2nn2sf4cmif6client6detail13CmifProxyImplINS_2am7service22ILibraryAppletAccessorENS2_19CmifDomainProxyKindINS0_4hipc6client38Hipc2ClientSessionManagedProxyKindBaseINSA_18Hipc2ProxyKindBaseILNS9_6detail11MessageTypeE6EEEEEEENS0_30MemoryResourceAllocationPolicyES7_NS3_19ProcessModifierImplINS2_21DefaultProxyFilterTagEEEE28_nn_sf_sync_PushExtraStorageENS0_13SharedPointerINS6_8IStorageEEE
 00000000:000000710005F090       _ZN2nn2sf4cmif6client6detail13CmifProxyImplINS_2am7service22ILibraryAppletAccessorENS2_19CmifDomainProxyKindINS0_4hipc6client38Hipc2ClientSessionManagedProxyKindBaseINSA_18Hipc2ProxyKindBaseILNS9_6detail11MessageTypeE6EEEEEEENS0_30MemoryResourceAllocationPolicyES7_NS3_19ProcessModifierImplINS2_21DefaultProxyFilterTagEEEE33_nn_sf_sync_PushInteractiveInDataENS0_13SharedPointerINS6_8IStorageEEE
 00000000:000000710005F0E0       _ZN2nn2sf4cmif6client6detail13CmifProxyImplINS_2am7service22ILibraryAppletAccessorENS2_19CmifDomainProxyKindINS0_4hipc6client38Hipc2ClientSessionManagedProxyKindBaseINSA_18Hipc2ProxyKindBaseILNS9_6detail11MessageTypeE6EEEEEEENS0_30MemoryResourceAllocationPolicyES7_NS3_19ProcessModifierImplINS2_21DefaultProxyFilterTagEEEE33_nn_sf_sync_PopInteractiveOutDataENS0_3OutINS0_13SharedPointerINS6_8IStorageEEEvEE
 00000000:000000710005F180       _ZN2nn2sf4cmif6client6detail13CmifProxyImplINS_2am7service22ILibraryAppletAccessorENS2_19CmifDomainProxyKindINS0_4hipc6client38Hipc2ClientSessionManagedProxyKindBaseINSA_18Hipc2ProxyKindBaseILNS9_6detail11MessageTypeE6EEEEEEENS0_30MemoryResourceAllocationPolicyES7_NS3_19ProcessModifierImplINS2_21DefaultProxyFilterTagEEEE30_nn_sf_sync_GetPopOutDataEventENS0_3OutINS0_12NativeHandleEvEE
 00000000:000000710005F1A0       _ZN2nn2sf4cmif6client6detail13CmifProxyImplINS_2am7service22ILibraryAppletAccessorENS2_19CmifDomainProxyKindINS0_4hipc6client38Hipc2ClientSessionManagedProxyKindBaseINSA_18Hipc2ProxyKindBaseILNS9_6detail11MessageTypeE6EEEEEEENS0_30MemoryResourceAllocationPolicyES7_NS3_19ProcessModifierImplINS2_21DefaultProxyFilterTagEEEE41_nn_sf_sync_GetPopInteractiveOutDataEventENS0_3OutINS0_12NativeHandleEvEE
 00000000:000000710005F1C0       _ZN2nn2sf4cmif6client6detail13CmifProxyImplINS_2am7service22ILibraryAppletAccessorENS2_19CmifDomainProxyKindINS0_4hipc6client38Hipc2ClientSessionManagedProxyKindBaseINSA_18Hipc2ProxyKindBaseILNS9_6detail11MessageTypeE6EEEEEEENS0_30MemoryResourceAllocationPolicyES7_NS3_19ProcessModifierImplINS2_21DefaultProxyFilterTagEEEE30_nn_sf_sync_NeedsToExitProcessENS0_3OutIbvEE
 00000000:000000710005F1E0       _ZN2nn2sf4cmif6client6detail13CmifProxyImplINS_2am7service22ILibraryAppletAccessorENS2_19CmifDomainProxyKindINS0_4hipc6client38Hipc2ClientSessionManagedProxyKindBaseINSA_18Hipc2ProxyKindBaseILNS9_6detail11MessageTypeE6EEEEEEENS0_30MemoryResourceAllocationPolicyES7_NS3_19ProcessModifierImplINS2_21DefaultProxyFilterTagEEEE32_nn_sf_sync_GetLibraryAppletInfoENS0_3OutINS6_17LibraryAppletInfoEvEE
 00000000:000000710005F200       _ZN2nn2sf4cmif6client6detail13CmifProxyImplINS_2am7service22ILibraryAppletAccessorENS2_19CmifDomainProxyKindINS0_4hipc6client38Hipc2ClientSessionManagedProxyKindBaseINSA_18Hipc2ProxyKindBaseILNS9_6detail11MessageTypeE6EEEEEEENS0_30MemoryResourceAllocationPolicyES7_NS3_19ProcessModifierImplINS2_21DefaultProxyFilterTagEEEE43_nn_sf_sync_RequestForAppletToGetForegroundEv
 00000000:000000710005F220       _ZN2nn2sf4cmif6client6detail13CmifProxyImplINS_2am7service22ILibraryAppletAccessorENS2_19CmifDomainProxyKindINS0_4hipc6client38Hipc2ClientSessionManagedProxyKindBaseINSA_18Hipc2ProxyKindBaseILNS9_6detail11MessageTypeE6EEEEEEENS0_30MemoryResourceAllocationPolicyES7_NS3_19ProcessModifierImplINS2_21DefaultProxyFilterTagEEEE42_nn_sf_sync_GetIndirectLayerConsumerHandleENS0_3OutImvEENS_6applet20AppletResourceUserIdE
 00000000:000000710005F240       _ZN2nn2sf4cmif6client6detail13CmifProxyImplINS_2am7service15IAppletAccessorENS2_19CmifDomainProxyKindINS0_4hipc6client38Hipc2ClientSessionManagedProxyKindBaseINSA_18Hipc2ProxyKindBaseILNS9_6detail11MessageTypeE6EEEEEEENS0_30MemoryResourceAllocationPolicyENS6_22ILibraryAppletAccessorENS3_19ProcessModifierImplINS2_21DefaultProxyFilterTagEEEE17GetCmifBaseObjectEv
 00000000:000000710005F250       _ZThn32_N2nn2sf4cmif6client6detail13CmifProxyImplINS_2am7service15IAppletAccessorENS2_19CmifDomainProxyKindINS0_4hipc6client38Hipc2ClientSessionManagedProxyKindBaseINSA_18Hipc2ProxyKindBaseILNS9_6detail11MessageTypeE6EEEEEEENS0_30MemoryResourceAllocationPolicyENS6_22ILibraryAppletAccessorENS3_19ProcessModifierImplINS2_21DefaultProxyFilterTagEEEE17GetCmifBaseObjectEv
 00000000:000000710005F260       _ZN2nn2sf4cmif6client34CmifDomainProxyClientCoreProcessorINS0_4hipc6client38Hipc2ClientSessionManagedProxyKindBaseINS5_18Hipc2ProxyKindBaseILNS4_6detail11MessageTypeE6EEEEENS1_6detail14CoreMethodInfoINSt3__15tupleIJNSC_18OutRawArgumentInfoILm8ELm8ELl0EEENSC_17InRawArgumentInfoILm8ELm8ELl0EEEEEELm8ELm8ELb1EEESK_E7ProcessEPNS2_23CmifDomainClientMessageISB_E15ProxyBaseObjectENS2_24OutRawClientArgumentTypeILm8ELm8EEENS2_23InRawClientArgumentTypeILm8ELm8EvEEj
 00000000:000000710005F3C0       _ZN2nn2sf4cmif6client6detail36GetClientProcessorImplWithObjectBaseINS2_19CmifDomainProxyKindINS0_4hipc6client38Hipc2ClientSessionManagedProxyKindBaseINS7_18Hipc2ProxyKindBaseILNS6_6detail11MessageTypeE6EEEEEEENS3_19ProcessModifierImplINS2_21DefaultProxyFilterTagEEEE14ObjectAssignerINS0_30MemoryResourceAllocationPolicyENS_14MemoryResourceEE14AllocateObjectINS_2am7service21ILibraryAppletCreatorEEEvi
 00000000:000000710005F470       _ZN2nn2sf6detail38ObjectImplFactoryWithStatefulAllocatorINS0_4cmif6client6detail9CmifProxyINS_2am7service21ILibraryAppletCreatorENS4_19CmifDomainProxyKindINS0_4hipc6client38Hipc2ClientSessionManagedProxyKindBaseINSC_18Hipc2ProxyKindBaseILNSB_6detail11MessageTypeE6EEEEEEENS0_30MemoryResourceAllocationPolicyENS5_19ProcessModifierImplINS4_21DefaultProxyFilterTagEEEvEESK_E6Object12AddReferenceEv
 00000000:000000710005F480       _ZN2nn2sf6detail38ObjectImplFactoryWithStatefulAllocatorINS0_4cmif6client6detail9CmifProxyINS_2am7service21ILibraryAppletCreatorENS4_19CmifDomainProxyKindINS0_4hipc6client38Hipc2ClientSessionManagedProxyKindBaseINSC_18Hipc2ProxyKindBaseILNSB_6detail11MessageTypeE6EEEEEEENS0_30MemoryResourceAllocationPolicyENS5_19ProcessModifierImplINS4_21DefaultProxyFilterTagEEEvEESK_E6Object7ReleaseEv
 00000000:000000710005F4E0       _ZN2nn2sf4cmif6client6detail13CmifProxyImplINS_2am7service21ILibraryAppletCreatorENS2_19CmifDomainProxyKindINS0_4hipc6client38Hipc2ClientSessionManagedProxyKindBaseINSA_18Hipc2ProxyKindBaseILNS9_6detail11MessageTypeE6EEEEEEENS0_30MemoryResourceAllocationPolicyES7_NS3_19ProcessModifierImplINS2_21DefaultProxyFilterTagEEEE12GetProxyInfoEv
 00000000:000000710005F4F0       _ZN2nn2sf4cmif6client6detail13CmifProxyImplINS_2am7service21ILibraryAppletCreatorENS2_19CmifDomainProxyKindINS0_4hipc6client38Hipc2ClientSessionManagedProxyKindBaseINSA_18Hipc2ProxyKindBaseILNS9_6detail11MessageTypeE6EEEEEEENS0_30MemoryResourceAllocationPolicyES7_NS3_19ProcessModifierImplINS2_21DefaultProxyFilterTagEEEE31_nn_sf_sync_CreateLibraryAppletENS0_3OutINS0_13SharedPointerINS6_22ILibraryAppletAccessorEEEvEEjj
 00000000:000000710005F5A0       _ZN2nn2sf4cmif6client6detail13CmifProxyImplINS_2am7service21ILibraryAppletCreatorENS2_19CmifDomainProxyKindINS0_4hipc6client38Hipc2ClientSessionManagedProxyKindBaseINSA_18Hipc2ProxyKindBaseILNS9_6detail11MessageTypeE6EEEEEEENS0_30MemoryResourceAllocationPolicyES7_NS3_19ProcessModifierImplINS2_21DefaultProxyFilterTagEEEE38_nn_sf_sync_TerminateAllLibraryAppletsEv
 00000000:000000710005F5C0       _ZN2nn2sf4cmif6client6detail13CmifProxyImplINS_2am7service21ILibraryAppletCreatorENS2_19CmifDomainProxyKindINS0_4hipc6client38Hipc2ClientSessionManagedProxyKindBaseINSA_18Hipc2ProxyKindBaseILNS9_6detail11MessageTypeE6EEEEEEENS0_30MemoryResourceAllocationPolicyES7_NS3_19ProcessModifierImplINS2_21DefaultProxyFilterTagEEEE36_nn_sf_sync_AreAnyLibraryAppletsLeftENS0_3OutIbvEE
 00000000:000000710005F5E0       _ZN2nn2sf4cmif6client6detail13CmifProxyImplINS_2am7service21ILibraryAppletCreatorENS2_19CmifDomainProxyKindINS0_4hipc6client38Hipc2ClientSessionManagedProxyKindBaseINSA_18Hipc2ProxyKindBaseILNS9_6detail11MessageTypeE6EEEEEEENS0_30MemoryResourceAllocationPolicyES7_NS3_19ProcessModifierImplINS2_21DefaultProxyFilterTagEEEE25_nn_sf_sync_CreateStorageENS0_3OutINS0_13SharedPointerINS6_8IStorageEEEvEEl
 00000000:000000710005F690       _ZN2nn2sf4cmif6client6detail13CmifProxyImplINS_2am7service21ILibraryAppletCreatorENS2_19CmifDomainProxyKindINS0_4hipc6client38Hipc2ClientSessionManagedProxyKindBaseINSA_18Hipc2ProxyKindBaseILNS9_6detail11MessageTypeE6EEEEEEENS0_30MemoryResourceAllocationPolicyES7_NS3_19ProcessModifierImplINS2_21DefaultProxyFilterTagEEEE39_nn_sf_sync_CreateTransferMemoryStorageENS0_3OutINS0_13SharedPointerINS6_8IStorageEEEvEEONS0_12NativeHandleElb
 00000000:000000710005F750       _ZN2nn2sf4cmif6client6detail13CmifProxyImplINS_2am7service21ILibraryAppletCreatorENS2_19CmifDomainProxyKindINS0_4hipc6client38Hipc2ClientSessionManagedProxyKindBaseINSA_18Hipc2ProxyKindBaseILNS9_6detail11MessageTypeE6EEEEEEENS0_30MemoryResourceAllocationPolicyES7_NS3_19ProcessModifierImplINS2_21DefaultProxyFilterTagEEEE31_nn_sf_sync_CreateHandleStorageENS0_3OutINS0_13SharedPointerINS6_8IStorageEEEvEEONS0_12NativeHandleEl
 00000000:000000710005F800       _ZN2nn2sf4cmif6client6detail13CmifProxyImplINS_2am7service21ILibraryAppletCreatorENS2_19CmifDomainProxyKindINS0_4hipc6client38Hipc2ClientSessionManagedProxyKindBaseINSA_18Hipc2ProxyKindBaseILNS9_6detail11MessageTypeE6EEEEEEENS0_30MemoryResourceAllocationPolicyES7_NS3_19ProcessModifierImplINS2_21DefaultProxyFilterTagEEEE17GetCmifBaseObjectEv
 00000000:000000710005F810       _ZThn32_N2nn2sf4cmif6client6detail13CmifProxyImplINS_2am7service21ILibraryAppletCreatorENS2_19CmifDomainProxyKindINS0_4hipc6client38Hipc2ClientSessionManagedProxyKindBaseINSA_18Hipc2ProxyKindBaseILNS9_6detail11MessageTypeE6EEEEEEENS0_30MemoryResourceAllocationPolicyES7_NS3_19ProcessModifierImplINS2_21DefaultProxyFilterTagEEEE17GetCmifBaseObjectEv
 00000000:000000710005F820       _ZN2nn2sf4cmif6client34CmifDomainProxyClientCoreProcessorINS0_4hipc6client38Hipc2ClientSessionManagedProxyKindBaseINS5_18Hipc2ProxyKindBaseILNS4_6detail11MessageTypeE6EEEEENS1_6detail14CoreMethodInfoINSt3__15tupleIJNSC_21OutObjectArgumentInfoILi0ELi0EEENSC_20InHandleArgumentInfoILi0ELi1EEENSC_17InRawArgumentInfoILm8ELm8ELl8EEENSK_ILm1ELm1ELl0EEEEEELm16ELm0ELb0EEESN_E21ProcessWithOutObjectsEPNS2_23CmifDomainClientMessageISB_E15ProxyBaseObjectENS2_27OutObjectClientArgumentTypeENS2_26InHandleClientArgumentTypeENS2_23InRawClientArgumentTypeILm8ELm8EvEENSW_ILm1ELm1EvEEjPNS0_13SharedPointerINS0_14IServiceObjectEEE
 00000000:000000710005FA40       _ZN2nn2sf4cmif6client34CmifDomainProxyClientCoreProcessorINS0_4hipc6client38Hipc2ClientSessionManagedProxyKindBaseINS5_18Hipc2ProxyKindBaseILNS4_6detail11MessageTypeE6EEEEENS1_6detail14CoreMethodInfoINSt3__15tupleIJNSC_21OutObjectArgumentInfoILi0ELi0EEENSC_20InHandleArgumentInfoILi0ELi1EEENSC_17InRawArgumentInfoILm8ELm8ELl0EEEEEELm8ELm0ELb0EEESM_E21ProcessWithOutObjectsEPNS2_23CmifDomainClientMessageISB_E15ProxyBaseObjectENS2_27OutObjectClientArgumentTypeENS2_26InHandleClientArgumentTypeENS2_23InRawClientArgumentTypeILm8ELm8EvEEjPNS0_13SharedPointerINS0_14IServiceObjectEEE
 00000000:000000710005FC50       _ZN2nn2sf4cmif6client6detail36GetClientProcessorImplWithObjectBaseINS2_19CmifDomainProxyKindINS0_4hipc6client38Hipc2ClientSessionManagedProxyKindBaseINS7_18Hipc2ProxyKindBaseILNS6_6detail11MessageTypeE6EEEEEEENS3_19ProcessModifierImplINS2_21DefaultProxyFilterTagEEEE14ObjectAssignerINS0_30MemoryResourceAllocationPolicyENS_14MemoryResourceEE14AllocateObjectINS_2am7service18IHomeMenuFunctionsEEEvi
 00000000:000000710005FD00       _ZN2nn2sf6detail38ObjectImplFactoryWithStatefulAllocatorINS0_4cmif6client6detail9CmifProxyINS_2am7service18IHomeMenuFunctionsENS4_19CmifDomainProxyKindINS0_4hipc6client38Hipc2ClientSessionManagedProxyKindBaseINSC_18Hipc2ProxyKindBaseILNSB_6detail11MessageTypeE6EEEEEEENS0_30MemoryResourceAllocationPolicyENS5_19ProcessModifierImplINS4_21DefaultProxyFilterTagEEEvEESK_E6Object12AddReferenceEv
 00000000:000000710005FD10       _ZN2nn2sf6detail38ObjectImplFactoryWithStatefulAllocatorINS0_4cmif6client6detail9CmifProxyINS_2am7service18IHomeMenuFunctionsENS4_19CmifDomainProxyKindINS0_4hipc6client38Hipc2ClientSessionManagedProxyKindBaseINSC_18Hipc2ProxyKindBaseILNSB_6detail11MessageTypeE6EEEEEEENS0_30MemoryResourceAllocationPolicyENS5_19ProcessModifierImplINS4_21DefaultProxyFilterTagEEEvEESK_E6Object7ReleaseEv
 00000000:000000710005FD70       _ZN2nn2sf4cmif6client6detail13CmifProxyImplINS_2am7service18IHomeMenuFunctionsENS2_19CmifDomainProxyKindINS0_4hipc6client38Hipc2ClientSessionManagedProxyKindBaseINSA_18Hipc2ProxyKindBaseILNS9_6detail11MessageTypeE6EEEEEEENS0_30MemoryResourceAllocationPolicyES7_NS3_19ProcessModifierImplINS2_21DefaultProxyFilterTagEEEE12GetProxyInfoEv
 00000000:000000710005FD80       _ZN2nn2sf4cmif6client6detail13CmifProxyImplINS_2am7service18IHomeMenuFunctionsENS2_19CmifDomainProxyKindINS0_4hipc6client38Hipc2ClientSessionManagedProxyKindBaseINSA_18Hipc2ProxyKindBaseILNS9_6detail11MessageTypeE6EEEEEEENS0_30MemoryResourceAllocationPolicyES7_NS3_19ProcessModifierImplINS2_21DefaultProxyFilterTagEEEE34_nn_sf_sync_RequestToGetForegroundEv
 00000000:000000710005FDA0       _ZN2nn2sf4cmif6client6detail13CmifProxyImplINS_2am7service18IHomeMenuFunctionsENS2_19CmifDomainProxyKindINS0_4hipc6client38Hipc2ClientSessionManagedProxyKindBaseINSA_18Hipc2ProxyKindBaseILNS9_6detail11MessageTypeE6EEEEEEENS0_30MemoryResourceAllocationPolicyES7_NS3_19ProcessModifierImplINS2_21DefaultProxyFilterTagEEEE26_nn_sf_sync_LockForegroundEv
 00000000:000000710005FDC0       _ZN2nn2sf4cmif6client6detail13CmifProxyImplINS_2am7service18IHomeMenuFunctionsENS2_19CmifDomainProxyKindINS0_4hipc6client38Hipc2ClientSessionManagedProxyKindBaseINSA_18Hipc2ProxyKindBaseILNS9_6detail11MessageTypeE6EEEEEEENS0_30MemoryResourceAllocationPolicyES7_NS3_19ProcessModifierImplINS2_21DefaultProxyFilterTagEEEE28_nn_sf_sync_UnlockForegroundEv
 00000000:000000710005FDE0       _ZN2nn2sf4cmif6client6detail13CmifProxyImplINS_2am7service18IHomeMenuFunctionsENS2_19CmifDomainProxyKindINS0_4hipc6client38Hipc2ClientSessionManagedProxyKindBaseINSA_18Hipc2ProxyKindBaseILNS9_6detail11MessageTypeE6EEEEEEENS0_30MemoryResourceAllocationPolicyES7_NS3_19ProcessModifierImplINS2_21DefaultProxyFilterTagEEEE33_nn_sf_sync_PopFromGeneralChannelENS0_3OutINS0_13SharedPointerINS6_8IStorageEEEvEE
 00000000:000000710005FE80       _ZN2nn2sf4cmif6client6detail13CmifProxyImplINS_2am7service18IHomeMenuFunctionsENS2_19CmifDomainProxyKindINS0_4hipc6client38Hipc2ClientSessionManagedProxyKindBaseINSA_18Hipc2ProxyKindBaseILNS9_6detail11MessageTypeE6EEEEEEENS0_30MemoryResourceAllocationPolicyES7_NS3_19ProcessModifierImplINS2_21DefaultProxyFilterTagEEEE41_nn_sf_sync_GetPopFromGeneralChannelEventENS0_3OutINS0_12NativeHandleEvEE
 00000000:000000710005FEA0       _ZN2nn2sf4cmif6client6detail13CmifProxyImplINS_2am7service18IHomeMenuFunctionsENS2_19CmifDomainProxyKindINS0_4hipc6client38Hipc2ClientSessionManagedProxyKindBaseINSA_18Hipc2ProxyKindBaseILNS9_6detail11MessageTypeE6EEEEEEENS0_30MemoryResourceAllocationPolicyES7_NS3_19ProcessModifierImplINS2_21DefaultProxyFilterTagEEEE43_nn_sf_sync_GetHomeButtonWriterLockAccessorENS0_3OutINS0_13SharedPointerINS6_13ILockAccessorEEEvEE
 00000000:000000710005FF40       _ZN2nn2sf4cmif6client6detail13CmifProxyImplINS_2am7service18IHomeMenuFunctionsENS2_19CmifDomainProxyKindINS0_4hipc6client38Hipc2ClientSessionManagedProxyKindBaseINSA_18Hipc2ProxyKindBaseILNS9_6detail11MessageTypeE6EEEEEEENS0_30MemoryResourceAllocationPolicyES7_NS3_19ProcessModifierImplINS2_21DefaultProxyFilterTagEEEE35_nn_sf_sync_GetWriterLockAccessorExENS0_3OutINS0_13SharedPointerINS6_13ILockAccessorEEEvEEi
 00000000:000000710005FFF0       _ZN2nn2sf4cmif6client6detail13CmifProxyImplINS_2am7service18IHomeMenuFunctionsENS2_19CmifDomainProxyKindINS0_4hipc6client38Hipc2ClientSessionManagedProxyKindBaseINSA_18Hipc2ProxyKindBaseILNS9_6detail11MessageTypeE6EEEEEEENS0_30MemoryResourceAllocationPolicyES7_NS3_19ProcessModifierImplINS2_21DefaultProxyFilterTagEEEE47_nn_sf_sync_PopRequestLaunchApplicationForDebugENS0_3OutINS_3ncm13ApplicationIdEvEENSN_IivEERKNS0_8OutArrayINS_7account3UidEEE
 00000000:0000007100060020       _ZN2nn2sf4cmif6client6detail13CmifProxyImplINS_2am7service18IHomeMenuFunctionsENS2_19CmifDomainProxyKindINS0_4hipc6client38Hipc2ClientSessionManagedProxyKindBaseINSA_18Hipc2ProxyKindBaseILNS9_6detail11MessageTypeE6EEEEEEENS0_30MemoryResourceAllocationPolicyES7_NS3_19ProcessModifierImplINS2_21DefaultProxyFilterTagEEEE25_nn_sf_sync_LaunchDevMenuEv
 00000000:0000007100060040       _ZN2nn2sf4cmif6client6detail13CmifProxyImplINS_2am7service18IHomeMenuFunctionsENS2_19CmifDomainProxyKindINS0_4hipc6client38Hipc2ClientSessionManagedProxyKindBaseINSA_18Hipc2ProxyKindBaseILNS9_6detail11MessageTypeE6EEEEEEENS0_30MemoryResourceAllocationPolicyES7_NS3_19ProcessModifierImplINS2_21DefaultProxyFilterTagEEEE17GetCmifBaseObjectEv
 00000000:0000007100060050       _ZThn32_N2nn2sf4cmif6client6detail13CmifProxyImplINS_2am7service18IHomeMenuFunctionsENS2_19CmifDomainProxyKindINS0_4hipc6client38Hipc2ClientSessionManagedProxyKindBaseINSA_18Hipc2ProxyKindBaseILNS9_6detail11MessageTypeE6EEEEEEENS0_30MemoryResourceAllocationPolicyES7_NS3_19ProcessModifierImplINS2_21DefaultProxyFilterTagEEEE17GetCmifBaseObjectEv
 00000000:0000007100060060       _ZN2nn2sf4cmif6client34CmifDomainProxyClientCoreProcessorINS0_4hipc6client38Hipc2ClientSessionManagedProxyKindBaseINS5_18Hipc2ProxyKindBaseILNS4_6detail11MessageTypeE6EEEEENS1_6detail14CoreMethodInfoINSt3__15tupleIJNSC_18OutRawArgumentInfoILm8ELm8ELl8EEENSG_ILm4ELm4ELl0EEENSC_18BufferArgumentInfoILi0ELi6ELm0EEEEEELm0ELm16ELb0EEESL_E7ProcessEPNS2_23CmifDomainClientMessageISB_E15ProxyBaseObjectENS2_24OutRawClientArgumentTypeILm8ELm8EEENSS_ILm4ELm4EEENS2_24BufferClientArgumentTypeEj
 00000000:0000007100060280       _ZN2nn2sf4cmif6client6detail36GetClientProcessorImplWithObjectBaseINS2_19CmifDomainProxyKindINS0_4hipc6client38Hipc2ClientSessionManagedProxyKindBaseINS7_18Hipc2ProxyKindBaseILNS6_6detail11MessageTypeE6EEEEEEENS3_19ProcessModifierImplINS2_21DefaultProxyFilterTagEEEE14ObjectAssignerINS0_30MemoryResourceAllocationPolicyENS_14MemoryResourceEE14AllocateObjectINS_2am7service22IGlobalStateControllerEEEvi
 00000000:0000007100060330       _ZN2nn2sf6detail38ObjectImplFactoryWithStatefulAllocatorINS0_4cmif6client6detail9CmifProxyINS_2am7service22IGlobalStateControllerENS4_19CmifDomainProxyKindINS0_4hipc6client38Hipc2ClientSessionManagedProxyKindBaseINSC_18Hipc2ProxyKindBaseILNSB_6detail11MessageTypeE6EEEEEEENS0_30MemoryResourceAllocationPolicyENS5_19ProcessModifierImplINS4_21DefaultProxyFilterTagEEEvEESK_E6Object12AddReferenceEv
 00000000:0000007100060340       _ZN2nn2sf6detail38ObjectImplFactoryWithStatefulAllocatorINS0_4cmif6client6detail9CmifProxyINS_2am7service22IGlobalStateControllerENS4_19CmifDomainProxyKindINS0_4hipc6client38Hipc2ClientSessionManagedProxyKindBaseINSC_18Hipc2ProxyKindBaseILNSB_6detail11MessageTypeE6EEEEEEENS0_30MemoryResourceAllocationPolicyENS5_19ProcessModifierImplINS4_21DefaultProxyFilterTagEEEvEESK_E6Object7ReleaseEv
 00000000:00000071000603A0       _ZN2nn2sf4cmif6client6detail13CmifProxyImplINS_2am7service22IGlobalStateControllerENS2_19CmifDomainProxyKindINS0_4hipc6client38Hipc2ClientSessionManagedProxyKindBaseINSA_18Hipc2ProxyKindBaseILNS9_6detail11MessageTypeE6EEEEEEENS0_30MemoryResourceAllocationPolicyES7_NS3_19ProcessModifierImplINS2_21DefaultProxyFilterTagEEEE12GetProxyInfoEv
 00000000:00000071000603B0       _ZN2nn2sf4cmif6client6detail13CmifProxyImplINS_2am7service22IGlobalStateControllerENS2_19CmifDomainProxyKindINS0_4hipc6client38Hipc2ClientSessionManagedProxyKindBaseINSA_18Hipc2ProxyKindBaseILNS9_6detail11MessageTypeE6EEEEEEENS0_30MemoryResourceAllocationPolicyES7_NS3_19ProcessModifierImplINS2_21DefaultProxyFilterTagEEEE31_nn_sf_sync_RequestToEnterSleepEv
 00000000:00000071000603D0       _ZN2nn2sf4cmif6client6detail13CmifProxyImplINS_2am7service22IGlobalStateControllerENS2_19CmifDomainProxyKindINS0_4hipc6client38Hipc2ClientSessionManagedProxyKindBaseINSA_18Hipc2ProxyKindBaseILNS9_6detail11MessageTypeE6EEEEEEENS0_30MemoryResourceAllocationPolicyES7_NS3_19ProcessModifierImplINS2_21DefaultProxyFilterTagEEEE22_nn_sf_sync_EnterSleepEv
 00000000:00000071000603F0       _ZN2nn2sf4cmif6client6detail13CmifProxyImplINS_2am7service22IGlobalStateControllerENS2_19CmifDomainProxyKindINS0_4hipc6client38Hipc2ClientSessionManagedProxyKindBaseINSA_18Hipc2ProxyKindBaseILNS9_6detail11MessageTypeE6EEEEEEENS0_30MemoryResourceAllocationPolicyES7_NS3_19ProcessModifierImplINS2_21DefaultProxyFilterTagEEEE30_nn_sf_sync_StartSleepSequenceEb
 00000000:0000007100060420       _ZN2nn2sf4cmif6client6detail13CmifProxyImplINS_2am7service22IGlobalStateControllerENS2_19CmifDomainProxyKindINS0_4hipc6client38Hipc2ClientSessionManagedProxyKindBaseINSA_18Hipc2ProxyKindBaseILNS9_6detail11MessageTypeE6EEEEEEENS0_30MemoryResourceAllocationPolicyES7_NS3_19ProcessModifierImplINS2_21DefaultProxyFilterTagEEEE33_nn_sf_sync_StartShutdownSequenceEv
 00000000:0000007100060440       _ZN2nn2sf4cmif6client6detail13CmifProxyImplINS_2am7service22IGlobalStateControllerENS2_19CmifDomainProxyKindINS0_4hipc6client38Hipc2ClientSessionManagedProxyKindBaseINSA_18Hipc2ProxyKindBaseILNS9_6detail11MessageTypeE6EEEEEEENS0_30MemoryResourceAllocationPolicyES7_NS3_19ProcessModifierImplINS2_21DefaultProxyFilterTagEEEE31_nn_sf_sync_StartRebootSequenceEv
 00000000:0000007100060460       _ZN2nn2sf4cmif6client6detail13CmifProxyImplINS_2am7service22IGlobalStateControllerENS2_19CmifDomainProxyKindINS0_4hipc6client38Hipc2ClientSessionManagedProxyKindBaseINSA_18Hipc2ProxyKindBaseILNS9_6detail11MessageTypeE6EEEEEEENS0_30MemoryResourceAllocationPolicyES7_NS3_19ProcessModifierImplINS2_21DefaultProxyFilterTagEEEE36_nn_sf_sync_IsAutoPowerDownRequestedENS0_3OutIbvEE
 00000000:0000007100060480       _ZN2nn2sf4cmif6client6detail13CmifProxyImplINS_2am7service22IGlobalStateControllerENS2_19CmifDomainProxyKindINS0_4hipc6client38Hipc2ClientSessionManagedProxyKindBaseINSA_18Hipc2ProxyKindBaseILNS9_6detail11MessageTypeE6EEEEEEENS0_30MemoryResourceAllocationPolicyES7_NS3_19ProcessModifierImplINS2_21DefaultProxyFilterTagEEEE42_nn_sf_sync_LoadAndApplyIdlePolicySettingsEv
 00000000:00000071000604A0       _ZN2nn2sf4cmif6client6detail13CmifProxyImplINS_2am7service22IGlobalStateControllerENS2_19CmifDomainProxyKindINS0_4hipc6client38Hipc2ClientSessionManagedProxyKindBaseINSA_18Hipc2ProxyKindBaseILNS9_6detail11MessageTypeE6EEEEEEENS0_30MemoryResourceAllocationPolicyES7_NS3_19ProcessModifierImplINS2_21DefaultProxyFilterTagEEEE36_nn_sf_sync_NotifyCecSettingsChangedEv
 00000000:00000071000604C0       _ZN2nn2sf4cmif6client6detail13CmifProxyImplINS_2am7service22IGlobalStateControllerENS2_19CmifDomainProxyKindINS0_4hipc6client38Hipc2ClientSessionManagedProxyKindBaseINSA_18Hipc2ProxyKindBaseILNS9_6detail11MessageTypeE6EEEEEEENS0_30MemoryResourceAllocationPolicyES7_NS3_19ProcessModifierImplINS2_21DefaultProxyFilterTagEEEE45_nn_sf_sync_SetDefaultHomeButtonLongPressTimeEl
 00000000:00000071000604E0       _ZN2nn2sf4cmif6client6detail13CmifProxyImplINS_2am7service22IGlobalStateControllerENS2_19CmifDomainProxyKindINS0_4hipc6client38Hipc2ClientSessionManagedProxyKindBaseINSA_18Hipc2ProxyKindBaseILNS9_6detail11MessageTypeE6EEEEEEENS0_30MemoryResourceAllocationPolicyES7_NS3_19ProcessModifierImplINS2_21DefaultProxyFilterTagEEEE42_nn_sf_sync_UpdateDefaultDisplayResolutionEv
 00000000:0000007100060500       _ZN2nn2sf4cmif6client6detail13CmifProxyImplINS_2am7service22IGlobalStateControllerENS2_19CmifDomainProxyKindINS0_4hipc6client38Hipc2ClientSessionManagedProxyKindBaseINSA_18Hipc2ProxyKindBaseILNS9_6detail11MessageTypeE6EEEEEEENS0_30MemoryResourceAllocationPolicyES7_NS3_19ProcessModifierImplINS2_21DefaultProxyFilterTagEEEE29_nn_sf_sync_ShouldSleepOnBootENS0_3OutIbvEE
 00000000:0000007100060520       _ZN2nn2sf4cmif6client6detail13CmifProxyImplINS_2am7service22IGlobalStateControllerENS2_19CmifDomainProxyKindINS0_4hipc6client38Hipc2ClientSessionManagedProxyKindBaseINSA_18Hipc2ProxyKindBaseILNS9_6detail11MessageTypeE6EEEEEEENS0_30MemoryResourceAllocationPolicyES7_NS3_19ProcessModifierImplINS2_21DefaultProxyFilterTagEEEE44_nn_sf_sync_GetHdcpAuthenticationFailedEventENS0_3OutINS0_12NativeHandleEvEE
 00000000:0000007100060540       _ZN2nn2sf4cmif6client6detail13CmifProxyImplINS_2am7service22IGlobalStateControllerENS2_19CmifDomainProxyKindINS0_4hipc6client38Hipc2ClientSessionManagedProxyKindBaseINSA_18Hipc2ProxyKindBaseILNS9_6detail11MessageTypeE6EEEEEEENS0_30MemoryResourceAllocationPolicyES7_NS3_19ProcessModifierImplINS2_21DefaultProxyFilterTagEEEE17GetCmifBaseObjectEv
 00000000:0000007100060550       _ZThn32_N2nn2sf4cmif6client6detail13CmifProxyImplINS_2am7service22IGlobalStateControllerENS2_19CmifDomainProxyKindINS0_4hipc6client38Hipc2ClientSessionManagedProxyKindBaseINSA_18Hipc2ProxyKindBaseILNS9_6detail11MessageTypeE6EEEEEEENS0_30MemoryResourceAllocationPolicyES7_NS3_19ProcessModifierImplINS2_21DefaultProxyFilterTagEEEE17GetCmifBaseObjectEv
 00000000:0000007100060560       _ZN2nn2sf4cmif6client6detail36GetClientProcessorImplWithObjectBaseINS2_19CmifDomainProxyKindINS0_4hipc6client38Hipc2ClientSessionManagedProxyKindBaseINS7_18Hipc2ProxyKindBaseILNS6_6detail11MessageTypeE6EEEEEEENS3_19ProcessModifierImplINS2_21DefaultProxyFilterTagEEEE14ObjectAssignerINS0_30MemoryResourceAllocationPolicyENS_14MemoryResourceEE14AllocateObjectINS_2am7service19IApplicationCreatorEEEvi
 00000000:0000007100060610       _ZN2nn2sf6detail38ObjectImplFactoryWithStatefulAllocatorINS0_4cmif6client6detail9CmifProxyINS_2am7service19IApplicationCreatorENS4_19CmifDomainProxyKindINS0_4hipc6client38Hipc2ClientSessionManagedProxyKindBaseINSC_18Hipc2ProxyKindBaseILNSB_6detail11MessageTypeE6EEEEEEENS0_30MemoryResourceAllocationPolicyENS5_19ProcessModifierImplINS4_21DefaultProxyFilterTagEEEvEESK_E6Object12AddReferenceEv
 00000000:0000007100060620       _ZN2nn2sf6detail38ObjectImplFactoryWithStatefulAllocatorINS0_4cmif6client6detail9CmifProxyINS_2am7service19IApplicationCreatorENS4_19CmifDomainProxyKindINS0_4hipc6client38Hipc2ClientSessionManagedProxyKindBaseINSC_18Hipc2ProxyKindBaseILNSB_6detail11MessageTypeE6EEEEEEENS0_30MemoryResourceAllocationPolicyENS5_19ProcessModifierImplINS4_21DefaultProxyFilterTagEEEvEESK_E6Object7ReleaseEv
 00000000:0000007100060680       _ZN2nn2sf4cmif6client6detail13CmifProxyImplINS_2am7service19IApplicationCreatorENS2_19CmifDomainProxyKindINS0_4hipc6client38Hipc2ClientSessionManagedProxyKindBaseINSA_18Hipc2ProxyKindBaseILNS9_6detail11MessageTypeE6EEEEEEENS0_30MemoryResourceAllocationPolicyES7_NS3_19ProcessModifierImplINS2_21DefaultProxyFilterTagEEEE12GetProxyInfoEv
 00000000:0000007100060690       _ZN2nn2sf4cmif6client6detail13CmifProxyImplINS_2am7service19IApplicationCreatorENS2_19CmifDomainProxyKindINS0_4hipc6client38Hipc2ClientSessionManagedProxyKindBaseINSA_18Hipc2ProxyKindBaseILNS9_6detail11MessageTypeE6EEEEEEENS0_30MemoryResourceAllocationPolicyES7_NS3_19ProcessModifierImplINS2_21DefaultProxyFilterTagEEEE29_nn_sf_sync_CreateApplicationENS0_3OutINS0_13SharedPointerINS6_20IApplicationAccessorEEEvEENS_3ncm13ApplicationIdE
 00000000:0000007100060740       _ZN2nn2sf4cmif6client6detail13CmifProxyImplINS_2am7service19IApplicationCreatorENS2_19CmifDomainProxyKindINS0_4hipc6client38Hipc2ClientSessionManagedProxyKindBaseINSA_18Hipc2ProxyKindBaseILNS9_6detail11MessageTypeE6EEEEEEENS0_30MemoryResourceAllocationPolicyES7_NS3_19ProcessModifierImplINS2_21DefaultProxyFilterTagEEEE41_nn_sf_sync_PopLaunchRequestedApplicationENS0_3OutINS0_13SharedPointerINS6_20IApplicationAccessorEEEvEE
 00000000:00000071000607E0       _ZN2nn2sf4cmif6client6detail13CmifProxyImplINS_2am7service19IApplicationCreatorENS2_19CmifDomainProxyKindINS0_4hipc6client38Hipc2ClientSessionManagedProxyKindBaseINSA_18Hipc2ProxyKindBaseILNS9_6detail11MessageTypeE6EEEEEEENS0_30MemoryResourceAllocationPolicyES7_NS3_19ProcessModifierImplINS2_21DefaultProxyFilterTagEEEE35_nn_sf_sync_CreateSystemApplicationENS0_3OutINS0_13SharedPointerINS6_20IApplicationAccessorEEEvEENS_3ncm19SystemApplicationIdE
 00000000:0000007100060890       _ZN2nn2sf4cmif6client6detail13CmifProxyImplINS_2am7service19IApplicationCreatorENS2_19CmifDomainProxyKindINS0_4hipc6client38Hipc2ClientSessionManagedProxyKindBaseINSA_18Hipc2ProxyKindBaseILNS9_6detail11MessageTypeE6EEEEEEENS0_30MemoryResourceAllocationPolicyES7_NS3_19ProcessModifierImplINS2_21DefaultProxyFilterTagEEEE48_nn_sf_sync_PopFloatingApplicationForDevelopmentENS0_3OutINS0_13SharedPointerINS6_20IApplicationAccessorEEEvEE
 00000000:0000007100060930       _ZN2nn2sf4cmif6client6detail13CmifProxyImplINS_2am7service19IApplicationCreatorENS2_19CmifDomainProxyKindINS0_4hipc6client38Hipc2ClientSessionManagedProxyKindBaseINSA_18Hipc2ProxyKindBaseILNS9_6detail11MessageTypeE6EEEEEEENS0_30MemoryResourceAllocationPolicyES7_NS3_19ProcessModifierImplINS2_21DefaultProxyFilterTagEEEE17GetCmifBaseObjectEv
 00000000:0000007100060940       _ZThn32_N2nn2sf4cmif6client6detail13CmifProxyImplINS_2am7service19IApplicationCreatorENS2_19CmifDomainProxyKindINS0_4hipc6client38Hipc2ClientSessionManagedProxyKindBaseINSA_18Hipc2ProxyKindBaseILNS9_6detail11MessageTypeE6EEEEEEENS0_30MemoryResourceAllocationPolicyES7_NS3_19ProcessModifierImplINS2_21DefaultProxyFilterTagEEEE17GetCmifBaseObjectEv
 00000000:0000007100060950       _ZN2nn2sf4cmif6client6detail36GetClientProcessorImplWithObjectBaseINS2_19CmifDomainProxyKindINS0_4hipc6client38Hipc2ClientSessionManagedProxyKindBaseINS7_18Hipc2ProxyKindBaseILNS6_6detail11MessageTypeE6EEEEEEENS3_19ProcessModifierImplINS2_21DefaultProxyFilterTagEEEE14ObjectAssignerINS0_30MemoryResourceAllocationPolicyENS_14MemoryResourceEE14AllocateObjectINS_2am7service22IAppletCommonFunctionsEEEvi
 00000000:0000007100060A00       _ZN2nn2sf6detail38ObjectImplFactoryWithStatefulAllocatorINS0_4cmif6client6detail9CmifProxyINS_2am7service22IAppletCommonFunctionsENS4_19CmifDomainProxyKindINS0_4hipc6client38Hipc2ClientSessionManagedProxyKindBaseINSC_18Hipc2ProxyKindBaseILNSB_6detail11MessageTypeE6EEEEEEENS0_30MemoryResourceAllocationPolicyENS5_19ProcessModifierImplINS4_21DefaultProxyFilterTagEEEvEESK_E6Object12AddReferenceEv
 00000000:0000007100060A10       _ZN2nn2sf6detail38ObjectImplFactoryWithStatefulAllocatorINS0_4cmif6client6detail9CmifProxyINS_2am7service22IAppletCommonFunctionsENS4_19CmifDomainProxyKindINS0_4hipc6client38Hipc2ClientSessionManagedProxyKindBaseINSC_18Hipc2ProxyKindBaseILNSB_6detail11MessageTypeE6EEEEEEENS0_30MemoryResourceAllocationPolicyENS5_19ProcessModifierImplINS4_21DefaultProxyFilterTagEEEvEESK_E6Object7ReleaseEv
 00000000:0000007100060A70       _ZN2nn2sf4cmif6client6detail13CmifProxyImplINS_2am7service22IAppletCommonFunctionsENS2_19CmifDomainProxyKindINS0_4hipc6client38Hipc2ClientSessionManagedProxyKindBaseINSA_18Hipc2ProxyKindBaseILNS9_6detail11MessageTypeE6EEEEEEENS0_30MemoryResourceAllocationPolicyES7_NS3_19ProcessModifierImplINS2_21DefaultProxyFilterTagEEEE12GetProxyInfoEv
 00000000:0000007100060A80       _ZN2nn2sf4cmif6client6detail13CmifProxyImplINS_2am7service22IAppletCommonFunctionsENS2_19CmifDomainProxyKindINS0_4hipc6client38Hipc2ClientSessionManagedProxyKindBaseINSA_18Hipc2ProxyKindBaseILNS9_6detail11MessageTypeE6EEEEEEENS0_30MemoryResourceAllocationPolicyES7_NS3_19ProcessModifierImplINS2_21DefaultProxyFilterTagEEEE28_nn_sf_sync_ReadThemeStorageENS0_3OutImvEEmRKNS0_9OutBufferE
 00000000:0000007100060AB0       _ZN2nn2sf4cmif6client6detail13CmifProxyImplINS_2am7service22IAppletCommonFunctionsENS2_19CmifDomainProxyKindINS0_4hipc6client38Hipc2ClientSessionManagedProxyKindBaseINSA_18Hipc2ProxyKindBaseILNS9_6detail11MessageTypeE6EEEEEEENS0_30MemoryResourceAllocationPolicyES7_NS3_19ProcessModifierImplINS2_21DefaultProxyFilterTagEEEE29_nn_sf_sync_WriteThemeStorageEmRKNS0_8InBufferE
 00000000:0000007100060AE0       _ZN2nn2sf4cmif6client6detail13CmifProxyImplINS_2am7service22IAppletCommonFunctionsENS2_19CmifDomainProxyKindINS0_4hipc6client38Hipc2ClientSessionManagedProxyKindBaseINSA_18Hipc2ProxyKindBaseILNS9_6detail11MessageTypeE6EEEEEEENS0_30MemoryResourceAllocationPolicyES7_NS3_19ProcessModifierImplINS2_21DefaultProxyFilterTagEEEE39_nn_sf_sync_GetDisplayLogicalResolutionENS0_3OutIivEESO_
 00000000:0000007100060B00       _ZN2nn2sf4cmif6client6detail13CmifProxyImplINS_2am7service22IAppletCommonFunctionsENS2_19CmifDomainProxyKindINS0_4hipc6client38Hipc2ClientSessionManagedProxyKindBaseINSA_18Hipc2ProxyKindBaseILNS9_6detail11MessageTypeE6EEEEEEENS0_30MemoryResourceAllocationPolicyES7_NS3_19ProcessModifierImplINS2_21DefaultProxyFilterTagEEEE35_nn_sf_sync_SetDisplayMagnificationEffff
 00000000:0000007100060B30       _ZN2nn2sf4cmif6client6detail13CmifProxyImplINS_2am7service22IAppletCommonFunctionsENS2_19CmifDomainProxyKindINS0_4hipc6client38Hipc2ClientSessionManagedProxyKindBaseINSA_18Hipc2ProxyKindBaseILNS9_6detail11MessageTypeE6EEEEEEENS0_30MemoryResourceAllocationPolicyES7_NS3_19ProcessModifierImplINS2_21DefaultProxyFilterTagEEEE43_nn_sf_sync_SetHomeButtonDoubleClickEnabledEb
